Archive member included because of file (symbol)

/usr/local/OAT/lib/gcc/arm-elf/4.3.2/../../../../arm-elf/lib/interwork/libm.a(lib_a-s_cos.o)
                              src/haversine.o (cos)
/usr/local/OAT/lib/gcc/arm-elf/4.3.2/../../../../arm-elf/lib/interwork/libm.a(lib_a-s_sin.o)
                              src/haversine.o (sin)
/usr/local/OAT/lib/gcc/arm-elf/4.3.2/../../../../arm-elf/lib/interwork/libm.a(lib_a-w_atan2.o)
                              src/haversine.o (atan2)
/usr/local/OAT/lib/gcc/arm-elf/4.3.2/../../../../arm-elf/lib/interwork/libm.a(lib_a-w_sqrt.o)
                              src/haversine.o (sqrt)
/usr/local/OAT/lib/gcc/arm-elf/4.3.2/../../../../arm-elf/lib/interwork/libm.a(lib_a-e_atan2.o)
                              /usr/local/OAT/lib/gcc/arm-elf/4.3.2/../../../../arm-elf/lib/interwork/libm.a(lib_a-w_atan2.o) (__ieee754_atan2)
/usr/local/OAT/lib/gcc/arm-elf/4.3.2/../../../../arm-elf/lib/interwork/libm.a(lib_a-e_rem_pio2.o)
                              /usr/local/OAT/lib/gcc/arm-elf/4.3.2/../../../../arm-elf/lib/interwork/libm.a(lib_a-s_cos.o) (__ieee754_rem_pio2)
/usr/local/OAT/lib/gcc/arm-elf/4.3.2/../../../../arm-elf/lib/interwork/libm.a(lib_a-e_sqrt.o)
                              /usr/local/OAT/lib/gcc/arm-elf/4.3.2/../../../../arm-elf/lib/interwork/libm.a(lib_a-w_sqrt.o) (__ieee754_sqrt)
/usr/local/OAT/lib/gcc/arm-elf/4.3.2/../../../../arm-elf/lib/interwork/libm.a(lib_a-k_cos.o)
                              /usr/local/OAT/lib/gcc/arm-elf/4.3.2/../../../../arm-elf/lib/interwork/libm.a(lib_a-s_cos.o) (__kernel_cos)
/usr/local/OAT/lib/gcc/arm-elf/4.3.2/../../../../arm-elf/lib/interwork/libm.a(lib_a-k_rem_pio2.o)
                              /usr/local/OAT/lib/gcc/arm-elf/4.3.2/../../../../arm-elf/lib/interwork/libm.a(lib_a-e_rem_pio2.o) (__kernel_rem_pio2)
/usr/local/OAT/lib/gcc/arm-elf/4.3.2/../../../../arm-elf/lib/interwork/libm.a(lib_a-k_sin.o)
                              /usr/local/OAT/lib/gcc/arm-elf/4.3.2/../../../../arm-elf/lib/interwork/libm.a(lib_a-s_cos.o) (__kernel_sin)
/usr/local/OAT/lib/gcc/arm-elf/4.3.2/../../../../arm-elf/lib/interwork/libm.a(lib_a-s_atan.o)
                              /usr/local/OAT/lib/gcc/arm-elf/4.3.2/../../../../arm-elf/lib/interwork/libm.a(lib_a-e_atan2.o) (atan)
/usr/local/OAT/lib/gcc/arm-elf/4.3.2/../../../../arm-elf/lib/interwork/libm.a(lib_a-s_fabs.o)
                              /usr/local/OAT/lib/gcc/arm-elf/4.3.2/../../../../arm-elf/lib/interwork/libm.a(lib_a-e_atan2.o) (fabs)
/usr/local/OAT/lib/gcc/arm-elf/4.3.2/../../../../arm-elf/lib/interwork/libm.a(lib_a-s_floor.o)
                              /usr/local/OAT/lib/gcc/arm-elf/4.3.2/../../../../arm-elf/lib/interwork/libm.a(lib_a-k_rem_pio2.o) (floor)
/usr/local/OAT/lib/gcc/arm-elf/4.3.2/../../../../arm-elf/lib/interwork/libm.a(lib_a-s_isnand.o)
                              /usr/local/OAT/lib/gcc/arm-elf/4.3.2/../../../../arm-elf/lib/interwork/libm.a(lib_a-w_sqrt.o) (__isnand)
/usr/local/OAT/lib/gcc/arm-elf/4.3.2/../../../../arm-elf/lib/interwork/libm.a(lib_a-s_lib_ver.o)
                              /usr/local/OAT/lib/gcc/arm-elf/4.3.2/../../../../arm-elf/lib/interwork/libm.a(lib_a-w_sqrt.o) (__fdlib_version)
/usr/local/OAT/lib/gcc/arm-elf/4.3.2/../../../../arm-elf/lib/interwork/libm.a(lib_a-s_matherr.o)
                              /usr/local/OAT/lib/gcc/arm-elf/4.3.2/../../../../arm-elf/lib/interwork/libm.a(lib_a-w_sqrt.o) (matherr)
/usr/local/OAT/lib/gcc/arm-elf/4.3.2/../../../../arm-elf/lib/interwork/libm.a(lib_a-s_scalbn.o)
                              /usr/local/OAT/lib/gcc/arm-elf/4.3.2/../../../../arm-elf/lib/interwork/libm.a(lib_a-k_rem_pio2.o) (scalbn)
/usr/local/OAT/lib/gcc/arm-elf/4.3.2/../../../../arm-elf/lib/interwork/libm.a(lib_a-s_copysign.o)
                              /usr/local/OAT/lib/gcc/arm-elf/4.3.2/../../../../arm-elf/lib/interwork/libm.a(lib_a-s_scalbn.o) (copysign)
/cygdrive/c/OpenAT/OS/6.21.02/ADL/gcc_wmadl_6.21.02.0.0.lib(mos_ftr.o)
                              mos_header.o (mos_ftrkey)
/cygdrive/c/OpenAT/OS/6.21.02/ADL/gcc_wmadl_6.21.02.0.0.lib(opec_lst.o)
                              src/GpsInterface.o (wm_lstGetItem)
/cygdrive/c/OpenAT/OS/6.21.02/ADL/gcc_wmadl_6.21.02.0.0.lib(opec_std.o)
                              src/TempoCasesTask.o (wm_hexatoi)
/cygdrive/c/OpenAT/OS/6.21.02/ADL/gcc_wmadl_6.21.02.0.0.lib(adl_ad.o)
                              src/DOTAOperation.o (adl_adFinalise)
/cygdrive/c/OpenAT/OS/6.21.02/ADL/gcc_wmadl_6.21.02.0.0.lib(adl_adc.o)
                              src/adc.o (adl_adcAnalogRead)
/cygdrive/c/OpenAT/OS/6.21.02/ADL/gcc_wmadl_6.21.02.0.0.lib(adl_AppliInit.o)
                              mos_header.o (mos_headerInnerTasks)
/cygdrive/c/OpenAT/OS/6.21.02/ADL/gcc_wmadl_6.21.02.0.0.lib(adl_audio.o)
                              /cygdrive/c/OpenAT/OS/6.21.02/ADL/gcc_wmadl_6.21.02.0.0.lib(adl_AppliInit.o) (adlint_audioEventHandler)
/cygdrive/c/OpenAT/OS/6.21.02/ADL/gcc_wmadl_6.21.02.0.0.lib(adl_bus.o)
                              src/i2c.o (adl_busSubscribe)
/cygdrive/c/OpenAT/OS/6.21.02/ADL/gcc_wmadl_6.21.02.0.0.lib(adl_call.o)
                              /cygdrive/c/OpenAT/OS/6.21.02/ADL/gcc_wmadl_6.21.02.0.0.lib(adl_AppliInit.o) (adlint_callInit)
/cygdrive/c/OpenAT/OS/6.21.02/ADL/gcc_wmadl_6.21.02.0.0.lib(adl_CmdHandler.o)
                              /cygdrive/c/OpenAT/OS/6.21.02/ADL/gcc_wmadl_6.21.02.0.0.lib(adl_AppliInit.o) (adlint_atCmdInitHandler)
/cygdrive/c/OpenAT/OS/6.21.02/ADL/gcc_wmadl_6.21.02.0.0.lib(adl_CmdProcessor.o)
                              /cygdrive/c/OpenAT/OS/6.21.02/ADL/gcc_wmadl_6.21.02.0.0.lib(adl_AppliInit.o) (adlint_cpFlashHandle)
/cygdrive/c/OpenAT/OS/6.21.02/ADL/gcc_wmadl_6.21.02.0.0.lib(adl_CmdStackHandler.o)
                              /cygdrive/c/OpenAT/OS/6.21.02/ADL/gcc_wmadl_6.21.02.0.0.lib(adl_AppliInit.o) (adlint_atCmdStkInitHandler)
/cygdrive/c/OpenAT/OS/6.21.02/ADL/gcc_wmadl_6.21.02.0.0.lib(adl_ctx.o)
                              mos_header.o (mos_headerSetTasksCount)
/cygdrive/c/OpenAT/OS/6.21.02/ADL/gcc_wmadl_6.21.02.0.0.lib(adl_defaut_buildtime.o)
                              mos_header.o (mos_headerBuildTime)
/cygdrive/c/OpenAT/OS/6.21.02/ADL/gcc_wmadl_6.21.02.0.0.lib(adl_defaut_extend.o)
                              /cygdrive/c/OpenAT/OS/6.21.02/ADL/gcc_wmadl_6.21.02.0.0.lib(adl_AppliInit.o) (adlint_extendInitTable)
/cygdrive/c/OpenAT/OS/6.21.02/ADL/gcc_wmadl_6.21.02.0.0.lib(adl_defaut_selist.o)
                              mos_header.o (mos_headerSEList)
/cygdrive/c/OpenAT/OS/6.21.02/ADL/gcc_wmadl_6.21.02.0.0.lib(adl_defaut_timeslicing.o)
                              mos_header.o (mos_headerTimeSlicing)
/cygdrive/c/OpenAT/OS/6.21.02/ADL/gcc_wmadl_6.21.02.0.0.lib(adl_error.o)
                              src/Traces.o (adl_errHalt)
/cygdrive/c/OpenAT/OS/6.21.02/ADL/gcc_wmadl_6.21.02.0.0.lib(adl_EventMachine.o)
                              /cygdrive/c/OpenAT/OS/6.21.02/ADL/gcc_wmadl_6.21.02.0.0.lib(adl_AppliInit.o) (EvMachine_Create)
/cygdrive/c/OpenAT/OS/6.21.02/ADL/gcc_wmadl_6.21.02.0.0.lib(adl_extint.o)
                              src/Accelerometer.o (adl_extintSubscribe)
/cygdrive/c/OpenAT/OS/6.21.02/ADL/gcc_wmadl_6.21.02.0.0.lib(adl_extint_deprecated.o)
                              src/Accelerometer.o (adl_extintGetCapabilities)
/cygdrive/c/OpenAT/OS/6.21.02/ADL/gcc_wmadl_6.21.02.0.0.lib(adl_fcm.o)
                              /cygdrive/c/OpenAT/OS/6.21.02/ADL/gcc_wmadl_6.21.02.0.0.lib(adl_AppliInit.o) (adlint_rspHandler)
/cygdrive/c/OpenAT/OS/6.21.02/ADL/gcc_wmadl_6.21.02.0.0.lib(adl_flash.o)
                              /cygdrive/c/OpenAT/OS/6.21.02/ADL/gcc_wmadl_6.21.02.0.0.lib(adl_AppliInit.o) (adlint_flhUpdateFAT)
/cygdrive/c/OpenAT/OS/6.21.02/ADL/gcc_wmadl_6.21.02.0.0.lib(adl_gpio.o)
                              /cygdrive/c/OpenAT/OS/6.21.02/ADL/gcc_wmadl_6.21.02.0.0.lib(adl_AppliInit.o) (adlint_ioInit)
/cygdrive/c/OpenAT/OS/6.21.02/ADL/gcc_wmadl_6.21.02.0.0.lib(adl_gprs.o)
                              src/GPRS.o (adl_gprsSubscribe)
/cygdrive/c/OpenAT/OS/6.21.02/ADL/gcc_wmadl_6.21.02.0.0.lib(adl_irq.o)
                              /cygdrive/c/OpenAT/OS/6.21.02/ADL/gcc_wmadl_6.21.02.0.0.lib(adl_audio.o) (adlint_irqEventContextConstructorExt)
/cygdrive/c/OpenAT/OS/6.21.02/ADL/gcc_wmadl_6.21.02.0.0.lib(adl_memory.o)
                              src/i2c.o (adl_memGet)
/cygdrive/c/OpenAT/OS/6.21.02/ADL/gcc_wmadl_6.21.02.0.0.lib(adl_msg.o)
                              src/PowerCtrl.o (adl_msgSubscribe)
/cygdrive/c/OpenAT/OS/6.21.02/ADL/gcc_wmadl_6.21.02.0.0.lib(adl_port.o)
                              /cygdrive/c/OpenAT/OS/6.21.02/ADL/gcc_wmadl_6.21.02.0.0.lib(adl_AppliInit.o) (adlint_portUpdateInfoHandler)
/cygdrive/c/OpenAT/OS/6.21.02/ADL/gcc_wmadl_6.21.02.0.0.lib(adl_reg.o)
                              /cygdrive/c/OpenAT/OS/6.21.02/ADL/gcc_wmadl_6.21.02.0.0.lib(adl_adc.o) (adl_regGetHWInteger)
/cygdrive/c/OpenAT/OS/6.21.02/ADL/gcc_wmadl_6.21.02.0.0.lib(adl_RspHandler.o)
                              /cygdrive/c/OpenAT/OS/6.21.02/ADL/gcc_wmadl_6.21.02.0.0.lib(adl_CmdStackHandler.o) (adlint_atRspSubscribe)
/cygdrive/c/OpenAT/OS/6.21.02/ADL/gcc_wmadl_6.21.02.0.0.lib(adl_rtc.o)
                              src/GPSCtrl.o (adl_rtcGetSecondFracPartStep)
/cygdrive/c/OpenAT/OS/6.21.02/ADL/gcc_wmadl_6.21.02.0.0.lib(adl_sem.o)
                              src/i2c.o (adl_semProduce)
/cygdrive/c/OpenAT/OS/6.21.02/ADL/gcc_wmadl_6.21.02.0.0.lib(adl_serv.o)
                              /cygdrive/c/OpenAT/OS/6.21.02/ADL/gcc_wmadl_6.21.02.0.0.lib(adl_AppliInit.o) (adlint_servInit)
/cygdrive/c/OpenAT/OS/6.21.02/ADL/gcc_wmadl_6.21.02.0.0.lib(adl_sim.o)
                              /cygdrive/c/OpenAT/OS/6.21.02/ADL/gcc_wmadl_6.21.02.0.0.lib(adl_AppliInit.o) (adlint_simInit)
/cygdrive/c/OpenAT/OS/6.21.02/ADL/gcc_wmadl_6.21.02.0.0.lib(adl_sms.o)
                              /cygdrive/c/OpenAT/OS/6.21.02/ADL/gcc_wmadl_6.21.02.0.0.lib(adl_AppliInit.o) (adlint_smsInit)
/cygdrive/c/OpenAT/OS/6.21.02/ADL/gcc_wmadl_6.21.02.0.0.lib(adl_str.o)
                              /cygdrive/c/OpenAT/OS/6.21.02/ADL/gcc_wmadl_6.21.02.0.0.lib(adl_fcm.o) (adl_strGetIDExt)
/cygdrive/c/OpenAT/OS/6.21.02/ADL/gcc_wmadl_6.21.02.0.0.lib(adl_TimerHandler.o)
                              /cygdrive/c/OpenAT/OS/6.21.02/ADL/gcc_wmadl_6.21.02.0.0.lib(adl_ad.o) (adlint_tmrSubscribe)
/cygdrive/c/OpenAT/OS/6.21.02/ADL/gcc_wmadl_6.21.02.0.0.lib(adl_traces.o)
                              /cygdrive/c/OpenAT/OS/6.21.02/ADL/gcc_wmadl_6.21.02.0.0.lib(adl_AppliInit.o) (adlint_dbgInit)
/cygdrive/c/OpenAT/OS/6.21.02/ADL/gcc_wmadl_6.21.02.0.0.lib(adl_UnSoHandler.o)
                              /cygdrive/c/OpenAT/OS/6.21.02/ADL/gcc_wmadl_6.21.02.0.0.lib(adl_AppliInit.o) (adlint_atUnSoInitHandler)
/cygdrive/c/OpenAT/OS/6.21.02/ADL/gcc_wmadl_6.21.02.0.0.lib(adl_wd.o)
                              src/PowerCtrl.o (adl_wdRearmAppWd)
/cygdrive/c/OpenAT/Plug-ins/WIP/5.10.2020/WIP/gcc_wmwip_5.10.2020.lib(br_close.o)
                              src/GPRS.o (wip_bearerClose)
/cygdrive/c/OpenAT/Plug-ins/WIP/5.10.2020/WIP/gcc_wmwip_5.10.2020.lib(br_getopts.o)
                              src/GPRS.o (wip_bearerGetOpts)
/cygdrive/c/OpenAT/Plug-ins/WIP/5.10.2020/WIP/gcc_wmwip_5.10.2020.lib(br_mgr_init.o)
                              /cygdrive/c/OpenAT/Plug-ins/WIP/5.10.2020/WIP/gcc_wmwip_5.10.2020.lib(br_close.o) (wipint_bearer_list)
/cygdrive/c/OpenAT/Plug-ins/WIP/5.10.2020/WIP/gcc_wmwip_5.10.2020.lib(br_open.o)
                              src/GPRS.o (wip_bearerOpen)
/cygdrive/c/OpenAT/Plug-ins/WIP/5.10.2020/WIP/gcc_wmwip_5.10.2020.lib(br_setopts.o)
                              src/GPRS.o (wip_bearerSetOpts)
/cygdrive/c/OpenAT/Plug-ins/WIP/5.10.2020/WIP/gcc_wmwip_5.10.2020.lib(br_start.o)
                              src/GPRS.o (wip_bearerStart)
/cygdrive/c/OpenAT/Plug-ins/WIP/5.10.2020/WIP/gcc_wmwip_5.10.2020.lib(br_v24.o)
                              /cygdrive/c/OpenAT/Plug-ins/WIP/5.10.2020/WIP/gcc_wmwip_5.10.2020.lib(br_open.o) (wipint_bearerV24Open)
/cygdrive/c/OpenAT/Plug-ins/WIP/5.10.2020/WIP/gcc_wmwip_5.10.2020.lib(ch_channel.o)
                              src/anolclient.o (wip_closeAndClear)
/cygdrive/c/OpenAT/Plug-ins/WIP/5.10.2020/WIP/gcc_wmwip_5.10.2020.lib(ch_tcp_client.o)
                              src/anolclient.o (wip_TCPClientCreate)
/cygdrive/c/OpenAT/Plug-ins/WIP/5.10.2020/WIP/gcc_wmwip_5.10.2020.lib(ch_udp.o)
                              src/GPRS.o (wip_UDPCreateOpts)
/cygdrive/c/OpenAT/Plug-ins/WIP/5.10.2020/WIP/gcc_wmwip_5.10.2020.lib(file.o)
                              src/GPRS.o (wip_getFile)
/cygdrive/c/OpenAT/Plug-ins/WIP/5.10.2020/WIP/gcc_wmwip_5.10.2020.lib(ftp.o)
                              src/GPRS.o (wip_FTPCreateOpts)
/cygdrive/c/OpenAT/Plug-ins/WIP/5.10.2020/WIP/gcc_wmwip_5.10.2020.lib(ftp_evh.o)
                              /cygdrive/c/OpenAT/Plug-ins/WIP/5.10.2020/WIP/gcc_wmwip_5.10.2020.lib(ftp.o) (wipint_ftp_evh_control)
/cygdrive/c/OpenAT/Plug-ins/WIP/5.10.2020/WIP/gcc_wmwip_5.10.2020.lib(ftp_list.o)
                              /cygdrive/c/OpenAT/Plug-ins/WIP/5.10.2020/WIP/gcc_wmwip_5.10.2020.lib(ftp.o) (wipint_listCreate)
/cygdrive/c/OpenAT/Plug-ins/WIP/5.10.2020/WIP/gcc_wmwip_5.10.2020.lib(ftr.o)
                              /cygdrive/c/OpenAT/Plug-ins/WIP/5.10.2020/WIP/gcc_wmwip_5.10.2020.lib(ftp.o) (wip_checkFeatureLock)
/cygdrive/c/OpenAT/Plug-ins/WIP/5.10.2020/WIP/gcc_wmwip_5.10.2020.lib(in_aton.o)
                              /cygdrive/c/OpenAT/Plug-ins/WIP/5.10.2020/WIP/gcc_wmwip_5.10.2020.lib(ch_tcp_client.o) (wip_inet_aton)
/cygdrive/c/OpenAT/Plug-ins/WIP/5.10.2020/WIP/gcc_wmwip_5.10.2020.lib(in_ntoa.o)
                              src/ConfigSettings.o (wip_inet_ntoa)
/cygdrive/c/OpenAT/Plug-ins/WIP/5.10.2020/WIP/gcc_wmwip_5.10.2020.lib(list_plugin_unix.o)
                              /cygdrive/c/OpenAT/Plug-ins/WIP/5.10.2020/WIP/gcc_wmwip_5.10.2020.lib(ftp.o) (wip_FTPListUnixLineParser)
/cygdrive/c/OpenAT/Plug-ins/WIP/5.10.2020/WIP/gcc_wmwip_5.10.2020.lib(net_debug.o)
                              src/GPSCtrl.o (wip_debug)
/cygdrive/c/OpenAT/Plug-ins/WIP/5.10.2020/WIP/gcc_wmwip_5.10.2020.lib(net_init.o)
                              src/GPRS.o (wip_netInit)
/cygdrive/c/OpenAT/Plug-ins/WIP/5.10.2020/WIP/gcc_wmwip_5.10.2020.lib(net_initopts.o)
                              src/adl_main.o (wip_netInitOpts)
/cygdrive/c/OpenAT/Plug-ins/WIP/5.10.2020/WIP/gcc_wmwip_5.10.2020.lib(net_setopts.o)
                              /cygdrive/c/OpenAT/Plug-ins/WIP/5.10.2020/WIP/gcc_wmwip_5.10.2020.lib(net_initopts.o) (wip_netSetOptsv)
/cygdrive/c/OpenAT/Plug-ins/WIP/5.10.2020/WIP/gcc_wmwip_5.10.2020.lib(net_sync.o)
                              /cygdrive/c/OpenAT/Plug-ins/WIP/5.10.2020/WIP/gcc_wmwip_5.10.2020.lib(ch_tcp_client.o) (wip_netSync)
/cygdrive/c/OpenAT/Plug-ins/WIP/5.10.2020/WIP/gcc_wmwip_5.10.2020.lib(queue.o)
                              /cygdrive/c/OpenAT/Plug-ins/WIP/5.10.2020/WIP/gcc_wmwip_5.10.2020.lib(ch_channel.o) (wip_QInit)
/cygdrive/c/OpenAT/Plug-ins/WIP/5.10.2020/WIP/gcc_wmwip_5.10.2020.lib(readline.o)
                              /cygdrive/c/OpenAT/Plug-ins/WIP/5.10.2020/WIP/gcc_wmwip_5.10.2020.lib(ftp.o) (wip_rlConfigInit)
/cygdrive/c/OpenAT/Plug-ins/WIP/5.10.2020/WIP/gcc_wmwip_5.10.2020.lib(wip_subLevelOpts.o)
                              /cygdrive/c/OpenAT/Plug-ins/WIP/5.10.2020/WIP/gcc_wmwip_5.10.2020.lib(ftp.o) (wipint_subLevelOptionsParseSet)
/cygdrive/c/OpenAT/Plug-ins/WIP/5.10.2020/WIP/gcc_wmwip_5.10.2020.lib(wrapper.o)
                              /cygdrive/c/OpenAT/Plug-ins/WIP/5.10.2020/WIP/gcc_wmwip_5.10.2020.lib(ftp_evh.o) (wip_wrapperSwap)
/cygdrive/c/OpenAT/Plug-ins/WIP/5.10.2020/WIP/gcc_wmwip_5.10.2020.lib(wm_net_hton.o)
                              /cygdrive/c/OpenAT/Plug-ins/WIP/5.10.2020/WIP/gcc_wmwip_5.10.2020.lib(ch_tcp_client.o) (wm_netHTONS)
/cygdrive/c/OpenAT/Plug-ins/WIP/5.10.2020/WIP/gcc_wmwip_5.10.2020.lib(wm_net_in_aton.o)
                              /cygdrive/c/OpenAT/Plug-ins/WIP/5.10.2020/WIP/gcc_wmwip_5.10.2020.lib(in_aton.o) (wm_inetATON)
/cygdrive/c/OpenAT/Plug-ins/WIP/5.10.2020/WIP/gcc_wmwip_5.10.2020.lib(wm_net_in_ntoa.o)
                              /cygdrive/c/OpenAT/Plug-ins/WIP/5.10.2020/WIP/gcc_wmwip_5.10.2020.lib(in_ntoa.o) (wm_inetNTOA)
/cygdrive/c/OpenAT/Plug-ins/WIP/5.10.2020/WIP/gcc_wmwip_5.10.2020.lib(wm_net_wrapper.o)
                              /cygdrive/c/OpenAT/Plug-ins/WIP/5.10.2020/WIP/gcc_wmwip_5.10.2020.lib(br_close.o) (wm_netTskGetID)
/cygdrive/c/OpenAT/Plug-ins/WIP/5.10.2020/WIP/gcc_wmwip_5.10.2020.lib(rawprint.o)
                              /cygdrive/c/OpenAT/Plug-ins/WIP/5.10.2020/WIP/gcc_wmwip_5.10.2020.lib(net_debug.o) (ngRawPrintf)
/cygdrive/c/OpenAT/Plug-ins/WIP/5.10.2020/WIP/gcc_wmwip_5.10.2020.lib(br_eth.o)
                              /cygdrive/c/OpenAT/Plug-ins/WIP/5.10.2020/WIP/gcc_wmwip_5.10.2020.lib(br_open.o) (wipint_bearerEtherOpen)
/cygdrive/c/OpenAT/Plug-ins/WIP/5.10.2020/WIP/gcc_wmwip_5.10.2020.lib(br_gen_close.o)
                              /cygdrive/c/OpenAT/Plug-ins/WIP/5.10.2020/WIP/gcc_wmwip_5.10.2020.lib(br_v24.o) (wipint_bearerGenClose)
/cygdrive/c/OpenAT/Plug-ins/WIP/5.10.2020/WIP/gcc_wmwip_5.10.2020.lib(br_gen_getopt.o)
                              /cygdrive/c/OpenAT/Plug-ins/WIP/5.10.2020/WIP/gcc_wmwip_5.10.2020.lib(br_eth.o) (wipint_bearerGenGetOpt)
/cygdrive/c/OpenAT/Plug-ins/WIP/5.10.2020/WIP/gcc_wmwip_5.10.2020.lib(br_gen_setopt.o)
                              /cygdrive/c/OpenAT/Plug-ins/WIP/5.10.2020/WIP/gcc_wmwip_5.10.2020.lib(br_eth.o) (wipint_bearerGenSetOpt)
/cygdrive/c/OpenAT/Plug-ins/WIP/5.10.2020/WIP/gcc_wmwip_5.10.2020.lib(br_gen_stop.o)
                              /cygdrive/c/OpenAT/Plug-ins/WIP/5.10.2020/WIP/gcc_wmwip_5.10.2020.lib(br_v24.o) (wipint_bearerGenStop)
/cygdrive/c/OpenAT/Plug-ins/WIP/5.10.2020/WIP/gcc_wmwip_5.10.2020.lib(br_gprs.o)
                              /cygdrive/c/OpenAT/Plug-ins/WIP/5.10.2020/WIP/gcc_wmwip_5.10.2020.lib(br_open.o) (wipint_bearerGPRSOpen)
/cygdrive/c/OpenAT/Plug-ins/WIP/5.10.2020/WIP/gcc_wmwip_5.10.2020.lib(br_gsm.o)
                              /cygdrive/c/OpenAT/Plug-ins/WIP/5.10.2020/WIP/gcc_wmwip_5.10.2020.lib(br_open.o) (wipint_bearerGSMOpen)
/cygdrive/c/OpenAT/Plug-ins/WIP/5.10.2020/WIP/gcc_wmwip_5.10.2020.lib(br_mgr_debug.o)
                              /cygdrive/c/OpenAT/Plug-ins/WIP/5.10.2020/WIP/gcc_wmwip_5.10.2020.lib(br_v24.o) (wipint_bearerDebug)
/cygdrive/c/OpenAT/Plug-ins/WIP/5.10.2020/WIP/gcc_wmwip_5.10.2020.lib(br_ppp_getopt.o)
                              /cygdrive/c/OpenAT/Plug-ins/WIP/5.10.2020/WIP/gcc_wmwip_5.10.2020.lib(br_v24.o) (wipint_bearerPppGetOpt)
/cygdrive/c/OpenAT/Plug-ins/WIP/5.10.2020/WIP/gcc_wmwip_5.10.2020.lib(br_ppp_init.o)
                              /cygdrive/c/OpenAT/Plug-ins/WIP/5.10.2020/WIP/gcc_wmwip_5.10.2020.lib(br_v24.o) (wipint_bearerPppInit)
/cygdrive/c/OpenAT/Plug-ins/WIP/5.10.2020/WIP/gcc_wmwip_5.10.2020.lib(br_ppp_setopt.o)
                              /cygdrive/c/OpenAT/Plug-ins/WIP/5.10.2020/WIP/gcc_wmwip_5.10.2020.lib(br_v24.o) (wipint_bearerPppSetOpt)
/cygdrive/c/OpenAT/Plug-ins/WIP/5.10.2020/WIP/gcc_wmwip_5.10.2020.lib(br_ppp_start.o)
                              /cygdrive/c/OpenAT/Plug-ins/WIP/5.10.2020/WIP/gcc_wmwip_5.10.2020.lib(br_v24.o) (wipint_bearerPppStart)
/cygdrive/c/OpenAT/Plug-ins/WIP/5.10.2020/WIP/gcc_wmwip_5.10.2020.lib(br_ppp_stop.o)
                              /cygdrive/c/OpenAT/Plug-ins/WIP/5.10.2020/WIP/gcc_wmwip_5.10.2020.lib(br_v24.o) (wipint_bearerPppStop)
/cygdrive/c/OpenAT/Plug-ins/WIP/5.10.2020/WIP/gcc_wmwip_5.10.2020.lib(ch_class.o)
                              /cygdrive/c/OpenAT/Plug-ins/WIP/5.10.2020/WIP/gcc_wmwip_5.10.2020.lib(ch_tcp_client.o) (wip_classCreateOpts)
/cygdrive/c/OpenAT/Plug-ins/WIP/5.10.2020/WIP/gcc_wmwip_5.10.2020.lib(ch_tcp_server.o)
                              /cygdrive/c/OpenAT/Plug-ins/WIP/5.10.2020/WIP/gcc_wmwip_5.10.2020.lib(ftp.o) (wip_TCPServerCreate)
/usr/local/OAT/lib/gcc/arm-elf/4.3.2/interwork/libgcc.a(_udivsi3.o)
                              flash_src/atmel_flashDriver.o (__udivsi3)
/usr/local/OAT/lib/gcc/arm-elf/4.3.2/interwork/libgcc.a(_divsi3.o)
                              src/adc.o (__divsi3)
/usr/local/OAT/lib/gcc/arm-elf/4.3.2/interwork/libgcc.a(_umodsi3.o)
                              /cygdrive/c/OpenAT/Plug-ins/WIP/5.10.2020/WIP/gcc_wmwip_5.10.2020.lib(rawprint.o) (__umodsi3)
/usr/local/OAT/lib/gcc/arm-elf/4.3.2/interwork/libgcc.a(_dvmd_tls.o)
                              /usr/local/OAT/lib/gcc/arm-elf/4.3.2/interwork/libgcc.a(_udivsi3.o) (__div0)
/usr/local/OAT/lib/gcc/arm-elf/4.3.2/interwork/libgcc.a(_addsubdf3.o)
                              src/anolclient.o (__subdf3)
/usr/local/OAT/lib/gcc/arm-elf/4.3.2/interwork/libgcc.a(_muldivdf3.o)
                              src/GPSCtrl.o (__muldf3)
/usr/local/OAT/lib/gcc/arm-elf/4.3.2/interwork/libgcc.a(_cmpdf2.o)
                              src/GpsInterface.o (__gtdf2)
/usr/local/OAT/lib/gcc/arm-elf/4.3.2/interwork/libgcc.a(_fixdfsi.o)
                              src/GpsInterface.o (__fixdfsi)
/usr/local/OAT/lib/gcc/arm-elf/4.3.2/interwork/libgcc.a(_fixunsdfsi.o)
                              src/anolclient.o (__fixunsdfsi)
/usr/local/OAT/lib/gcc/arm-elf/4.3.2/interwork/libgcc.a(_addsubsf3.o)
                              src/GPSCtrl.o (__floatunsisf)
/usr/local/OAT/lib/gcc/arm-elf/4.3.2/interwork/libgcc.a(_muldivsf3.o)
                              src/GPSCtrl.o (__mulsf3)
/usr/local/OAT/lib/gcc/arm-elf/4.3.2/interwork/libgcc.a(_cmpsf2.o)
                              /cygdrive/c/OpenAT/OS/6.21.02/ADL/gcc_wmadl_6.21.02.0.0.lib(adl_rtc.o) (__nesf2)
/usr/local/OAT/lib/gcc/arm-elf/4.3.2/interwork/libgcc.a(_fixunssfsi.o)
                              src/GPSCtrl.o (__fixunssfsi)
/usr/local/OAT/lib/gcc/arm-elf/4.3.2/../../../../arm-elf/lib/interwork/libc.a(lib_a-asprintf.o)
                              src/Traces.o (asprintf)
/usr/local/OAT/lib/gcc/arm-elf/4.3.2/../../../../arm-elf/lib/interwork/libc.a(lib_a-atoi.o)
                              src/anolclient.o (atoi)
/usr/local/OAT/lib/gcc/arm-elf/4.3.2/../../../../arm-elf/lib/interwork/libc.a(lib_a-ctype_.o)
                              /cygdrive/c/OpenAT/OS/6.21.02/ADL/gcc_wmadl_6.21.02.0.0.lib(opec_std.o) (_ctype_)
/usr/local/OAT/lib/gcc/arm-elf/4.3.2/../../../../arm-elf/lib/interwork/libc.a(lib_a-errno.o)
                              /usr/local/OAT/lib/gcc/arm-elf/4.3.2/../../../../arm-elf/lib/interwork/libm.a(lib_a-w_sqrt.o) (__errno)
/usr/local/OAT/lib/gcc/arm-elf/4.3.2/../../../../arm-elf/lib/interwork/libc.a(lib_a-impure.o)
                              /usr/local/OAT/lib/gcc/arm-elf/4.3.2/../../../../arm-elf/lib/interwork/libc.a(lib_a-asprintf.o) (_impure_ptr)
/usr/local/OAT/lib/gcc/arm-elf/4.3.2/../../../../arm-elf/lib/interwork/libc.a(lib_a-locale.o)
                              mos_header.o (setlocale)
/usr/local/OAT/lib/gcc/arm-elf/4.3.2/../../../../arm-elf/lib/interwork/libc.a(lib_a-malloc.o)
                              src/DOTAOperation.o (free)
/usr/local/OAT/lib/gcc/arm-elf/4.3.2/../../../../arm-elf/lib/interwork/libc.a(lib_a-mallocr.o)
                              /usr/local/OAT/lib/gcc/arm-elf/4.3.2/../../../../arm-elf/lib/interwork/libc.a(lib_a-malloc.o) (_malloc_r)
/usr/local/OAT/lib/gcc/arm-elf/4.3.2/../../../../arm-elf/lib/interwork/libc.a(lib_a-memcmp.o)
                              src/WaypointControl.o (memcmp)
/usr/local/OAT/lib/gcc/arm-elf/4.3.2/../../../../arm-elf/lib/interwork/libc.a(lib_a-memcpy.o)
                              src/gpioTest.o (memcpy)
/usr/local/OAT/lib/gcc/arm-elf/4.3.2/../../../../arm-elf/lib/interwork/libc.a(lib_a-memset.o)
                              src/WaypointControl.o (memset)
/usr/local/OAT/lib/gcc/arm-elf/4.3.2/../../../../arm-elf/lib/interwork/libc.a(lib_a-mlock.o)
                              /usr/local/OAT/lib/gcc/arm-elf/4.3.2/../../../../arm-elf/lib/interwork/libc.a(lib_a-mallocr.o) (__malloc_lock)
/usr/local/OAT/lib/gcc/arm-elf/4.3.2/../../../../arm-elf/lib/interwork/libc.a(lib_a-printf.o)
                              src/i2c.o (printf)
/usr/local/OAT/lib/gcc/arm-elf/4.3.2/../../../../arm-elf/lib/interwork/libc.a(lib_a-realloc.o)
                              src/USB.o (realloc)
/usr/local/OAT/lib/gcc/arm-elf/4.3.2/../../../../arm-elf/lib/interwork/libc.a(lib_a-reallocr.o)
                              /usr/local/OAT/lib/gcc/arm-elf/4.3.2/../../../../arm-elf/lib/interwork/libc.a(lib_a-realloc.o) (_realloc_r)
/usr/local/OAT/lib/gcc/arm-elf/4.3.2/../../../../arm-elf/lib/interwork/libc.a(lib_a-sbrkr.o)
                              /usr/local/OAT/lib/gcc/arm-elf/4.3.2/../../../../arm-elf/lib/interwork/libc.a(lib_a-mallocr.o) (_sbrk_r)
/usr/local/OAT/lib/gcc/arm-elf/4.3.2/../../../../arm-elf/lib/interwork/libc.a(lib_a-sprintf.o)
                              src/gpioTest.o (sprintf)
/usr/local/OAT/lib/gcc/arm-elf/4.3.2/../../../../arm-elf/lib/interwork/libc.a(lib_a-sscanf.o)
                              src/anolclient.o (sscanf)
/usr/local/OAT/lib/gcc/arm-elf/4.3.2/../../../../arm-elf/lib/interwork/libc.a(lib_a-strcat.o)
                              src/PowerCtrl.o (strcat)
/usr/local/OAT/lib/gcc/arm-elf/4.3.2/../../../../arm-elf/lib/interwork/libc.a(lib_a-strchr.o)
                              src/anolclient.o (strchr)
/usr/local/OAT/lib/gcc/arm-elf/4.3.2/../../../../arm-elf/lib/interwork/libc.a(lib_a-strcmp.o)
                              src/TempoCasesTask.o (strcmp)
/usr/local/OAT/lib/gcc/arm-elf/4.3.2/../../../../arm-elf/lib/interwork/libc.a(lib_a-strcpy.o)
                              src/anolclient.o (strcpy)
/usr/local/OAT/lib/gcc/arm-elf/4.3.2/../../../../arm-elf/lib/interwork/libc.a(lib_a-strdup.o)
                              src/Traces.o (strdup)
/usr/local/OAT/lib/gcc/arm-elf/4.3.2/../../../../arm-elf/lib/interwork/libc.a(lib_a-strdup_r.o)
                              /usr/local/OAT/lib/gcc/arm-elf/4.3.2/../../../../arm-elf/lib/interwork/libc.a(lib_a-strdup.o) (_strdup_r)
/usr/local/OAT/lib/gcc/arm-elf/4.3.2/../../../../arm-elf/lib/interwork/libc.a(lib_a-strlen.o)
                              src/GPSCtrl.o (strlen)
/usr/local/OAT/lib/gcc/arm-elf/4.3.2/../../../../arm-elf/lib/interwork/libc.a(lib_a-strncat.o)
                              src/diagnose.o (strncat)
/usr/local/OAT/lib/gcc/arm-elf/4.3.2/../../../../arm-elf/lib/interwork/libc.a(lib_a-strncmp.o)
                              src/GpsInterface.o (strncmp)
/usr/local/OAT/lib/gcc/arm-elf/4.3.2/../../../../arm-elf/lib/interwork/libc.a(lib_a-strncpy.o)
                              src/TempoCasesTask.o (strncpy)
/usr/local/OAT/lib/gcc/arm-elf/4.3.2/../../../../arm-elf/lib/interwork/libc.a(lib_a-strsep.o)
                              src/Traces.o (strsep)
/usr/local/OAT/lib/gcc/arm-elf/4.3.2/../../../../arm-elf/lib/interwork/libc.a(lib_a-strstr.o)
                              src/anolclient.o (strstr)
/usr/local/OAT/lib/gcc/arm-elf/4.3.2/../../../../arm-elf/lib/interwork/libc.a(lib_a-strtok.o)
                              src/GpsInterface.o (strtok)
/usr/local/OAT/lib/gcc/arm-elf/4.3.2/../../../../arm-elf/lib/interwork/libc.a(lib_a-strtok_r.o)
                              /usr/local/OAT/lib/gcc/arm-elf/4.3.2/../../../../arm-elf/lib/interwork/libc.a(lib_a-strsep.o) (__strtok_r)
/usr/local/OAT/lib/gcc/arm-elf/4.3.2/../../../../arm-elf/lib/interwork/libc.a(lib_a-strtol.o)
                              /usr/local/OAT/lib/gcc/arm-elf/4.3.2/../../../../arm-elf/lib/interwork/libc.a(lib_a-atoi.o) (_strtol_r)
/usr/local/OAT/lib/gcc/arm-elf/4.3.2/../../../../arm-elf/lib/interwork/libc.a(lib_a-syscalls.o)
                              /usr/local/OAT/lib/gcc/arm-elf/4.3.2/../../../../arm-elf/lib/interwork/libc.a(lib_a-sbrkr.o) (_sbrk)
/usr/local/OAT/lib/gcc/arm-elf/4.3.2/../../../../arm-elf/lib/interwork/libc.a(lib_a-syswrite.o)
                              src/DOTAOperation.o (write)
/usr/local/OAT/lib/gcc/arm-elf/4.3.2/../../../../arm-elf/lib/interwork/libc.a(lib_a-vasprintf.o)
                              src/Traces.o (vasprintf)
/usr/local/OAT/lib/gcc/arm-elf/4.3.2/../../../../arm-elf/lib/interwork/libc.a(lib_a-vfprintf.o)
                              /usr/local/OAT/lib/gcc/arm-elf/4.3.2/../../../../arm-elf/lib/interwork/libc.a(lib_a-asprintf.o) (_vfprintf_r)
/usr/local/OAT/lib/gcc/arm-elf/4.3.2/../../../../arm-elf/lib/interwork/libc.a(lib_a-vfscanf.o)
                              /usr/local/OAT/lib/gcc/arm-elf/4.3.2/../../../../arm-elf/lib/interwork/libc.a(lib_a-sscanf.o) (__svfscanf_r)
/usr/local/OAT/lib/gcc/arm-elf/4.3.2/../../../../arm-elf/lib/interwork/libc.a(lib_a-vsprintf.o)
                              /cygdrive/c/OpenAT/Plug-ins/WIP/5.10.2020/WIP/gcc_wmwip_5.10.2020.lib(ftp.o) (vsprintf)
/usr/local/OAT/lib/gcc/arm-elf/4.3.2/../../../../arm-elf/lib/interwork/libc.a(lib_a-wsetup.o)
                              /usr/local/OAT/lib/gcc/arm-elf/4.3.2/../../../../arm-elf/lib/interwork/libc.a(lib_a-vfprintf.o) (__swsetup_r)
/usr/local/OAT/lib/gcc/arm-elf/4.3.2/../../../../arm-elf/lib/interwork/libc.a(lib_a-OAT_close.o)
                              /usr/local/OAT/lib/gcc/arm-elf/4.3.2/../../../../arm-elf/lib/interwork/libc.a(lib_a-syscalls.o) (OAT_close)
/usr/local/OAT/lib/gcc/arm-elf/4.3.2/../../../../arm-elf/lib/interwork/libc.a(lib_a-OAT_fstat.o)
                              /usr/local/OAT/lib/gcc/arm-elf/4.3.2/../../../../arm-elf/lib/interwork/libc.a(lib_a-syscalls.o) (OAT_fstat)
/usr/local/OAT/lib/gcc/arm-elf/4.3.2/../../../../arm-elf/lib/interwork/libc.a(lib_a-OAT_isatty.o)
                              /usr/local/OAT/lib/gcc/arm-elf/4.3.2/../../../../arm-elf/lib/interwork/libc.a(lib_a-syscalls.o) (OAT_isatty)
/usr/local/OAT/lib/gcc/arm-elf/4.3.2/../../../../arm-elf/lib/interwork/libc.a(lib_a-OAT_kill.o)
                              /usr/local/OAT/lib/gcc/arm-elf/4.3.2/../../../../arm-elf/lib/interwork/libc.a(lib_a-syscalls.o) (OAT_kill)
/usr/local/OAT/lib/gcc/arm-elf/4.3.2/../../../../arm-elf/lib/interwork/libc.a(lib_a-OAT_lseek.o)
                              /usr/local/OAT/lib/gcc/arm-elf/4.3.2/../../../../arm-elf/lib/interwork/libc.a(lib_a-syscalls.o) (OAT_lseek)
/usr/local/OAT/lib/gcc/arm-elf/4.3.2/../../../../arm-elf/lib/interwork/libc.a(lib_a-OAT_open.o)
                              /usr/local/OAT/lib/gcc/arm-elf/4.3.2/../../../../arm-elf/lib/interwork/libc.a(lib_a-syscalls.o) (OAT_open)
/usr/local/OAT/lib/gcc/arm-elf/4.3.2/../../../../arm-elf/lib/interwork/libc.a(lib_a-OAT_read.o)
                              /usr/local/OAT/lib/gcc/arm-elf/4.3.2/../../../../arm-elf/lib/interwork/libc.a(lib_a-syscalls.o) (OAT_read)
/usr/local/OAT/lib/gcc/arm-elf/4.3.2/../../../../arm-elf/lib/interwork/libc.a(lib_a-OAT_write.o)
                              /usr/local/OAT/lib/gcc/arm-elf/4.3.2/../../../../arm-elf/lib/interwork/libc.a(lib_a-syscalls.o) (OAT_write)
/usr/local/OAT/lib/gcc/arm-elf/4.3.2/../../../../arm-elf/lib/interwork/libc.a(lib_a-dtoa.o)
                              /usr/local/OAT/lib/gcc/arm-elf/4.3.2/../../../../arm-elf/lib/interwork/libc.a(lib_a-vfprintf.o) (_dtoa_r)
/usr/local/OAT/lib/gcc/arm-elf/4.3.2/../../../../arm-elf/lib/interwork/libc.a(lib_a-fflush.o)
                              /usr/local/OAT/lib/gcc/arm-elf/4.3.2/../../../../arm-elf/lib/interwork/libc.a(lib_a-vfprintf.o) (_fflush_r)
/usr/local/OAT/lib/gcc/arm-elf/4.3.2/../../../../arm-elf/lib/interwork/libc.a(lib_a-findfp.o)
                              /usr/local/OAT/lib/gcc/arm-elf/4.3.2/../../../../arm-elf/lib/interwork/libc.a(lib_a-syscalls.o) (__sinit)
/usr/local/OAT/lib/gcc/arm-elf/4.3.2/../../../../arm-elf/lib/interwork/libc.a(lib_a-fread.o)
                              /usr/local/OAT/lib/gcc/arm-elf/4.3.2/../../../../arm-elf/lib/interwork/libc.a(lib_a-vfscanf.o) (fread)
/usr/local/OAT/lib/gcc/arm-elf/4.3.2/../../../../arm-elf/lib/interwork/libc.a(lib_a-freer.o)
                              /usr/local/OAT/lib/gcc/arm-elf/4.3.2/../../../../arm-elf/lib/interwork/libc.a(lib_a-malloc.o) (_free_r)
/usr/local/OAT/lib/gcc/arm-elf/4.3.2/../../../../arm-elf/lib/interwork/libc.a(lib_a-fvwrite.o)
                              /usr/local/OAT/lib/gcc/arm-elf/4.3.2/../../../../arm-elf/lib/interwork/libc.a(lib_a-vfprintf.o) (__sfvwrite_r)
/usr/local/OAT/lib/gcc/arm-elf/4.3.2/../../../../arm-elf/lib/interwork/libc.a(lib_a-fwalk.o)
                              /usr/local/OAT/lib/gcc/arm-elf/4.3.2/../../../../arm-elf/lib/interwork/libc.a(lib_a-fflush.o) (_fwalk_reent)
/usr/local/OAT/lib/gcc/arm-elf/4.3.2/../../../../arm-elf/lib/interwork/libc.a(lib_a-iswspace.o)
                              /usr/local/OAT/lib/gcc/arm-elf/4.3.2/../../../../arm-elf/lib/interwork/libc.a(lib_a-vfscanf.o) (iswspace)
/usr/local/OAT/lib/gcc/arm-elf/4.3.2/../../../../arm-elf/lib/interwork/libc.a(lib_a-makebuf.o)
                              /usr/local/OAT/lib/gcc/arm-elf/4.3.2/../../../../arm-elf/lib/interwork/libc.a(lib_a-wsetup.o) (__smakebuf_r)
/usr/local/OAT/lib/gcc/arm-elf/4.3.2/../../../../arm-elf/lib/interwork/libc.a(lib_a-mbrtowc.o)
                              /usr/local/OAT/lib/gcc/arm-elf/4.3.2/../../../../arm-elf/lib/interwork/libc.a(lib_a-vfscanf.o) (_mbrtowc_r)
/usr/local/OAT/lib/gcc/arm-elf/4.3.2/../../../../arm-elf/lib/interwork/libc.a(lib_a-mbtowc_r.o)
                              /usr/local/OAT/lib/gcc/arm-elf/4.3.2/../../../../arm-elf/lib/interwork/libc.a(lib_a-mbrtowc.o) (_mbtowc_r)
/usr/local/OAT/lib/gcc/arm-elf/4.3.2/../../../../arm-elf/lib/interwork/libc.a(lib_a-memchr.o)
                              /usr/local/OAT/lib/gcc/arm-elf/4.3.2/../../../../arm-elf/lib/interwork/libc.a(lib_a-vfprintf.o) (memchr)
/usr/local/OAT/lib/gcc/arm-elf/4.3.2/../../../../arm-elf/lib/interwork/libc.a(lib_a-memmove.o)
                              /usr/local/OAT/lib/gcc/arm-elf/4.3.2/../../../../arm-elf/lib/interwork/libc.a(lib_a-reallocr.o) (memmove)
/usr/local/OAT/lib/gcc/arm-elf/4.3.2/../../../../arm-elf/lib/interwork/libc.a(lib_a-mprec.o)
                              /usr/local/OAT/lib/gcc/arm-elf/4.3.2/../../../../arm-elf/lib/interwork/libc.a(lib_a-dtoa.o) (_Bfree)
/usr/local/OAT/lib/gcc/arm-elf/4.3.2/../../../../arm-elf/lib/interwork/libc.a(lib_a-reent.o)
                              /usr/local/OAT/lib/gcc/arm-elf/4.3.2/../../../../arm-elf/lib/interwork/libc.a(lib_a-sbrkr.o) (errno)
/usr/local/OAT/lib/gcc/arm-elf/4.3.2/../../../../arm-elf/lib/interwork/libc.a(lib_a-refill.o)
                              /usr/local/OAT/lib/gcc/arm-elf/4.3.2/../../../../arm-elf/lib/interwork/libc.a(lib_a-vfscanf.o) (__srefill_r)
/usr/local/OAT/lib/gcc/arm-elf/4.3.2/../../../../arm-elf/lib/interwork/libc.a(lib_a-s_isinfd.o)
                              /usr/local/OAT/lib/gcc/arm-elf/4.3.2/../../../../arm-elf/lib/interwork/libc.a(lib_a-vfprintf.o) (__isinfd)
/usr/local/OAT/lib/gcc/arm-elf/4.3.2/../../../../arm-elf/lib/interwork/libc.a(lib_a-sccl.o)
                              /usr/local/OAT/lib/gcc/arm-elf/4.3.2/../../../../arm-elf/lib/interwork/libc.a(lib_a-vfscanf.o) (__sccl)
/usr/local/OAT/lib/gcc/arm-elf/4.3.2/../../../../arm-elf/lib/interwork/libc.a(lib_a-sf_nan.o)
                              /usr/local/OAT/lib/gcc/arm-elf/4.3.2/../../../../arm-elf/lib/interwork/libc.a(lib_a-vfscanf.o) (nanf)
/usr/local/OAT/lib/gcc/arm-elf/4.3.2/../../../../arm-elf/lib/interwork/libc.a(lib_a-stdio.o)
                              /usr/local/OAT/lib/gcc/arm-elf/4.3.2/../../../../arm-elf/lib/interwork/libc.a(lib_a-findfp.o) (__sclose)
/usr/local/OAT/lib/gcc/arm-elf/4.3.2/../../../../arm-elf/lib/interwork/libc.a(lib_a-strtod.o)
                              /usr/local/OAT/lib/gcc/arm-elf/4.3.2/../../../../arm-elf/lib/interwork/libc.a(lib_a-vfscanf.o) (_strtod_r)
/usr/local/OAT/lib/gcc/arm-elf/4.3.2/../../../../arm-elf/lib/interwork/libc.a(lib_a-strtoul.o)
                              /usr/local/OAT/lib/gcc/arm-elf/4.3.2/../../../../arm-elf/lib/interwork/libc.a(lib_a-vfscanf.o) (_strtoul_r)
/usr/local/OAT/lib/gcc/arm-elf/4.3.2/../../../../arm-elf/lib/interwork/libc.a(lib_a-ungetc.o)
                              /usr/local/OAT/lib/gcc/arm-elf/4.3.2/../../../../arm-elf/lib/interwork/libc.a(lib_a-vfscanf.o) (_ungetc_r)
/usr/local/OAT/lib/gcc/arm-elf/4.3.2/../../../../arm-elf/lib/interwork/libc.a(lib_a-writer.o)
                              /usr/local/OAT/lib/gcc/arm-elf/4.3.2/../../../../arm-elf/lib/interwork/libc.a(lib_a-stdio.o) (_write_r)
/usr/local/OAT/lib/gcc/arm-elf/4.3.2/../../../../arm-elf/lib/interwork/libc.a(lib_a-callocr.o)
                              /usr/local/OAT/lib/gcc/arm-elf/4.3.2/../../../../arm-elf/lib/interwork/libc.a(lib_a-mprec.o) (_calloc_r)
/usr/local/OAT/lib/gcc/arm-elf/4.3.2/../../../../arm-elf/lib/interwork/libc.a(lib_a-closer.o)
                              /usr/local/OAT/lib/gcc/arm-elf/4.3.2/../../../../arm-elf/lib/interwork/libc.a(lib_a-stdio.o) (_close_r)
/usr/local/OAT/lib/gcc/arm-elf/4.3.2/../../../../arm-elf/lib/interwork/libc.a(lib_a-fclose.o)
                              /usr/local/OAT/lib/gcc/arm-elf/4.3.2/../../../../arm-elf/lib/interwork/libc.a(lib_a-findfp.o) (fclose)
/usr/local/OAT/lib/gcc/arm-elf/4.3.2/../../../../arm-elf/lib/interwork/libc.a(lib_a-fstatr.o)
                              /usr/local/OAT/lib/gcc/arm-elf/4.3.2/../../../../arm-elf/lib/interwork/libc.a(lib_a-makebuf.o) (_fstat_r)
/usr/local/OAT/lib/gcc/arm-elf/4.3.2/../../../../arm-elf/lib/interwork/libc.a(lib_a-gdtoa-gethex.o)
                              /usr/local/OAT/lib/gcc/arm-elf/4.3.2/../../../../arm-elf/lib/interwork/libc.a(lib_a-strtod.o) (__gethex)
/usr/local/OAT/lib/gcc/arm-elf/4.3.2/../../../../arm-elf/lib/interwork/libc.a(lib_a-gdtoa-hexnan.o)
                              /usr/local/OAT/lib/gcc/arm-elf/4.3.2/../../../../arm-elf/lib/interwork/libc.a(lib_a-strtod.o) (__hexnan)
/usr/local/OAT/lib/gcc/arm-elf/4.3.2/../../../../arm-elf/lib/interwork/libc.a(lib_a-lseekr.o)
                              /usr/local/OAT/lib/gcc/arm-elf/4.3.2/../../../../arm-elf/lib/interwork/libc.a(lib_a-stdio.o) (_lseek_r)
/usr/local/OAT/lib/gcc/arm-elf/4.3.2/../../../../arm-elf/lib/interwork/libc.a(lib_a-readr.o)
                              /usr/local/OAT/lib/gcc/arm-elf/4.3.2/../../../../arm-elf/lib/interwork/libc.a(lib_a-stdio.o) (_read_r)
/usr/local/OAT/lib/gcc/arm-elf/4.3.2/interwork/libgcc.a(_truncdfsf2.o)
                              /usr/local/OAT/lib/gcc/arm-elf/4.3.2/../../../../arm-elf/lib/interwork/libc.a(lib_a-vfscanf.o) (__truncdfsf2)

Allocating common symbols
Common symbol       size              file

g_sms_tx_critical   0xb0              src/SMShandling.o
g_rx                0x100             src/protocol.o
gps                 0x334             src/GpsInterface.o
g_DiagCmdOffset     0x1               src/protocol.o
waypoint_data       0x22              src/SMShandling.o
FTPAddress          0xf               src/protocol.o
g_GeoFences         0x898             src/fence.o
EngineStartTime     0x18              src/adc.o
g_ModeConfig        0xc               src/ConfigSettings.o
g_current_fix       0x1a              src/GPSCtrl.o
gx_rx               0x100             src/SMShandling.o
errno               0x4               /usr/local/OAT/lib/gcc/arm-elf/4.3.2/../../../../arm-elf/lib/interwork/libc.a(lib_a-reent.o)
gVTGInfoTest        0x8               src/CommandHandlerXACT.o
gUSBTimeout         0x4               src/DOTAOperation.o
first_waypoint_data
                    0x22              src/SMShandling.o
wipint_event_queue  0x1c0             /cygdrive/c/OpenAT/Plug-ins/WIP/5.10.2020/WIP/gcc_wmwip_5.10.2020.lib(ch_channel.o)
gGGAInfoTest        0x10              src/CommandHandlerXACT.o
g_current_fix_32    0x8               src/GPSCtrl.o
g_BatteryVltg       0x4               src/adc.o
g_AvgAnalogVltg     0x4               src/adc.o
wipint_bearer_list  0x40              /cygdrive/c/OpenAT/Plug-ins/WIP/5.10.2020/WIP/gcc_wmwip_5.10.2020.lib(br_mgr_init.o)
tmp_str             0x64              src/CommandHandlerXACT.o
tracking_interval_status
                    0x8               src/SMShandling.o
g_LowExtIrqHandle   0x4               src/Accelerometer.o
g_VoltagePct        0x1               src/TempoCasesTask.o
AsyncReadCtxt       0x4               src/i2c.o
g_adCount           0x4               src/TempoCasesTask.o
adlint_dbgFcmFlow   0x1               /cygdrive/c/OpenAT/OS/6.21.02/ADL/gcc_wmadl_6.21.02.0.0.lib(adl_AppliInit.o)
prev_SMSorGPRSMode  0x1               src/InternalFlash.o
gpsUblox            0x10              src/ublox.o
g_VTGInfo           0x8               src/GPSCtrl.o
g_sms_tx            0xb0              src/SMShandling.o
g_AGPSData          0x140c            src/ConfigSettings.o
__hexdig            0x100             /usr/local/OAT/lib/gcc/arm-elf/4.3.2/../../../../arm-elf/lib/interwork/libc.a(lib_a-gdtoa-gethex.o)
g_DiagConfig        0xf0              src/ConfigSettings.o
adlint_cpLineBreak  0x5               /cygdrive/c/OpenAT/OS/6.21.02/ADL/gcc_wmadl_6.21.02.0.0.lib(adl_AppliInit.o)
adlint_rspIParam0   0x4               /cygdrive/c/OpenAT/OS/6.21.02/ADL/gcc_wmadl_6.21.02.0.0.lib(adl_AppliInit.o)
GPIOGPSHandle       0x4               src/GpsInterface.o
g_GGAInfo           0x10              src/GPSCtrl.o
adlint_callAutoAnswerTimeOut
                    0x4               /cygdrive/c/OpenAT/OS/6.21.02/ADL/gcc_wmadl_6.21.02.0.0.lib(adl_call.o)
OTA_Buffer          0xcd0             src/ota_at.o
wipint_bearer_toclose
                    0x40              /cygdrive/c/OpenAT/Plug-ins/WIP/5.10.2020/WIP/gcc_wmwip_5.10.2020.lib(br_mgr_init.o)
g_smsHandle         0x1               src/SMShandling.o
gVTGInfo            0x8               src/GpsInterface.o
wipint_closing_queue
                    0x1c0             /cygdrive/c/OpenAT/Plug-ins/WIP/5.10.2020/WIP/gcc_wmwip_5.10.2020.lib(ch_channel.o)
g_fcm_Handle        0x1               src/TempoCasesTask.o
wipint_ftp_timer_table
                    0x20              /cygdrive/c/OpenAT/Plug-ins/WIP/5.10.2020/WIP/gcc_wmwip_5.10.2020.lib(ftp.o)
g_Pos               0x1               src/ota_at.o
ExtIntHandle        0x4               src/Accelerometer.o
MyItfATCmdWrapperDescriptor
                    0x4               /cygdrive/c/OpenAT/OS/6.21.02/ADL/gcc_wmadl_6.21.02.0.0.lib(adl_CmdHandler.o)
EngineStopTime      0x18              src/adc.o
myBearer            0x4               src/GPRS.o
g_traceBuf          0x100             src/adl_main.o
g_DogParkMode       0x1               src/XactTests.o
adlint_semWrapperItf
                    0x4               /cygdrive/c/OpenAT/OS/6.21.02/ADL/gcc_wmadl_6.21.02.0.0.lib(adl_sem.o)
sms_waypoint_data   0x8c              src/protocol.o
g_config            0x90              src/ConfigSettings.o
ActiveBuffer        0x1               flash_src/atmel_flashDriver.o
g_tx_status         0x20              src/SMShandling.o
SMS_PHN_NUM         0xf               src/SMShandling.o
g_HighExtIrqHandle  0x4               src/Accelerometer.o
g_DogParkFence      0x2c              src/fence.o
g_IMEI              0xf               src/adl_main.o
g_status            0x20              src/status.o
pTempoCasesTmrPtr   0x4               src/TempoCasesTask.o
g_last_config       0x100             src/protocol.o
adlint_rspParam0    0x32              /cygdrive/c/OpenAT/OS/6.21.02/ADL/gcc_wmadl_6.21.02.0.0.lib(adl_AppliInit.o)
g_BoardTemp         0x4               src/adc.o
OpicWrapper         0x4               mos_header.o
ubloxDataFcmHandle  0x1               src/ublox.o
spi1Handle          0x4               flash_src/atmel_flashDriver.o
g_USBCommStruct     0x10              src/USB.o
g_alert             0x100             src/TempoCasesTask.o

Memory Configuration

Name             Origin             Length             Attributes
ROM_MAP          0x00220000         0x00800000         xr
RAM_MAP          0x180c0000         0x00800000         !xr
*default*        0x00000000         0xffffffff

Linker script and memory map

LOAD src/gpioTest.o
LOAD src/adc.o
LOAD src/FlashTest.o
LOAD src/wyhook_HAL.o
LOAD src/XactUtilities.o
LOAD src/SimOperations.o
LOAD src/status.o
LOAD src/WaypointControl.o
LOAD src/alarm_suppress.o
LOAD src/GPSCtrl.o
LOAD src/anolclient.o
LOAD src/GpsInterface.o
LOAD src/LED.o
LOAD src/TempoCasesTask.o
LOAD src/PowerCtrl.o
LOAD src/i2c_accelerometer.o
LOAD src/wyhook_Application.o
LOAD src/fence.o
LOAD src/Accelerometer.o
LOAD src/ota_at.o
LOAD src/XactTests.o
LOAD src/wyhook_Message.o
LOAD src/ConfigSettings.o
LOAD src/InternalFlash.o
LOAD src/haversine.o
LOAD src/CallBackMethods.o
LOAD src/Timers.o
LOAD src/VibrationMotor.o
LOAD src/button.o
LOAD src/DOTAOperation.o
LOAD src/gpioconfig.o
LOAD src/adl_main.o
LOAD src/dogwalk.o
LOAD src/COMMR572.o
LOAD src/USB.o
LOAD src/i2c.o
LOAD src/ublox.o
LOAD src/GPRS.o
LOAD src/SMShandling.o
LOAD src/Traces.o
LOAD src/airplane_mode.o
LOAD src/CommandHandlerXACT.o
LOAD src/protocol.o
LOAD src/diagnose.o
LOAD flash_src/atmel_flashDriver.o
LOAD /usr/local/OAT/lib/gcc/arm-elf/4.3.2/../../../../arm-elf/lib/interwork/libm.a
LOAD /usr/local/OAT/lib/gcc/arm-elf/4.3.2/../../../../arm-elf/lib/interwork/libm.a

.oat_header     0x00220000       0x64
 mos_header.o(.rodata*)
 .rodata        0x00220000       0x60 mos_header.o
                0x00220000                mos_BinHeader
 .rodata.str1.4
                0x00220060        0x4 mos_header.o

.text           0x00220064    0x52ef0
                0x00220064                PROVIDE (Image$$APP_RO$$Base, .)
                0x00220064                PROVIDE (Image$$RO$$Base, .)
 *(.text)
 .text          0x00220064      0xa20 src/gpioTest.o
                0x00220210                InitializeUnusedGpio
                0x00220084                GpioWrite
                0x00220554                readMagSens
                0x00220544                ReadMagSensorGPIO
                0x00220074                IsOnBatt
                0x00220534                ReadSOSGPIO
                0x00220258                ResetSPIFlash
                0x002202ac                GpioRead
                0x00220460                ProcessIginitionButton
                0x00220064                IsUSBConnected
                0x002201d4                TurnOffFF
                0x00220564                GPIOTimer
 .text          0x00220a84      0x3d4 src/adc.o
                0x00220b6c                ReadAnalogSensorVoltage
                0x00220a84                StopAnalogSensorReadTimer
                0x00220b20                StartADCReadTimer
                0x00220ab8                StopADCReadTimer
                0x00220aec                StartAnalogSensorReadTimer
 .text          0x00220e58      0x25c src/FlashTest.o
                0x00220ed0                FlashWrite
                0x00221050                FlashSubscribe
                0x00220fc4                FlashExists
                0x00220f5c                FlashRead
                0x00220e58                FlashErase
 .text          0x002210b4        0x0 src/wyhook_HAL.o
 .text          0x002210b4      0x7c8 src/XactUtilities.o
                0x002210b4                DumpMessageUSB
                0x00221100                DumpMessage
                0x00221460                hex_ascii_2_uint
                0x00221600                uint_2_hex_ascii
                0x00221130                DisplayErrorCode
 .text          0x0022187c      0x1b8 src/SimOperations.o
                0x0022187c                IsSimInit
                0x0022188c                evhSimHandler
 .text          0x00221a34      0x2fc src/status.o
                0x00221c44                InitStatus
                0x00221ab0                ClearAlarms
                0x00221a34                Status_setGSMStatus
                0x00221a78                Status_setResetReason
                0x00221a5c                Status_getGSMStatus
 .text          0x00221d30      0xec0 src/WaypointControl.o
                0x002221fc                ReadWaypoint
                0x002227e0                WriteWaypoint
                0x00222a98                WriteWaypointFromFix
                0x002223a8                DumpWaypointsUSB
                0x00221e50                DisplayNumWaypointsUSB
                0x00221ff4                DisplayWaypoint
                0x00221e90                DisplayWaypointUSB
                0x00221d40                DisplayPointers
                0x002225ac                FindFlashLocation
                0x00222738                CheckFactorySetupSpiFlash
                0x00222b40                SpiFlashFactoryInit
                0x00222ba4                InitSpiFlash
                0x00221d30                GetNumWaypoints
 .text          0x00222bf0       0xdc src/alarm_suppress.o
                0x00222c30                alarm_suppress_status
                0x00222bf0                alarm_suppress_set_alarm_time
 .text          0x00222ccc      0xf84 src/GPSCtrl.o
                0x00222cdc                SetFixStatus
                0x00222d00                ShutDownGPS
                0x00223278                Proc2DFix
                0x00222d3c                GetConvertTime
                0x00222ccc                ConfigSettings_setOTA38
                0x00222cec                GPSTimeoutHandler
                0x002239d0                DisplayGPSStates
                0x002232fc                NextFixHandler
 .text          0x00223c50      0xc8c src/anolclient.o
                0x00223e44                AGPSTxRequeset
                0x00223dd4                performColdStart
                0x00223c50                agps_display_float
                0x00223d84                get_agps_status
                0x00223d94                set_agps_status
                0x00224204                performAGPS
                0x00224120                getAssistNowOnlineData
 .text          0x002248dc     0x11a4 src/GpsInterface.o
                0x00225958                GetGGAInfo
                0x00224930                GetSV_SRN
                0x00224980                util_NumberOfFields
                0x002248dc                GetVGTInfo
                0x002259f8                GpsInit
                0x00224ef0                CmdHandlerNMEA
                0x00224f8c                gps_Stop
                0x00224eb4                gps_Start
                0x002249d0                util_IsAllDigits
                0x00224bfc                util_GetStringField
                0x00224f90                CmdHandlerGPSOFF
                0x00224a14                FilterSpeed
                0x00224fd0                ParseNMEA
                0x00225940                GetNMEAError
                0x00224920                IsGPSInitialized
                0x00224e74                CmdHandlerGPSON
                0x00224dbc                NMEAFailure
 .text          0x00225a80      0x7d0 src/LED.o
                0x00225b84                BlinkLED
                0x00225b44                ShutOffLED
                0x00225abc                TurnOffLEDNum
                0x00225aac                SetGPSLedStatus
                0x00225ae0                TurnOnLEDNum
                0x00225a80                check_shutdown_start
                0x00225b04                TurnOnLED
 .text          0x00226250      0x744 src/TempoCasesTask.o
                0x00226360                TC_DataHandler
                0x00226250                TempoCasesTask
                0x0022632c                DumpMessageTC
                0x002267e4                TC_packet_scheduler
                0x002262e0                UnsubscribeTempoTaskTimer
                0x00226700                TC_CtrlHandler
 .text          0x00226994      0xf5c src/PowerCtrl.o
                0x0022755c                PowerCtrlFSM
                0x002269a4                PowerCtrl_GetTXMode
                0x00226994                GetSlowIdleMode
                0x00226ec4                InitPowerCtrl
                0x002272f8                ExitSlowIdleMode
                0x00226de0                SubscribeFSMTimer
                0x002269b4                PowerOffModem
                0x00227188                DisplayPowerState
                0x00227430                EnterSlowIdleMode
 .text          0x002278f0      0x924 src/i2c_accelerometer.o
                0x00227ee0                naAccelerometerClearTrigger
                0x00227a28                naAcclerometerSetMeasureMode
                0x00227e6c                naAccelReadThreshold
                0x00227d34                naReadAccelData
                0x002279ac                naAcceleromterSetCtrl2
                0x00227ca4                naWriteAccelData
                0x00228120                naAccelerometerEpoch
                0x00228038                naAccelerometerSetTriggerThreshold
                0x00227aa4                naAcclerometerSetLevelMode
                0x00227b20                ReadAccelerometer
                0x00227918                naAccelerometerCheckIRQ
 .text          0x00228214      0x33c src/wyhook_Application.o
                0x00228450                wyhook_XACTApplication_UploadConfig
                0x002284c8                wyhook_ProcessSubTypeApplication_Application
                0x0022835c                wyhook_XACTApplication_DownloadConfig
                0x00228214                wyhook_XACTApplication_AssistGPSWorker
                0x00228328                wyhook_XACTApplication_AssistGPS
 .text          0x00228550      0x6f0 src/fence.o
                0x00228550                IsInSafeFence
                0x002285c0                eval_fix
                0x00228560                init_fence_status
 .text          0x00228c40     0x1328 src/Accelerometer.o
                0x0022920c                ExtIntSubscribe
                0x00229e88                InitAccelerometer
                0x002291cc                AccelInterruptRead
                0x00228d74                SimulateAccelTrigger
                0x00229de8                CheckAccelSlowIdle
                0x00229544                SetAccelMeasureMode
                0x00228f28                CheckAccelState
                0x00228efc                AccelReadData
                0x00228c80                ActivateAccelOnPowerUp
                0x00228c5c                AccelSimulateLockUp
                0x002293f4                SetAccelLevelMode
                0x00228da4                AccelCalibrate
                0x00228c4c                ConfigSettings_setOTA57
                0x00229de0                SetAccelTriggerThreshold
                0x002293f8                ClearIRQ
                0x00229398                AccelInterrupt
 .text          0x00229f68      0x820 src/ota_at.o
                0x0022a2c8                OTAAT_eval
                0x0022a604                OTAAT_handle_at_cmd_response
                0x00229ffc                SendOTAResponse
                0x0022a55c                DConfig_Rpt_handler
                0x00229f78                ResetDiagTxTimerCount
                0x00229f90                test_otaat_tmr
                0x0022a1c8                send_ota_response
                0x0022a0b4                QueSMS
 .text          0x0022a788      0x4dc src/XactTests.o
                0x0022aac8                GPSWaypointTest
                0x0022a938                DogParkTest
                0x0022a788                DogParkTestV2
 .text          0x0022ac64      0x328 src/wyhook_Message.o
                0x0022ad04                wyhook_ProccessPacketizedDataBuffer
                0x0022ac80                wyhook_Assert
                0x0022aca8                wyhook_Checksum
                0x0022ad50                wyhook_ProcessPacketBuffer
 .text          0x0022af8c     0x258c src/ConfigSettings.o
                0x0022afd0                SetMagneticSNSEnable
                0x0022b570                GetTrackingInterval
                0x0022b758                start_reset_timer
                0x0022af90                ConfigSettings_setOTA27
                0x0022b1dc                SetSOSAlert
                0x0022ba74                SetGSMAlert
                0x0022b040                SetWaypointDownload
                0x0022c8e4                SetLEDEnable
                0x0022b740                reset_timer
                0x0022d3b0                SetSMSorGPRS
                0x0022c930                SetOverSpeedAlertThresh
                0x0022c7b4                SetServerPhoneNum
                0x0022cf78                SetServerIPAddr
                0x0022b6f4                start_invisible_timer
                0x0022c854                SetServerPort
                0x0022d2f8                SetMotionAlarmThresh
                0x0022c9e0                SetAccelerometerDurSleep
                0x0022b86c                SetInvisibleOp
                0x0022b808                SetCriticalConfirmation
                0x0022b8f8                SetLEDPattern
                0x0022c97c                SetFenceNumber
                0x0022cff0                SetMode
                0x0022afa0                invisible_timer
                0x0022d290                SetAccelerometerThreshWake
                0x0022af8c                SetCurrentFix
                0x0022b304                SetPowerDownDisable
                0x0022ba10                SetBattAlert
                0x0022b7b8                DisplayFence
                0x0022b294                SetVibrationMotorDelayEn
                0x0022ce18                SetFenceEnDisSettings
                0x0022b374                SetPowerDisconAlert
                0x0022b3e4                SetBreadCrumbMode
                0x0022cb3c                WriteFenceCoord
                0x0022bae4                SetGPSAlert
                0x0022c878                SetTrackingModeDuration
                0x0022bb58                SetTrackingInterval
                0x0022c7dc                Config_SetMode
                0x0022ca44                SetAccelerometerDurWake
                0x0022caa8                SetWaypointInterval
                0x0022bbe0                DisplayConfig
                0x0022b984                SetVibrationMotorPattern
 .text          0x0022d518     0x1108 src/InternalFlash.o
                0x0022d63c                InternalFlash_WriteNonVolatileStatus
                0x0022db84                InternalFlash_WriteAPNName
                0x0022dc00                LoadDefaultConfigStruct
                0x0022d9d4                InternalFlash_GetAPNLogin
                0x0022da30                InternalFlash_GetAPNName
                0x0022d5f0                InternalFlash_WriteRebootAlarm
                0x0022da8c                InternalFlash_WriteAPNPassword
                0x0022d770                InternalFlash_ReadRebootAlarm
                0x0022e084                LogPktToFlash
                0x0022d5a8                InternalFlash_WriteNVMode
                0x0022d560                InternalFlash_LoadNonVolatileStatus
                0x0022d6ac                ConfigToFlash
                0x0022d7e8                AGPSDataToFlash
                0x0022d89c                ConfigStringToFlash
                0x0022dd68                load_defaults
                0x0022ddac                DiagConfigToFlash
                0x0022e19c                DumpFenceFlash
                0x0022de18                LoadAccelCalibration
                0x0022d710                StoreToFlash
                0x0022dfdc                LogPktFromFlash
                0x0022db08                InternalFlash_WriteAPNLogin
                0x0022dec4                WriteBandValue
                0x0022d844                ModeConfigToFlash
                0x0022df44                LoadBandValue
                0x0022e12c                FencesToFlash
                0x0022d8f0                WriteAccelCalibrationFlash
                0x0022d978                InternalFlash_GetAPNPassword
                0x0022e320                LoadFromFlash
                0x0022dd6c                CheckFactorySetup
                0x0022d518                InternalFlash_ReadNVMode
 .text          0x0022e620      0x3e4 src/haversine.o
                0x0022e620                Intersect
                0x0022e7bc                points2distance
                0x0022e710                quadStatus
                0x0022e6a0                triangleStatus
 .text          0x0022ea04      0x274 src/CallBackMethods.o
                0x0022ea0c                CSQHandler
                0x0022eb50                CREGHandler
                0x0022ea04                CCEDHandler
 .text          0x0022ec78      0x9f0 src/Timers.o
                0x0022f2bc                stopTimers
                0x0022eef4                stopDiagMsgHandlerTimer
                0x0022f380                StartGPSAvailabilityTimer
                0x0022ed60                startDiagMsgHandlerTimer
                0x0022ec7c                StartPowerOffTimer
                0x0022f044                startNextFixTimer
                0x0022f440                stopTimersFWUpdate
                0x0022edc0                StartIPktTxTimer
                0x0022ec78                BatteryCheckTimerHandler
                0x0022ee50                singleTxHandlerTimer
                0x0022efdc                stopNextFixTimer
                0x0022ef58                StopGPSAvailabilityTimer
                0x0022ed00                startDiagMsgRepeatTimer
                0x0022ee8c                stopDiagMsgRepeatTimer
                0x0022ee14                StartFTPTimer
                0x0022f4f0                startTimers
 .text          0x0022f668      0x224 src/VibrationMotor.o
                0x0022f690                VibrateTimer
                0x0022f67c                vibrate_turn_on
                0x0022f668                vibrate_turn_off
 .text          0x0022f88c      0x294 src/button.o
                0x0022f8c8                SetSWButtonOvrd
                0x0022f8f8                ClrSWButtonOvrd
                0x0022f924                ProcessPowerButton
                0x0022f8a4                InputButtonActive
                0x0022f88c                GetSWButtonOvrd
 .text          0x0022fb20      0x958 src/DOTAOperation.o
                0x00230158                CreateADFile
                0x0022fb20                recordFileSizeOTA
                0x00230428                recordFileSize
                0x0022fc34                CompleteCRCCalc
                0x00230390                StartDOTA
                0x0022fb30                update_crc_32
                0x0022fbb8                CompleteADUpdate
                0x00230238                evh_ADmem
                0x0022fd08                ADWriteData
                0x0022fcb8                CheckTransfer
 .text          0x00230478        0x0 src/gpioconfig.o
 .text          0x00230478      0x8c4 src/adl_main.o
                0x00230d38                ClearOnOffFF
                0x002304f8                MainTask
 .text          0x00230d3c       0x40 src/dogwalk.o
                0x00230d4c                GetDogWalkMode
                0x00230d5c                SetDogParkMode
                0x00230d3c                SetDogWalkMode
                0x00230d6c                GetDogParkMode
 .text          0x00230d7c      0x200 src/COMMR572.o
                0x00230ea0                make_write_command
                0x00230dc4                make_read_command
                0x00230d7c                check_sum
 .text          0x00230f7c     0x1890 src/USB.o
                0x002326cc                USBInterface
                0x0023266c                USBFlowCmdHandler
                0x00231444                evhUSBCommFcmDataHandler
                0x00230f7c                setUSBLoadFile
                0x00230fc4                evhUSBCommFcmCtrlHandler
                0x002324a0                CommInit
                0x00231130                clrUSBLoadFile
                0x002311b0                ChangeV24State
                0x0023185c                USBInterfaceCmdHandler
                0x00231354                parseSLIPPacket
                0x00231540                EnterAlarmMode
 .text          0x0023280c      0xd60 src/i2c.o
                0x00232bfc                i2c_write
                0x00232d08                putuBoxCmd
                0x0023280c                CmdToU8
                0x00232acc                i2c_read
                0x002329e0                busHighIrqHandler
                0x0023306c                ioCallToI2CDevice
                0x00232a20                SetAddressSize
                0x00232dc8                i2c_Subscribe
                0x00232978                busLowIrqHandler
 .text          0x0023356c      0x7bc src/ublox.o
                0x00233600                ublox_stop
                0x002335c8                ublox_ShowData
                0x00233658                ublox_Start
                0x002336b4                ublox_InitSerialPort
                0x0023356c                ublox_isON
                0x00233884                ublox_SendStartupCommands
                0x00233cc0                ublox_InitGPIO
                0x00233910                ublox_SetupRXchannel
                0x0023357c                isValidNMEAchar
 .text          0x00233d28     0x172c src/GPRS.o
                0x00233d38                GPRS_HaveBearer
                0x00233dd4                ConnectFTP
                0x00233d28                GPRS_GetConnectionType
                0x00234830                ReInitBearer
                0x00234b34                myConnectToGPRS
                0x00234ce0                myHandler
                0x002349d0                StartGPRS
                0x002342c0                GetTCPStatus
                0x00233d8c                ntohs
                0x00234310                evhGPRSHandler
                0x00233d48                ReverseEndian
                0x00233dc0                ClearTCPStatus
                0x002346c4                InitBearer
                0x002341f0                TCPTransmit
                0x002342d4                GPRS_get_IPAddr
                0x002348b4                appli_entry_point
 .text          0x00235454     0x1754 src/SMShandling.o
                0x0023548c                SetStartupTrackingMode
                0x0023685c                SMS_Handler
                0x00236af0                CmdHandlerSMS
                0x002367b4                sms_service_start
                0x002355f0                sms_send
                0x002369f4                sms_service_stop
                0x0023668c                SMS_ctrl_Handler
                0x0023662c                ClearSMSHandler
                0x002354b4                SMSHandling_DisplayRegStatus
                0x00235454                makeAllZeroWaypoint
                0x00235b28                SMS_TX_Handler
 .text          0x00236ba8      0x25c src/Traces.o
                0x00236de0                abort
                0x00236d80                trace_puts_
                0x00236cfc                trace_printf_
                0x00236c68                trace_hex_dump_
 .text          0x00236e04      0x234 src/airplane_mode.o
                0x00236e04                AirplaneModeExit
                0x00236e6c                AirplaneModeEnter
                0x00236ed4                evalAirplaneMode
 .text          0x00237038     0x17a4 src/CommandHandlerXACT.o
                0x00237038                CmdHandlerXACT
 .text          0x002387dc     0x1bd4 src/protocol.o
                0x00238908                get_LastConfigSendAck
                0x00238c00                eval_packet
                0x00238874                temp_to_uint
                0x00238aac                parse_DiagnosticPacket
                0x00238918                parse_ModeConfigPacket
                0x002388c0                uint_to_temp
                0x00239738                make_packet
                0x002396ec                SetInitialConfiguration
                0x0023a2e4                IPacketTxHandler
 .text          0x0023a3b0      0xb18 src/diagnose.o
                0x0023a3b0                diagnose_get
                0x0023a56c                diagnose_timer
                0x0023acfc                diagnose_handler
                0x0023adc8                diagnose_deactivate_indicator
                0x0023ae48                diagnose_activate_indicator
                0x0023ab5c                diagnose_handler_ota
                0x0023a490                diagnose_get_mode
 .text          0x0023aec8     0x1018 flash_src/atmel_flashDriver.o
                0x0023b94c                spi_ComparePageToBuffer
                0x0023b2f0                readSPI1
                0x0023b6c8                readMnfgCode
                0x0023bc6c                sf_writeSector
                0x0023b6f4                writeSPI1
                0x0023b574                sf_readSector
                0x0023b0ec                sf_MediaInit
                0x0023b624                spi_ReadBuffer
                0x0023b518                spi_ReadPage
                0x0023af64                spi_subSPI1
                0x0023b8b4                spi_ReadPageToBuffer
                0x0023b1b4                FLASHReadyForCommand
                0x0023baac                spi_BufferToMemory
                0x0023bb8c                spi_WriteBuffer
                0x0023aec8                GetPageFromSector
                0x0023af08                spi_ConfigOpAddrSize
                0x0023be84                spi_EraseChip
 .text          0x0023bee0       0xec /usr/local/OAT/lib/gcc/arm-elf/4.3.2/../../../../arm-elf/lib/interwork/libm.a(lib_a-s_cos.o)
                0x0023bee0                cos
 .text          0x0023bfcc       0xf8 /usr/local/OAT/lib/gcc/arm-elf/4.3.2/../../../../arm-elf/lib/interwork/libm.a(lib_a-s_sin.o)
                0x0023bfcc                sin
 .text          0x0023c0c4       0x10 /usr/local/OAT/lib/gcc/arm-elf/4.3.2/../../../../arm-elf/lib/interwork/libm.a(lib_a-w_atan2.o)
                0x0023c0c4                atan2
 .text          0x0023c0d4      0x124 /usr/local/OAT/lib/gcc/arm-elf/4.3.2/../../../../arm-elf/lib/interwork/libm.a(lib_a-w_sqrt.o)
                0x0023c0d4                sqrt
 .text          0x0023c1f8      0x2e4 /usr/local/OAT/lib/gcc/arm-elf/4.3.2/../../../../arm-elf/lib/interwork/libm.a(lib_a-e_atan2.o)
                0x0023c1f8                __ieee754_atan2
 .text          0x0023c4dc      0x62c /usr/local/OAT/lib/gcc/arm-elf/4.3.2/../../../../arm-elf/lib/interwork/libm.a(lib_a-e_rem_pio2.o)
                0x0023c4dc                __ieee754_rem_pio2
 .text          0x0023cb08      0x250 /usr/local/OAT/lib/gcc/arm-elf/4.3.2/../../../../arm-elf/lib/interwork/libm.a(lib_a-e_sqrt.o)
                0x0023cb08                __ieee754_sqrt
 .text          0x0023cd58      0x35c /usr/local/OAT/lib/gcc/arm-elf/4.3.2/../../../../arm-elf/lib/interwork/libm.a(lib_a-k_cos.o)
                0x0023cd58                __kernel_cos
 .text          0x0023d0b4      0xc3c /usr/local/OAT/lib/gcc/arm-elf/4.3.2/../../../../arm-elf/lib/interwork/libm.a(lib_a-k_rem_pio2.o)
                0x0023d0b4                __kernel_rem_pio2
 .text          0x0023dcf0      0x20c /usr/local/OAT/lib/gcc/arm-elf/4.3.2/../../../../arm-elf/lib/interwork/libm.a(lib_a-k_sin.o)
                0x0023dcf0                __kernel_sin
 .text          0x0023defc      0x4cc /usr/local/OAT/lib/gcc/arm-elf/4.3.2/../../../../arm-elf/lib/interwork/libm.a(lib_a-s_atan.o)
                0x0023defc                atan
 .text          0x0023e3c8       0x20 /usr/local/OAT/lib/gcc/arm-elf/4.3.2/../../../../arm-elf/lib/interwork/libm.a(lib_a-s_fabs.o)
                0x0023e3c8                fabs
 .text          0x0023e3e8      0x1c4 /usr/local/OAT/lib/gcc/arm-elf/4.3.2/../../../../arm-elf/lib/interwork/libm.a(lib_a-s_floor.o)
                0x0023e3e8                floor
 .text          0x0023e5ac       0x30 /usr/local/OAT/lib/gcc/arm-elf/4.3.2/../../../../arm-elf/lib/interwork/libm.a(lib_a-s_isnand.o)
                0x0023e5ac                __isnand
 .text          0x0023e5dc        0x0 /usr/local/OAT/lib/gcc/arm-elf/4.3.2/../../../../arm-elf/lib/interwork/libm.a(lib_a-s_lib_ver.o)
 .text          0x0023e5dc        0x8 /usr/local/OAT/lib/gcc/arm-elf/4.3.2/../../../../arm-elf/lib/interwork/libm.a(lib_a-s_matherr.o)
                0x0023e5dc                matherr
 .text          0x0023e5e4      0x1bc /usr/local/OAT/lib/gcc/arm-elf/4.3.2/../../../../arm-elf/lib/interwork/libm.a(lib_a-s_scalbn.o)
                0x0023e5e4                scalbn
 .text          0x0023e7a0       0x24 /usr/local/OAT/lib/gcc/arm-elf/4.3.2/../../../../arm-elf/lib/interwork/libm.a(lib_a-s_copysign.o)
                0x0023e7a0                copysign
 .text          0x0023e7c4       0x7c mos_header.o
                0x0023e838                mos_GetHeader
 .text          0x0023e840       0x78 /cygdrive/c/OpenAT/OS/6.21.02/ADL/gcc_wmadl_6.21.02.0.0.lib(mos_ftr.o)
                0x0023e87c                wm_ftrIsTCPIPEnabled
                0x0023e894                wm_ftrIsOrangeM2MEnabled
                0x0023e888                wm_ftrIsMQEnabled
                0x0023e840                wm_ftrIsEnabled
                0x0023e8a0                wm_ftrIsOatGTiEnabled
                0x0023e8ac                wm_ftrIsCGPSEnabled
 .text          0x0023e8b8      0x3f0 /cygdrive/c/OpenAT/OS/6.21.02/ADL/gcc_wmadl_6.21.02.0.0.lib(opec_lst.o)
                0x0023e914                wm_lstDeleteItem
                0x0023ec40                wm_lstFindPrevItem
                0x0023ea90                wm_lstAddItem
                0x0023ea14                wm_lstInsertItem
                0x0023e8e0                wm_lstCreate
                0x0023e9c0                wm_lstDestroy
                0x0023ebf8                wm_lstFindNextItem
                0x0023eae8                wm_lstGetEntry
                0x0023eb20                wm_lstFindAllItem
                0x0023e9a4                wm_lstClear
                0x0023e9d4                wm_lstFindItem
                0x0023e8b8                wm_lstCompareItem
                0x0023eb0c                wm_lstGetItem
                0x0023ebb4                wm_lstResetItem
                0x0023e8fc                wm_lstGetCount
 .text          0x0023eca8      0x62c /cygdrive/c/OpenAT/OS/6.21.02/ADL/gcc_wmadl_6.21.02.0.0.lib(opec_std.o)
                0x0023ede4                wm_ishexa
                0x0023f04c                wm_ibuftohexa
                0x0023ed3c                wm_stricmp
                0x0023ee84                wm_strRemoveCRLF
                0x0023edc0                wm_isascii
                0x0023ee58                wm_isphonestring
                0x0023f090                wm_strSwitch
                0x0023ed74                wm_strnicmp
                0x0023eecc                wm_hexatoi
                0x0023ee38                wm_ishexastring
                0x0023ef70                wm_hexatoibuf
                0x0023ee14                wm_isnumstring
                0x0023efbc                wm_itohexa
                0x0023eca8                wm_itoa
                0x0023f0dc                wm_strGetParameterString
 .text          0x0023f2d4      0xd8c /cygdrive/c/OpenAT/OS/6.21.02/ADL/gcc_wmadl_6.21.02.0.0.lib(adl_ad.o)
                0x0023ff44                adl_adGetInstallResult
                0x0023ffb0                adl_factoryReadCell
                0x0023f380                adl_adGetState
                0x0023fe44                adl_adFindInit
                0x0023fccc                adl_adRecompact
                0x0023fb10                adl_adFormat
                0x0023fa28                adl_adEventUnsubscribe
                0x0023f664                adl_adWrite
                0x0023f5e0                adl_adInfo
                0x0023f40c                adl_adGetCellList
                0x0023f7bc                adl_adUnsubscribe
                0x0023f744                adl_adDelete
                0x0023febc                adl_adFindNext
                0x00240008                adl_rdmsReadCell
                0x0023fdc0                adl_adInstall
                0x0023f568                adl_adFinalise
                0x0023f948                adl_adEventSubscribe
                0x0023f7e4                adl_adSubscribe
 .text          0x00240060      0x148 /cygdrive/c/OpenAT/OS/6.21.02/ADL/gcc_wmadl_6.21.02.0.0.lib(adl_adc.o)
                0x0024014c                adl_adcAnalogRead
                0x002400f4                adl_adcRead
 .text          0x002401a8      0x4bc /cygdrive/c/OpenAT/OS/6.21.02/ADL/gcc_wmadl_6.21.02.0.0.lib(adl_AppliInit.o)
                0x002403d0                adlint_extendMessageRegisterExt
                0x002403b8                adl_InitGetType
                0x002401a8                mos_headerSetInitType
                0x00240438                mos_headerInitTask
                0x002403c4                adlint_extendGetWrapperStruct
                0x00240424                adlint_extendMessageRegister
 .text          0x00240664      0xa20 /cygdrive/c/OpenAT/OS/6.21.02/ADL/gcc_wmadl_6.21.02.0.0.lib(adl_audio.o)
                0x00240938                adl_audioMelodyPlay
                0x00240664                adl_audioSubscribe
                0x00240854                adl_audioDTMFPlayExt
                0x00240a80                adl_audioGetOption
                0x002409e8                adl_audioSetOption
                0x00240ff4                adl_audioStreamListen
                0x0024103c                adl_audioStreamPlay
                0x00240734                adl_audioUnsubscribe
                0x002408c8                adl_audioMelodyPlayExt
                0x00240b1c                adlint_audioEventHandler
                0x00240714                adlint_audioIsOneResourceSubscribed
                0x00240b58                adlint_audioOpenIrqSetting
                0x00240b8c                adlint_audioSouceDataCopy
                0x00240c70                adlint_audioHighIRQMemRelease
                0x00240958                adl_audioStop
                0x002407a4                adl_audioTonePlayExt
                0x00240828                adl_audioTonePlay
                0x002408b4                adl_audioDTMFPlay
 .text          0x00241084      0x554 /cygdrive/c/OpenAT/OS/6.21.02/ADL/gcc_wmadl_6.21.02.0.0.lib(adl_bus.o)
                0x002413a0                adl_busReadExt
                0x00241424                adl_busRead
                0x0024118c                adl_busUnsubscribe
                0x00241550                adl_busDirectWrite
                0x00241434                adl_busWriteExt
                0x002414b8                adl_busWrite
                0x002414c8                adl_busDirectRead
                0x00241084                adlint_busGetCapabilities
                0x002410e0                adl_busSubscribe
                0x002411ec                adl_busIOCtl
 .text          0x002415d8      0xa94 /cygdrive/c/OpenAT/OS/6.21.02/ADL/gcc_wmadl_6.21.02.0.0.lib(adl_call.o)
                0x00241838                adl_callSetup
                0x00241f4c                adlint_callReleaseByDTRHandler
                0x00241c20                adlint_callRspHandler
                0x00241790                adl_callSetupExt
                0x00241964                adlint_callAutoAnswerSetupTimeOut
                0x002419ac                adlint_callAutoAnswerTimeOutHandler
                0x00242050                adlint_callListCompare
                0x00241e10                adlint_callUnsoHandler
                0x002416ac                adl_callSubscribe
                0x002415d8                adlint_callCLCCRspHandler
                0x00241694                adlint_callInit
                0x00241a34                adlint_callAutoAnswerAudioOpen
                0x002418c8                adl_callAnswerExt
                0x002419b8                adlint_callhandleallhandler
                0x00241f58                adl_callUnsubscribe
                0x00241668                adlint_callUpdateDataFlags
                0x0024184c                adl_callHangupExt
                0x00241af0                adlint_callCmdHandler
                0x00241a70                adlint_callAutoAnswerOK
                0x002418b8                adl_callHangup
                0x00241954                adl_callAnswer
 .text          0x0024206c      0xb20 /cygdrive/c/OpenAT/OS/6.21.02/ADL/gcc_wmadl_6.21.02.0.0.lib(adl_CmdHandler.o)
                0x00242884                adl_atCmdHandler
                0x002422a8                adlint_strIsValidParam
                0x00242204                adlint_atGetNextSemicolonPos
                0x002421ac                adl_atCmdUnSubscribe
                0x00242138                adl_atCmdSubscribeExt
                0x00242b54                adl_atCmdSetQuietMode
                0x002421e4                adlint_atCmdHandlerDetectTxtMode
                0x002429ac                adlint_atIsCmdSubscribed
                0x00242b64                adlint_atIsValidNI
                0x0024240c                adlint_strpreParser
                0x002420d4                adl_atCmdSubscribe
                0x002427bc                adlint_atProcessNextCatCmdTmrHandler
                0x002424b0                adlint_atProcessCmdSubscription
                0x00242b80                adlint_atGetValidNI
                0x0024231c                adlint_strGetParameters
                0x0024206c                adlint_atCmdInitHandler
                0x00242280                adlint_atProcessNextCatCmd
                0x00242250                adlint_atCmdDetect
 .text          0x00242b8c      0xc5c /cygdrive/c/OpenAT/OS/6.21.02/ADL/gcc_wmadl_6.21.02.0.0.lib(adl_CmdProcessor.o)
                0x00243078                adlint_cpSetValue_CRC
                0x00242cd4                adlint_cpForbiddenHandler
                0x00243578                adlint_cpFltUnso_CRING
                0x00243360                adlint_cpSetValue_V
                0x00243194                adlint_cpSetValue_CREG
                0x00243108                adlint_cpSetValue_CGREG
                0x00243630                adlint_cpFltUnso_CREG
                0x00242c38                adlint_cpRegisterTable
                0x00243724                adlint_cpCXXXRspHandler
                0x00242b8c                adlint_cpBuildCmdString
                0x00243220                adlint_cpSetValue_WIND
                0x002436d4                adlint_cpParseUnsolicited
                0x00242c98                adlint_cpReadE2PValueHandler
                0x00243688                adlint_cpFltUnso_WIND
                0x00243018                adlint_cpSIMHandler
                0x00243500                adlint_cpSetValue_Z
                0x00242d9c                adlint_cpKnowStateHandler
                0x002435c4                adlint_cpFltUnso_CGEV
                0x00243474                adlint_cpSetValue_ANDF
                0x002435d8                adlint_cpFltUnso_CGREG
                0x00242e24                adlint_cpFixedValueHandler
                0x00242f3c                adlint_cpSetValue_CGEREP
                0x00242bdc                adlint_cpRegisterTableSub
                0x002437d4                adlint_cpSetValue_Q
                0x00242cf4                adlint_cpParseCmd
                0x00243310                adlint_cpSetValue_CMEE
                0x002433a0                adlint_cpSetValue_ANDW
 .text          0x002437e8      0xa9c /cygdrive/c/OpenAT/OS/6.21.02/ADL/gcc_wmadl_6.21.02.0.0.lib(adl_CmdStackHandler.o)
                0x00243a88                adlint_atCmdStkSend
                0x00243938                __adlint_CmdStkGetPortListIndex
                0x00243ec8                adlint_atCmdSendExtSpe
                0x00243828                adlint_CmdStackCompare
                0x0024390c                adlint_atCmdStkInitHandler
                0x00243960                adlint_CmdStkGetPortListItem
                0x002437e8                adlint_CmdStackListCompare
                0x00243a60                adlint_CmdStkGetPortListItemFromTimerId
                0x00243ef4                adl_atCmdSendExt
                0x00243988                adlint_CmdProcess_MsgHandler
                0x00243a00                adlint_CmdStkPortHandler
                0x00243f70                adl_atCmdSend
                0x002438f4                adlint_CmdStackListDestroy
                0x00243814                adlint_CmdStackDestroy
                0x00243f98                adl_atCmdCreate
                0x00244100                adl_atCmdSendText
                0x00243fc0                adlint_atCmdStkExtCreate
                0x00243844                adlint_CmdStackGetItemFromTI
                0x00243888                adlint_CmdStackGetItemFromNI
 .text          0x00244284      0x1dc /cygdrive/c/OpenAT/OS/6.21.02/ADL/gcc_wmadl_6.21.02.0.0.lib(adl_ctx.o)
                0x0024435c                adl_ctxResumeExt
                0x002442c0                adl_ctxGetTaskID
                0x002442e0                adl_ctxGetID
                0x00244390                adl_ctxResume
                0x002442ac                mos_headerSetTasksCount
                0x00244314                adl_ctxSuspendExt
                0x002443b0                adl_ctxGetState
                0x00244348                adl_ctxSuspend
                0x002442f4                adl_ctxGetDiagnostic
                0x002443a4                adl_ctxGetTasksCount
                0x0024443c                adlint_ctxInitEnd
                0x00244404                adl_ctxSleep
 .text          0x00244460        0x0 /cygdrive/c/OpenAT/OS/6.21.02/ADL/gcc_wmadl_6.21.02.0.0.lib(adl_defaut_buildtime.o)
 .text          0x00244460        0x0 /cygdrive/c/OpenAT/OS/6.21.02/ADL/gcc_wmadl_6.21.02.0.0.lib(adl_defaut_extend.o)
 .text          0x00244460        0x0 /cygdrive/c/OpenAT/OS/6.21.02/ADL/gcc_wmadl_6.21.02.0.0.lib(adl_defaut_selist.o)
 .text          0x00244460        0x0 /cygdrive/c/OpenAT/OS/6.21.02/ADL/gcc_wmadl_6.21.02.0.0.lib(adl_defaut_timeslicing.o)
 .text          0x00244460      0x330 /cygdrive/c/OpenAT/OS/6.21.02/ADL/gcc_wmadl_6.21.02.0.0.lib(adl_error.o)
                0x00244658                adl_errStartBacktraceAnalysis
                0x0024462c                adl_errGetAnalysisState
                0x002446d0                adl_errRetrieveNextBacktrace
                0x002444f8                adl_errSubscribe
                0x002445a0                adl_errHalt
                0x00244548                adl_errUnsubscribe
                0x00244490                adlint_errHalt
                0x002445ec                adl_errEraseAllBacktraces
 .text          0x00244790      0x2bc /cygdrive/c/OpenAT/OS/6.21.02/ADL/gcc_wmadl_6.21.02.0.0.lib(adl_EventMachine.o)
                0x002449d8                EvMachine_get_Node
                0x00244a2c                EvMachine_handling_event
                0x00244880                EvMachine_Create
                0x00244a00                EvMachine_remove_node
                0x00244904                EvMachine_Destroy
                0x0024492c                EvMachine_add_node
 .text          0x00244a4c      0x3c0 /cygdrive/c/OpenAT/OS/6.21.02/ADL/gcc_wmadl_6.21.02.0.0.lib(adl_extint.o)
                0x00244cf4                adl_extintRead
                0x00244d90                adl_extintGetFIQStatus
                0x00244d18                adl_extintUnsubscribe
                0x00244dcc                adl_extintSetFIQStatus
                0x00244c9c                adl_extintGetConfig
                0x00244c34                adl_extintConfig
                0x00244a4c                adl_extintSubscribe
 .text          0x00244e0c      0x1b4 /cygdrive/c/OpenAT/OS/6.21.02/ADL/gcc_wmadl_6.21.02.0.0.lib(adl_extint_deprecated.o)
                0x00244e0c                adl_extintGetCapabilities
 .text          0x00244fc0      0xe54 /cygdrive/c/OpenAT/OS/6.21.02/ADL/gcc_wmadl_6.21.02.0.0.lib(adl_fcm.o)
                0x0024518c                adlint_memrelHandler
                0x00245b3c                adl_fcmGetStatus
                0x00245204                adlint_fcmATOUnsubscribe
                0x00244fc0                adlint_rspHandler
                0x002454d8                adlint_fcmcflHandler
                0x002456cc                adlint_fcmATOHandler
                0x00245bd0                adl_fcmSubscribe
                0x0024522c                adlint_fcmGetItemIndexes
                0x00245090                adlint_fcmListCompare
                0x00245a9c                adl_fcmReleaseCredits
                0x002455e0                adlint_fcmrecHandler
                0x0024505c                adlint_fcmInit
                0x00245494                adlint_fcmresHandler
                0x0024532c                adlint_iossHandler
                0x00245940                adl_fcmSendDataExt
                0x00245164                adlint_fcmGetItem
                0x00245880                adl_fcmSwitchV24State
                0x0024524c                adlint_fcmEventNotify
                0x002454b4                adlint_fcmoflHandler
                0x00245a40                adl_fcmSendData
                0x00245ba8                adl_fcmIsAvailable
                0x00245140                adlint_fcmGetItemIndex
                0x00245750                adl_fcmUnsubscribe
 .text          0x00245e14      0x7d4 /cygdrive/c/OpenAT/OS/6.21.02/ADL/gcc_wmadl_6.21.02.0.0.lib(adl_flash.o)
                0x0024608c                adl_flhSubscribe
                0x00245ee8                adlint_flhUpdateFAT
                0x002464c8                adl_flhGetIDCount
                0x002463a0                adl_flhErase
                0x00245e14                adlint_flhListCompare
                0x0024651c                adl_flhGetUsedSize
                0x0024649c                adl_flhGetFreeMem
                0x002461e8                adl_flhRead
                0x002462d0                adl_flhWrite
                0x00246150                adl_flhExist
 .text          0x002465e8      0x928 /cygdrive/c/OpenAT/OS/6.21.02/ADL/gcc_wmadl_6.21.02.0.0.lib(adl_gpio.o)
                0x00246e3c                adl_ioWrite
                0x002468a4                adlint_ioEventFindHandle
                0x00246e88                adl_ioWriteSingle
                0x00246bdc                adl_ioSetDirection
                0x00246d98                adl_ioRead
                0x0024697c                adl_ioSubscribe
                0x0024690c                adl_ioEventUnsubscribe
                0x00246b48                adl_ioUnsubscribe
                0x002466c8                adlint_ioInit
                0x00246de4                adl_ioReadSingle
                0x002468c8                adl_ioEventSubscribe
                0x002465e8                adl_ioGetCapabilitiesList
 .text          0x00246f10      0xefc /cygdrive/c/OpenAT/OS/6.21.02/ADL/gcc_wmadl_6.21.02.0.0.lib(adl_gprs.o)
                0x00247628                adl_gprsSetup
                0x002477a4                adl_gprsAct
                0x002478d4                adl_gprsDeact
                0x00246f54                adl_gprsSubscribe
                0x00247784                adl_gprsActExt
                0x002473fc                adl_gprsIsAnIPAddress
                0x00247478                adl_gprsSetupExt
                0x0024765c                adlint_gprsAct
                0x002478e8                adl_gprsGetCidInformations
                0x00247d20                adl_gprsUnsubscribe
                0x002477b8                adl_gprsDeactExt
 .text          0x00247e0c      0x5d4 /cygdrive/c/OpenAT/OS/6.21.02/ADL/gcc_wmadl_6.21.02.0.0.lib(adl_irq.o)
                0x00248268                adl_irqSetConfig
                0x00247e1c                adlint_irqIsLowLevelContext
                0x00248258                adlint_irqIsLowLevelRunning
                0x00248324                adl_irqGetConfig
                0x00248080                adlint_irqEventContextGetAppContext
                0x00248374                adl_irqGetCapabilities
                0x00248058                adlint_irqEventContextConstructor
                0x002481b8                adl_irqSubscribe
                0x00248078                adlint_irqEventContextUpdate
                0x00247fc0                adlint_irqEventContextConstructorExt
                0x002481d4                adl_irqUnsubscribe
                0x00248120                adl_irqSubscribeExt
                0x0024823c                adlint_irqFindHandle
                0x002483b0                adlint_irqSetConfig
                0x00248088                adlint_irqEventContextDestructor
 .text          0x002483e0      0x1d0 /cygdrive/c/OpenAT/OS/6.21.02/ADL/gcc_wmadl_6.21.02.0.0.lib(adl_memory.o)
                0x00248560                adlint_memReleaseNoTrace
                0x0024852c                adlint_memGetNoTrace
                0x002483e0                adl_memGetInfo
                0x00248590                adlint_memReleaseAuto
                0x002484e0                mos_headerMemInfoInit
                0x002484fc                adlint_memServiceInit
                0x002484a4                _adl_memRelease
                0x00248468                adl_memGet
 .text          0x002485b0      0x378 /cygdrive/c/OpenAT/OS/6.21.02/ADL/gcc_wmadl_6.21.02.0.0.lib(adl_msg.o)
                0x0024873c                adlint_msgSend
                0x00248904                mos_headerInitMailboxes
                0x00248910                adlint_extendGetMailbox
                0x00248804                adlint_msgUserMessageHandler
                0x00248600                adl_msgSubscribe
                0x002487a8                adl_msgSend
                0x002488dc                adlint_msgReceive
                0x002486b8                adl_msgUnsubscribe
 .text          0x00248928      0x624 /cygdrive/c/OpenAT/OS/6.21.02/ADL/gcc_wmadl_6.21.02.0.0.lib(adl_port.o)
                0x00248b9c                adlint_portControlV24
                0x00248e90                adl_portStopSignalPolling
                0x00248b04                adlint_portStopPollingTimer
                0x00248980                adlint_portNotifyHandlers
                0x00248950                adlint_portListCompare
                0x00248bd0                adl_portSubscribe
                0x00248d20                adl_portIsAvailable
                0x00248ae4                adlint_portFindItem
                0x00248b44                adlint_portUpdateInfoHandler
                0x00248ab0                adlint_portStartPollingTimer
                0x00248dc4                adl_portStartSignalPolling
                0x00248c88                adl_portUnsubscribe
                0x00248b6c                adlint_portV24IsOpened
                0x00248d5c                adl_portGetSignalState
 .text          0x00248f4c      0x194 /cygdrive/c/OpenAT/OS/6.21.02/ADL/gcc_wmadl_6.21.02.0.0.lib(adl_reg.o)
                0x00249064                adl_regGetHWInteger
                0x002490d4                adl_regGetHWData
                0x00248f90                adl_regGetWCPUType
                0x00248ff8                adl_regGetWCPUTypeExt
                0x00248f7c                adlint_regDestructor
                0x00249098                adl_regGetHWDataChunk
 .text          0x002490e0      0x998 /cygdrive/c/OpenAT/OS/6.21.02/ADL/gcc_wmadl_6.21.02.0.0.lib(adl_RspHandler.o)
                0x00249328                adl_atIntHandler
                0x002498ac                adlint_RspProcess_MsgHandler
                0x002495e4                adl_atSendStdResponseExt
                0x002499f4                adl_atSendUnsoResponse
                0x002499dc                adl_atSendStdResponseSpe
                0x0024914c                adlint_rspGetRspID
                0x00249520                adl_atSendResponseSpe
                0x002499b8                adl_atSendStdResponseExtStr
                0x002499c8                adl_atSendStdResponse
                0x00249634                adl_atRspHandler
                0x002490e0                adlint_atRspSubscribe
                0x00249960                adl_atSendStdResponseExtSpe
                0x002491b0                adl_atSendResponse
 .text          0x00249a78      0x1e4 /cygdrive/c/OpenAT/OS/6.21.02/ADL/gcc_wmadl_6.21.02.0.0.lib(adl_rtc.o)
                0x00249b38                adl_rtcGetTime
                0x00249af0                adl_rtcSetTime
                0x00249b7c                adl_rtcConvertTime
                0x00249ab0                adl_rtcGetSecondFracPartStep
                0x00249bd0                adl_rtcDiffTime
 .text          0x00249c5c      0x2bc /cygdrive/c/OpenAT/OS/6.21.02/ADL/gcc_wmadl_6.21.02.0.0.lib(adl_sem.o)
                0x00249eb4                adl_semIsConsumed
                0x00249cb4                adl_semSubscribe
                0x00249d60                adl_semUnsubscribe
                0x00249ee8                adl_semGetResourcesCount
                0x00249c5c                adlint_semInit
                0x00249dd0                adl_semConsume
                0x00249e18                adl_semConsumeDelay
                0x00249e6c                adl_semProduce
 .text          0x00249f18       0xb4 /cygdrive/c/OpenAT/OS/6.21.02/ADL/gcc_wmadl_6.21.02.0.0.lib(adl_serv.o)
                0x00249f34                adlint_servLock
                0x00249f5c                adlint_servUnlock
                0x00249f70                adlint_servIsLocked
                0x00249f88                adlint_servGetHandle
                0x00249f98                adlint_servReleaseHandle
                0x00249fb0                adlint_servCheckHandle
                0x00249f18                adlint_servInit
 .text          0x00249fcc      0x774 /cygdrive/c/OpenAT/OS/6.21.02/ADL/gcc_wmadl_6.21.02.0.0.lib(adl_sim.o)
                0x0024a580                adl_simEnterPIN
                0x0024a210                adlint_simCmdHandler
                0x0024a0d4                adlint_simUnSoHandler
                0x0024a564                adlint_simListCompare
                0x0024a508                adl_simUnsubscribe
                0x0024a600                adl_simEnterPUK
                0x0024a274                adlint_simCPINRspHandler
                0x0024a6bc                adlint_simAttempt
                0x0024a448                adl_simSubscribe
                0x0024a6a4                adl_simRemAttempt
                0x00249fcc                adlint_simInit
                0x0024a164                adlint_SendPin
                0x0024a0c8                adl_simGetState
                0x0024a030                adlint_simhandleallhandler
                0x0024a268                adlint_CheckNetLock
 .text          0x0024a740      0x7cc /cygdrive/c/OpenAT/OS/6.21.02/ADL/gcc_wmadl_6.21.02.0.0.lib(adl_sms.o)
                0x0024ae5c                adl_smsUnsubscribe
                0x0024abf8                adlint_smsSendCmdHandler
                0x0024aa64                adlint_smsListCompare
                0x0024a834                adlint_smsReadCmdHandler
                0x0024acac                adl_smsSend
                0x0024ab78                adlint_smsNotifyHandlers
                0x0024ab68                adl_smsSubscribe
                0x0024aa98                adlint_smsInit
                0x0024a778                adlint_smsIncomingProcess
                0x0024a7f4                adlint_smsUnsoHandler
                0x0024aac0                adl_smsSubscribeExt
 .text          0x0024af0c      0x358 /cygdrive/c/OpenAT/OS/6.21.02/ADL/gcc_wmadl_6.21.02.0.0.lib(adl_str.o)
                0x0024af0c                adlint_strGetNumConnectOffset
                0x0024b0b0                adl_strIsTerminalResponse
                0x0024b0a4                adl_strGetID
                0x0024b1c4                adl_strGetResponse
                0x0024af28                adl_strGetIDExt
                0x0024b0dc                adl_strGetResponseExt
                0x0024b1d8                adlint_strGetResponseExtCRLF
 .text          0x0024b264      0x3a4 /cygdrive/c/OpenAT/OS/6.21.02/ADL/gcc_wmadl_6.21.02.0.0.lib(adl_TimerHandler.o)
                0x0024b534                adl_tmrUnSubscribe
                0x0024b278                adlint_tmrSubscribe
                0x0024b3dc                adl_tmrSubscribeExt
                0x0024b494                adlint_tmrUnSubscribe
                0x0024b5a0                adl_tmrHandler
                0x0024b46c                adl_tmrSubscribe
 .text          0x0024b608      0x378 /cygdrive/c/OpenAT/OS/6.21.02/ADL/gcc_wmadl_6.21.02.0.0.lib(adl_traces.o)
                0x0024b608                adlint_dbgInit
                0x0024b624                adlint_dbgInitWrapper
                0x0024b850                adl_trcDump
                0x0024b654                adlint_dbgTrace
                0x0024b94c                mos_headerDynamicAppChannelsRegister
                0x0024b958                adlint_trcError
                0x0024b7d8                adl_trcPrint
 .text          0x0024b980      0x234 /cygdrive/c/OpenAT/OS/6.21.02/ADL/gcc_wmadl_6.21.02.0.0.lib(adl_UnSoHandler.o)
                0x0024b99c                adl_atUnSoSubscribe
                0x0024ba9c                adl_atUnSoHandler
                0x0024ba28                adl_atUnSoUnSubscribe
                0x0024b980                adlint_atUnSoInitHandler
 .text          0x0024bbb4       0xe0 /cygdrive/c/OpenAT/OS/6.21.02/ADL/gcc_wmadl_6.21.02.0.0.lib(adl_wd.o)
                0x0024bc28                adl_wdRearmAppWd
                0x0024bc08                adl_wdAwake
                0x0024bbdc                adl_wdPut2Sleep
                0x0024bc48                adl_wdActiveAppWd
                0x0024bc74                adl_wdDeActiveAppWd
 .text          0x0024bc94       0x74 /cygdrive/c/OpenAT/Plug-ins/WIP/5.10.2020/WIP/gcc_wmwip_5.10.2020.lib(br_close.o)
                0x0024bc94                wip_bearerClose
 .text          0x0024bd08       0x54 /cygdrive/c/OpenAT/Plug-ins/WIP/5.10.2020/WIP/gcc_wmwip_5.10.2020.lib(br_getopts.o)
                0x0024bd08                wip_bearerGetOpts
 .text          0x0024bd5c       0x80 /cygdrive/c/OpenAT/Plug-ins/WIP/5.10.2020/WIP/gcc_wmwip_5.10.2020.lib(br_mgr_init.o)
                0x0024bd74                wipint_bearerMgrExit
                0x0024bd5c                wipint_bearerMgrInit
                0x0024bda8                wipint_bearerMgrSync
 .text          0x0024bddc       0xd8 /cygdrive/c/OpenAT/Plug-ins/WIP/5.10.2020/WIP/gcc_wmwip_5.10.2020.lib(br_open.o)
                0x0024bddc                wip_bearerOpen
 .text          0x0024beb4       0x54 /cygdrive/c/OpenAT/Plug-ins/WIP/5.10.2020/WIP/gcc_wmwip_5.10.2020.lib(br_setopts.o)
                0x0024beb4                wip_bearerSetOpts
 .text          0x0024bf08       0x34 /cygdrive/c/OpenAT/Plug-ins/WIP/5.10.2020/WIP/gcc_wmwip_5.10.2020.lib(br_start.o)
                0x0024bf08                wip_bearerStart
 .text          0x0024bf3c      0x2f0 /cygdrive/c/OpenAT/Plug-ins/WIP/5.10.2020/WIP/gcc_wmwip_5.10.2020.lib(br_v24.o)
                0x0024c10c                wipint_bearerV24Open
 .text          0x0024c22c      0xddc /cygdrive/c/OpenAT/Plug-ins/WIP/5.10.2020/WIP/gcc_wmwip_5.10.2020.lib(ch_channel.o)
                0x0024c604                wip_setOpts
                0x0024c54c                wip_write
                0x0024c230                wipint_sockInit
                0x0024c778                wip_getState
                0x0024c3ec                wip_mainType
                0x0024c6bc                wip_shutdown
                0x0024c7bc                wipint_pushEvent
                0x0024c558                wip_readOpts
                0x0024c5f8                wip_read
                0x0024c294                wipint_sockExit
                0x0024c498                wip_closeAndClear
                0x0024c430                _wip_close
                0x0024cb28                wipint_sockError
                0x0024c660                wip_getOpts
                0x0024c720                wip_abort
                0x0024c38c                wip_hasType
                0x0024c4ac                wip_writeOpts
                0x0024cccc                wipint_sockGetOpt
                0x0024c22c                wipint_breakpoint
                0x0024c900                wip_ddisp_event
                0x0024cbb8                wipint_sockSetOpt
                0x0024ca58                wipint_sockSync
                0x0024c34c                wip_setCtx
 .text          0x0024d008      0xe18 /cygdrive/c/OpenAT/Plug-ins/WIP/5.10.2020/WIP/gcc_wmwip_5.10.2020.lib(ch_tcp_client.o)
                0x0024d2fc                wipint_ctsocketSetOpt
                0x0024d9e8                wip_TCPClientCreateOpts
                0x0024d518                wipint_ctsocketGetOpt
                0x0024db50                wip_TCPClientCreate
                0x0024d234                wipint_ctsocketSpawn
 .text          0x0024de20      0xe00 /cygdrive/c/OpenAT/Plug-ins/WIP/5.10.2020/WIP/gcc_wmwip_5.10.2020.lib(ch_udp.o)
                0x0024e5f8                wip_UDPCreate
                0x0024e4a0                wip_UDPCreateOpts
 .text          0x0024ec20      0x4ec /cygdrive/c/OpenAT/Plug-ins/WIP/5.10.2020/WIP/gcc_wmwip_5.10.2020.lib(file.o)
                0x0024ef94                wip_deleteFile
                0x0024ef34                wip_mkdir
                0x0024f054                wip_getFileSize
                0x0024eec4                wip_getFile
                0x0024f0b4                wip_renameFile
                0x0024ed24                wip_listOpts
                0x0024eda4                wip_list
                0x0024ec20                wip_fileInfoInit
                0x0024eff4                wip_deleteDir
                0x0024edb4                wip_putFileOpts
                0x0024eed4                wip_cwd
                0x0024ee34                wip_putFile
                0x0024ee44                wip_getFileOpts
 .text          0x0024f10c      0xa58 /cygdrive/c/OpenAT/Plug-ins/WIP/5.10.2020/WIP/gcc_wmwip_5.10.2020.lib(ftp.o)
                0x0024f3e0                wip_FTPcommand
                0x0024f180                wip_FTPtransferCommand
                0x0024f7b8                wip_FTPCreateOpts
                0x0024f10c                wipint_ftp_send_command
                0x0024f9a4                wip_FTPCreate
 .text          0x0024fb64      0x898 /cygdrive/c/OpenAT/Plug-ins/WIP/5.10.2020/WIP/gcc_wmwip_5.10.2020.lib(ftp_evh.o)
                0x00250360                wipint_ftp_evh_keepalive_timer
                0x002502e4                wipint_ftp_evh_active
                0x0024fd00                wipint_ftp_evh_control
 .text          0x002503fc      0x26c /cygdrive/c/OpenAT/Plug-ins/WIP/5.10.2020/WIP/gcc_wmwip_5.10.2020.lib(ftp_list.o)
                0x002503fc                wipint_listCreate
 .text          0x00250668       0x20 /cygdrive/c/OpenAT/Plug-ins/WIP/5.10.2020/WIP/gcc_wmwip_5.10.2020.lib(ftr.o)
                0x00250668                wip_checkFeatureLock
 .text          0x00250688       0x14 /cygdrive/c/OpenAT/Plug-ins/WIP/5.10.2020/WIP/gcc_wmwip_5.10.2020.lib(in_aton.o)
                0x00250688                wip_inet_aton
 .text          0x0025069c       0x18 /cygdrive/c/OpenAT/Plug-ins/WIP/5.10.2020/WIP/gcc_wmwip_5.10.2020.lib(in_ntoa.o)
                0x0025069c                wip_inet_ntoa
 .text          0x002506b4      0x168 /cygdrive/c/OpenAT/Plug-ins/WIP/5.10.2020/WIP/gcc_wmwip_5.10.2020.lib(list_plugin_unix.o)
                0x00250714                wip_FTPListUnixLineParser
 .text          0x0025081c      0x22c /cygdrive/c/OpenAT/Plug-ins/WIP/5.10.2020/WIP/gcc_wmwip_5.10.2020.lib(net_debug.o)
                0x00250930                wip_debug
                0x002508a8                wip_debugv
                0x0025081c                wip_debugSetPort
                0x0025094c                wip_debugv_free
                0x00250860                wip_debugGetPort
                0x00250890                wip_debugSetTraceLevel
                0x0025089c                wip_debugGetTraceLevel
 .text          0x00250a48       0x10 /cygdrive/c/OpenAT/Plug-ins/WIP/5.10.2020/WIP/gcc_wmwip_5.10.2020.lib(net_init.o)
                0x00250a48                wip_netInit
 .text          0x00250a58      0x1b0 /cygdrive/c/OpenAT/Plug-ins/WIP/5.10.2020/WIP/gcc_wmwip_5.10.2020.lib(net_initopts.o)
                0x00250b08                wip_netInitOpts
                0x00250ab0                wipint_pollDelete
                0x00250bb4                wip_netExit
                0x00250ae8                wipint_clockGetTime
                0x00250a88                wipint_pollAdd
 .text          0x00250c08      0x2d0 /cygdrive/c/OpenAT/Plug-ins/WIP/5.10.2020/WIP/gcc_wmwip_5.10.2020.lib(net_setopts.o)
                0x00250ebc                wip_netSetOpts
                0x00250c08                wip_netSetOptsv
 .text          0x00250ed8       0x1c /cygdrive/c/OpenAT/Plug-ins/WIP/5.10.2020/WIP/gcc_wmwip_5.10.2020.lib(net_sync.o)
                0x00250ed8                wip_netSync
 .text          0x00250ef4      0x318 /cygdrive/c/OpenAT/Plug-ins/WIP/5.10.2020/WIP/gcc_wmwip_5.10.2020.lib(queue.o)
                0x00250f58                wip_QSize
                0x00251158                wip_QPushBottom
                0x00251098                wip_QPushTop
                0x00251204                wip_QPush
                0x00250f4c                wip_QClose
                0x00250fb0                wip_QPeek
                0x00250ef4                wip_QInit
                0x00250f5c                wip_QPull
 .text          0x0025120c      0x764 /cygdrive/c/OpenAT/Plug-ins/WIP/5.10.2020/WIP/gcc_wmwip_5.10.2020.lib(readline.o)
                0x00251844                wip_rlRewriteData
                0x00251490                wip_rlConfigClose
                0x002512e4                wip_rlConfigInit
                0x002514bc                wip_rlFlush
                0x002514d4                wip_rlReadData
                0x00251610                wip_rlReadLine
                0x002518ec                wip_rlDispState
                0x00251400                wip_rlWriteData
 .text          0x00251970      0x108 /cygdrive/c/OpenAT/Plug-ins/WIP/5.10.2020/WIP/gcc_wmwip_5.10.2020.lib(wip_subLevelOpts.o)
                0x00251970                wipint_subLevelOptionsParseSet
                0x002519d8                wipint_subLevelOptionsParseGet
                0x00251a2c                wipint_subLevelOptionsRelease
                0x00251a58                wipint_subLevelOptionsApply
 .text          0x00251a78      0x2f0 /cygdrive/c/OpenAT/Plug-ins/WIP/5.10.2020/WIP/gcc_wmwip_5.10.2020.lib(wrapper.o)
                0x00251c44                wip_wrapperCreate
                0x00251ae4                wip_wrapperSwap
                0x00251b48                wip_wrapperCreateOpts
 .text          0x00251d68       0x60 /cygdrive/c/OpenAT/Plug-ins/WIP/5.10.2020/WIP/gcc_wmwip_5.10.2020.lib(wm_net_hton.o)
                0x00251d88                wm_netHTONL
                0x00251d68                wm_netHTONS
                0x00251d78                wm_netNTOHS
                0x00251da8                wm_netNTOHL
 .text          0x00251dc8      0x10c /cygdrive/c/OpenAT/Plug-ins/WIP/5.10.2020/WIP/gcc_wmwip_5.10.2020.lib(wm_net_in_aton.o)
                0x00251dc8                wm_inetNATON
                0x00251ebc                wm_inetATON
 .text          0x00251ed4       0x40 /cygdrive/c/OpenAT/Plug-ins/WIP/5.10.2020/WIP/gcc_wmwip_5.10.2020.lib(wm_net_in_ntoa.o)
                0x00251ed4                wm_inetNTOA
 .text          0x00251f14      0xf08 /cygdrive/c/OpenAT/Plug-ins/WIP/5.10.2020/WIP/gcc_wmwip_5.10.2020.lib(wm_net_wrapper.o)
                0x002525ac                wm_sockSetAsync
                0x00252588                wm_sockCreate
                0x00252ab0                wm_netIfMibIfGet
                0x002520f0                wm_netGetOption
                0x00252138                wm_netIfOpen
                0x002527a8                wm_sockShutdown
                0x00252c48                wm_netIpMibNet2MediaGet
                0x00252470                wm_netIfDrvBufEnqueue
                0x00252998                wm_rslvGetHostByNameAsync
                0x002527cc                wm_sockGetOption
                0x0025267c                wm_sockClose
                0x002522dc                wm_netIfSetOption
                0x0025270c                wm_sockConnect
                0x00252494                wm_netIfDrvBufMemCpy
                0x00252af4                wm_netIfMibIfSet
                0x00252450                wm_netIfDrvBufDequeue
                0x00252c90                wm_netIpMibNet2MediaSet
                0x0025236c                wm_netIfDrvSetOption
                0x002524c8                wm_netIfDrvBufSetLen
                0x00252b88                wm_netIpMibAddrGet
                0x00252538                wm_netIfDrvEthSetLink
                0x00252408                wm_netIfDrvBufAlloc
                0x002524f0                wm_netIfDrvSetEvent
                0x00252b2c                wm_netIpMibGet
                0x00252cfc                wm_netTcpMibGet
                0x00252340                wm_netIfDrvGetOption
                0x00252db0                wm_netUdpMibGet
                0x00252dd8                wm_netUdpMibUdpGet
                0x002523ec                wm_netIfDrvDetach
                0x00252510                wm_netIfDrvGetOptionCpy
                0x00252864                wm_sockRecvPkt
                0x00252800                wm_sockSetOption
                0x00251f14                wm_netTskGetID
                0x00252940                wm_rslvGetHostByName
                0x00252d24                wm_netTcpMibConnGet
                0x00252a88                wm_netIfMibGet
                0x00252c10                wm_netIpMibRouteSet
                0x002528f4                wm_sockSendPkt
                0x00252b54                wm_netIpMibSet
                0x00252114                wm_netSetOption
                0x00252cd4                wm_netIcmpMibGet
                0x00252734                wm_sockBind
                0x00252308                wm_netIfStart
                0x00252d6c                wm_netTcpMibConnSet
                0x00252560                wm_netIfDrvEthSetAddr
                0x0025242c                wm_netIfDrvBufFree
                0x00252398                wm_netIfDrvAttach
                0x00252030                wm_netInit
                0x00252bcc                wm_netIpMibRouteGet
                0x002528c4                wm_sockSend
                0x00252224                wm_netIfClose
                0x0025275c                wm_sockListen
                0x00252834                wm_sockRecv
                0x002522b0                wm_netIfGetOption
                0x00252780                wm_sockAccept
                0x00252324                wm_netIfStop
 .text          0x00252e1c      0x26c /cygdrive/c/OpenAT/Plug-ins/WIP/5.10.2020/WIP/gcc_wmwip_5.10.2020.lib(rawprint.o)
                0x00252e64                ngRawPrintf
 .text          0x00253088      0x5d0 /cygdrive/c/OpenAT/Plug-ins/WIP/5.10.2020/WIP/gcc_wmwip_5.10.2020.lib(br_eth.o)
                0x00253578                wipint_bearerEtherOpen
 .text          0x00253658       0x20 /cygdrive/c/OpenAT/Plug-ins/WIP/5.10.2020/WIP/gcc_wmwip_5.10.2020.lib(br_gen_close.o)
                0x00253658                wipint_bearerGenClose
 .text          0x00253678       0xf4 /cygdrive/c/OpenAT/Plug-ins/WIP/5.10.2020/WIP/gcc_wmwip_5.10.2020.lib(br_gen_getopt.o)
                0x00253678                wipint_bearerGenGetOpt
 .text          0x0025376c       0x80 /cygdrive/c/OpenAT/Plug-ins/WIP/5.10.2020/WIP/gcc_wmwip_5.10.2020.lib(br_gen_setopt.o)
                0x0025376c                wipint_bearerGenSetOpt
 .text          0x002537ec       0x30 /cygdrive/c/OpenAT/Plug-ins/WIP/5.10.2020/WIP/gcc_wmwip_5.10.2020.lib(br_gen_stop.o)
                0x002537ec                wipint_bearerGenStop
 .text          0x0025381c      0x794 /cygdrive/c/OpenAT/Plug-ins/WIP/5.10.2020/WIP/gcc_wmwip_5.10.2020.lib(br_gprs.o)
                0x00253edc                wipint_bearerGPRSOpen
 .text          0x00253fb0      0x7bc /cygdrive/c/OpenAT/Plug-ins/WIP/5.10.2020/WIP/gcc_wmwip_5.10.2020.lib(br_gsm.o)
                0x0025469c                wipint_bearerGSMOpen
 .text          0x0025476c       0x38 /cygdrive/c/OpenAT/Plug-ins/WIP/5.10.2020/WIP/gcc_wmwip_5.10.2020.lib(br_mgr_debug.o)
                0x0025476c                wipint_bearerDebug
 .text          0x002547a4       0xa0 /cygdrive/c/OpenAT/Plug-ins/WIP/5.10.2020/WIP/gcc_wmwip_5.10.2020.lib(br_ppp_getopt.o)
                0x002547a4                wipint_bearerPppGetOpt
 .text          0x00254844      0x34c /cygdrive/c/OpenAT/Plug-ins/WIP/5.10.2020/WIP/gcc_wmwip_5.10.2020.lib(br_ppp_init.o)
                0x00254adc                wipint_bearerPppInit
 .text          0x00254b90      0x1c8 /cygdrive/c/OpenAT/Plug-ins/WIP/5.10.2020/WIP/gcc_wmwip_5.10.2020.lib(br_ppp_setopt.o)
                0x00254b90                wipint_bearerPppSetOpt
 .text          0x00254d58      0x2e4 /cygdrive/c/OpenAT/Plug-ins/WIP/5.10.2020/WIP/gcc_wmwip_5.10.2020.lib(br_ppp_start.o)
                0x00254d58                wipint_bearerPppStart
 .text          0x0025503c       0x34 /cygdrive/c/OpenAT/Plug-ins/WIP/5.10.2020/WIP/gcc_wmwip_5.10.2020.lib(br_ppp_stop.o)
                0x0025503c                wipint_bearerPppStop
 .text          0x00255070      0x368 /cygdrive/c/OpenAT/Plug-ins/WIP/5.10.2020/WIP/gcc_wmwip_5.10.2020.lib(ch_class.o)
                0x002553cc                wip_instanceCreate
                0x00255070                wip_eventCreate
                0x002550e4                wip_classCreateOpts
                0x00255348                wip_instanceCreateOpts
 .text          0x002553d8      0x2ec /cygdrive/c/OpenAT/Plug-ins/WIP/5.10.2020/WIP/gcc_wmwip_5.10.2020.lib(ch_tcp_server.o)
                0x002556b4                wip_TCPServerCreate
                0x0025552c                wip_TCPServerCreateOpts
 .text          0x002556c4      0x114 /usr/local/OAT/lib/gcc/arm-elf/4.3.2/interwork/libgcc.a(_udivsi3.o)
                0x002556c4                __udivsi3
                0x002556c4                __aeabi_uidiv
                0x002557c0                __aeabi_uidivmod
 .text          0x002557d8      0x144 /usr/local/OAT/lib/gcc/arm-elf/4.3.2/interwork/libgcc.a(_divsi3.o)
                0x002557d8                __aeabi_idiv
                0x002557d8                __divsi3
                0x00255904                __aeabi_idivmod
 .text          0x0025591c       0xd0 /usr/local/OAT/lib/gcc/arm-elf/4.3.2/interwork/libgcc.a(_umodsi3.o)
                0x0025591c                __umodsi3
 .text          0x002559ec        0x4 /usr/local/OAT/lib/gcc/arm-elf/4.3.2/interwork/libgcc.a(_dvmd_tls.o)
                0x002559ec                __aeabi_ldiv0
                0x002559ec                __div0
                0x002559ec                __aeabi_idiv0
 .text          0x002559f0      0x430 /usr/local/OAT/lib/gcc/arm-elf/4.3.2/interwork/libgcc.a(_addsubdf3.o)
                0x00255db4                __floatdidf
                0x00255d34                __floatsidf
                0x00255d0c                __aeabi_ui2d
                0x002559f0                __aeabi_drsub
                0x00255d60                __extendsfdf2
                0x002559fc                __adddf3
                0x00255d0c                __floatunsidf
                0x002559fc                __aeabi_dadd
                0x00255da0                __aeabi_ul2d
                0x002559f8                __aeabi_dsub
                0x00255da0                __floatundidf
                0x00255d34                __aeabi_i2d
                0x00255db4                __aeabi_l2d
                0x00255d60                __aeabi_f2d
                0x002559f8                __subdf3
 .text          0x00255e20      0x49c /usr/local/OAT/lib/gcc/arm-elf/4.3.2/interwork/libgcc.a(_muldivdf3.o)
                0x002560b0                __aeabi_ddiv
                0x00255e20                __aeabi_dmul
                0x002560b0                __divdf3
                0x00255e20                __muldf3
 .text          0x002562bc      0x140 /usr/local/OAT/lib/gcc/arm-elf/4.3.2/interwork/libgcc.a(_cmpdf2.o)
                0x002563b4                __aeabi_dcmple
                0x002562cc                __cmpdf2
                0x002562cc                __eqdf2
                0x002562bc                __gtdf2
                0x0025636c                __aeabi_cdcmple
                0x00256350                __aeabi_cdrcmple
                0x002562c4                __ltdf2
                0x0025639c                __aeabi_dcmplt
                0x002562c4                __ledf2
                0x002563e4                __aeabi_dcmpgt
                0x002563cc                __aeabi_dcmpge
                0x002562cc                __nedf2
                0x00256384                __aeabi_dcmpeq
                0x0025636c                __aeabi_cdcmpeq
                0x002562bc                __gedf2
 .text          0x002563fc       0x5c /usr/local/OAT/lib/gcc/arm-elf/4.3.2/interwork/libgcc.a(_fixdfsi.o)
                0x002563fc                __fixdfsi
                0x002563fc                __aeabi_d2iz
 .text          0x00256458       0x54 /usr/local/OAT/lib/gcc/arm-elf/4.3.2/interwork/libgcc.a(_fixunsdfsi.o)
                0x00256458                __fixunsdfsi
                0x00256458                __aeabi_d2uiz
 .text          0x002564ac      0x2ac /usr/local/OAT/lib/gcc/arm-elf/4.3.2/interwork/libgcc.a(_addsubsf3.o)
                0x002564b8                __aeabi_fadd
                0x002564b4                __subsf3
                0x0025667c                __aeabi_i2f
                0x002564b4                __aeabi_fsub
                0x002566ac                __floatdisf
                0x0025667c                __floatsisf
                0x0025669c                __floatundisf
                0x00256674                __aeabi_ui2f
                0x002566ac                __aeabi_l2f
                0x0025669c                __aeabi_ul2f
                0x002564ac                __aeabi_frsub
                0x00256674                __floatunsisf
                0x002564b8                __addsf3
 .text          0x00256758      0x2f8 /usr/local/OAT/lib/gcc/arm-elf/4.3.2/interwork/libgcc.a(_muldivsf3.o)
                0x002568f0                __divsf3
                0x002568f0                __aeabi_fdiv
                0x00256758                __mulsf3
                0x00256758                __aeabi_fmul
 .text          0x00256a50      0x110 /usr/local/OAT/lib/gcc/arm-elf/4.3.2/interwork/libgcc.a(_cmpsf2.o)
                0x00256b48                __aeabi_fcmpgt
                0x00256a58                __lesf2
                0x00256a60                __nesf2
                0x00256b30                __aeabi_fcmpge
                0x00256a50                __gtsf2
                0x00256b18                __aeabi_fcmple
                0x00256a60                __eqsf2
                0x00256a60                __cmpsf2
                0x00256a58                __ltsf2
                0x00256ad0                __aeabi_cfcmple
                0x00256a50                __gesf2
                0x00256ae8                __aeabi_fcmpeq
                0x00256ac0                __aeabi_cfrcmple
                0x00256b00                __aeabi_fcmplt
                0x00256ad0                __aeabi_cfcmpeq
 .text          0x00256b60       0x54 /usr/local/OAT/lib/gcc/arm-elf/4.3.2/interwork/libgcc.a(_fixunssfsi.o)
                0x00256b60                __aeabi_f2uiz
                0x00256b60                __fixunssfsi
 .text          0x00256bb4       0xdc /usr/local/OAT/lib/gcc/arm-elf/4.3.2/../../../../arm-elf/lib/interwork/libc.a(lib_a-asprintf.o)
                0x00256c28                _asprintf_r
                0x00256bb4                asprintf
 .text          0x00256c90       0x30 /usr/local/OAT/lib/gcc/arm-elf/4.3.2/../../../../arm-elf/lib/interwork/libc.a(lib_a-atoi.o)
                0x00256c90                _atoi_r
                0x00256ca8                atoi
 .text          0x00256cc0        0x0 /usr/local/OAT/lib/gcc/arm-elf/4.3.2/../../../../arm-elf/lib/interwork/libc.a(lib_a-ctype_.o)
 .text          0x00256cc0       0x10 /usr/local/OAT/lib/gcc/arm-elf/4.3.2/../../../../arm-elf/lib/interwork/libc.a(lib_a-errno.o)
                0x00256cc0                __errno
 .text          0x00256cd0        0x0 /usr/local/OAT/lib/gcc/arm-elf/4.3.2/../../../../arm-elf/lib/interwork/libc.a(lib_a-impure.o)
 .text          0x00256cd0       0xa4 /usr/local/OAT/lib/gcc/arm-elf/4.3.2/../../../../arm-elf/lib/interwork/libc.a(lib_a-locale.o)
                0x00256cf8                _setlocale_r
                0x00256cd0                __locale_charset
                0x00256ce0                _localeconv_r
                0x00256d58                setlocale
                0x00256cec                localeconv
 .text          0x00256d74       0x40 /usr/local/OAT/lib/gcc/arm-elf/4.3.2/../../../../arm-elf/lib/interwork/libc.a(lib_a-malloc.o)
                0x00256d94                malloc
                0x00256d74                free
 .text          0x00256db4      0x728 /usr/local/OAT/lib/gcc/arm-elf/4.3.2/../../../../arm-elf/lib/interwork/libc.a(lib_a-mallocr.o)
                0x00256db4                _malloc_r
 .text          0x002574dc       0xac /usr/local/OAT/lib/gcc/arm-elf/4.3.2/../../../../arm-elf/lib/interwork/libc.a(lib_a-memcmp.o)
                0x002574dc                memcmp
 .text          0x00257588       0xfc /usr/local/OAT/lib/gcc/arm-elf/4.3.2/../../../../arm-elf/lib/interwork/libc.a(lib_a-memcpy.o)
                0x00257588                memcpy
 .text          0x00257684       0xd0 /usr/local/OAT/lib/gcc/arm-elf/4.3.2/../../../../arm-elf/lib/interwork/libc.a(lib_a-memset.o)
                0x00257684                memset
 .text          0x00257754        0x8 /usr/local/OAT/lib/gcc/arm-elf/4.3.2/../../../../arm-elf/lib/interwork/libc.a(lib_a-mlock.o)
                0x00257758                __malloc_unlock
                0x00257754                __malloc_lock
 .text          0x0025775c       0x54 /usr/local/OAT/lib/gcc/arm-elf/4.3.2/../../../../arm-elf/lib/interwork/libc.a(lib_a-printf.o)
                0x0025775c                printf
                0x0025778c                _printf_r
 .text          0x002577b0       0x28 /usr/local/OAT/lib/gcc/arm-elf/4.3.2/../../../../arm-elf/lib/interwork/libc.a(lib_a-realloc.o)
                0x002577b0                realloc
 .text          0x002577d8      0x514 /usr/local/OAT/lib/gcc/arm-elf/4.3.2/../../../../arm-elf/lib/interwork/libc.a(lib_a-reallocr.o)
                0x002577d8                _realloc_r
 .text          0x00257cec       0x40 /usr/local/OAT/lib/gcc/arm-elf/4.3.2/../../../../arm-elf/lib/interwork/libc.a(lib_a-sbrkr.o)
                0x00257cec                _sbrk_r
 .text          0x00257d2c       0xcc /usr/local/OAT/lib/gcc/arm-elf/4.3.2/../../../../arm-elf/lib/interwork/libc.a(lib_a-sprintf.o)
                0x00257d98                _sprintf_r
                0x00257d2c                sprintf
 .text          0x00257df8       0xf8 /usr/local/OAT/lib/gcc/arm-elf/4.3.2/../../../../arm-elf/lib/interwork/libc.a(lib_a-sscanf.o)
                0x00257e78                sscanf
                0x00257e00                _sscanf_r
 .text          0x00257ef0       0xa8 /usr/local/OAT/lib/gcc/arm-elf/4.3.2/../../../../arm-elf/lib/interwork/libc.a(lib_a-strcat.o)
                0x00257ef0                strcat
 .text          0x00257f98      0x134 /usr/local/OAT/lib/gcc/arm-elf/4.3.2/../../../../arm-elf/lib/interwork/libc.a(lib_a-strchr.o)
                0x00257f98                strchr
 .text          0x002580cc       0xe8 /usr/local/OAT/lib/gcc/arm-elf/4.3.2/../../../../arm-elf/lib/interwork/libc.a(lib_a-strcmp.o)
                0x002580cc                strcmp
 .text          0x002581b4       0xb8 /usr/local/OAT/lib/gcc/arm-elf/4.3.2/../../../../arm-elf/lib/interwork/libc.a(lib_a-strcpy.o)
                0x002581b4                strcpy
 .text          0x0025826c       0x20 /usr/local/OAT/lib/gcc/arm-elf/4.3.2/../../../../arm-elf/lib/interwork/libc.a(lib_a-strdup.o)
                0x0025826c                strdup
 .text          0x0025828c       0x40 /usr/local/OAT/lib/gcc/arm-elf/4.3.2/../../../../arm-elf/lib/interwork/libc.a(lib_a-strdup_r.o)
                0x0025828c                _strdup_r
 .text          0x002582cc       0x9c /usr/local/OAT/lib/gcc/arm-elf/4.3.2/../../../../arm-elf/lib/interwork/libc.a(lib_a-strlen.o)
                0x002582cc                strlen
 .text          0x00258368       0xe4 /usr/local/OAT/lib/gcc/arm-elf/4.3.2/../../../../arm-elf/lib/interwork/libc.a(lib_a-strncat.o)
                0x00258368                strncat
 .text          0x0025844c      0x144 /usr/local/OAT/lib/gcc/arm-elf/4.3.2/../../../../arm-elf/lib/interwork/libc.a(lib_a-strncmp.o)
                0x0025844c                strncmp
 .text          0x00258590      0x10c /usr/local/OAT/lib/gcc/arm-elf/4.3.2/../../../../arm-elf/lib/interwork/libc.a(lib_a-strncpy.o)
                0x00258590                strncpy
 .text          0x0025869c       0x1c /usr/local/OAT/lib/gcc/arm-elf/4.3.2/../../../../arm-elf/lib/interwork/libc.a(lib_a-strsep.o)
                0x0025869c                strsep
 .text          0x002586b8       0x5c /usr/local/OAT/lib/gcc/arm-elf/4.3.2/../../../../arm-elf/lib/interwork/libc.a(lib_a-strstr.o)
                0x002586b8                strstr
 .text          0x00258714       0x24 /usr/local/OAT/lib/gcc/arm-elf/4.3.2/../../../../arm-elf/lib/interwork/libc.a(lib_a-strtok.o)
                0x00258714                strtok
 .text          0x00258738       0xd0 /usr/local/OAT/lib/gcc/arm-elf/4.3.2/../../../../arm-elf/lib/interwork/libc.a(lib_a-strtok_r.o)
                0x00258800                strtok_r
                0x00258738                __strtok_r
 .text          0x00258808      0x1e4 /usr/local/OAT/lib/gcc/arm-elf/4.3.2/../../../../arm-elf/lib/interwork/libc.a(lib_a-strtol.o)
                0x002589c0                strtol
                0x00258808                _strtol_r
 .text          0x002589ec      0x7a0 /usr/local/OAT/lib/gcc/arm-elf/4.3.2/../../../../arm-elf/lib/interwork/libc.a(lib_a-syscalls.o)
                0x00258aa4                _getpid
                0x002589ec                initialise_monitor_handles
                0x00258e40                isatty
                0x00258e50                _fstat
                0x002590f0                _open
                0x00258de8                _sbrk
                0x00258ab4                _raise
                0x00258b00                _times
                0x0025910c                _stat
                0x0025916c                _lseek
                0x00258aac                _link
                0x00258f78                _swiwrite
                0x00258b40                _rename
                0x00258fb8                _swilseek
                0x00258f0c                _swiclose
                0x00258d04                _swiopen
                0x00258c8c                _unlink
                0x0025915c                _write
                0x00258e60                _kill
                0x00258ab8                _gettimeofday
                0x0025917c                _read
                0x00258e70                _exit
                0x00258bcc                _system
                0x002590b0                _swiread
                0x00258e7c                _close
 .text          0x0025918c       0x10 /usr/local/OAT/lib/gcc/arm-elf/4.3.2/../../../../arm-elf/lib/interwork/libc.a(lib_a-syswrite.o)
                0x0025918c                write
 .text          0x0025919c       0x84 /usr/local/OAT/lib/gcc/arm-elf/4.3.2/../../../../arm-elf/lib/interwork/libc.a(lib_a-vasprintf.o)
                0x0025919c                _vasprintf_r
                0x002591f4                vasprintf
 .text          0x00259220     0x1de0 /usr/local/OAT/lib/gcc/arm-elf/4.3.2/../../../../arm-elf/lib/interwork/libc.a(lib_a-vfprintf.o)
                0x00259254                _vfprintf_r
                0x0025afd4                vfprintf
 .text          0x0025b000     0x15dc /usr/local/OAT/lib/gcc/arm-elf/4.3.2/../../../../arm-elf/lib/interwork/libc.a(lib_a-vfscanf.o)
                0x0025c528                __svfscanf
                0x0025c554                _vfscanf_r
                0x0025c590                vfscanf
                0x0025b000                __svfscanf_r
 .text          0x0025c5dc       0x7c /usr/local/OAT/lib/gcc/arm-elf/4.3.2/../../../../arm-elf/lib/interwork/libc.a(lib_a-vsprintf.o)
                0x0025c62c                vsprintf
                0x0025c5dc                _vsprintf_r
 .text          0x0025c658      0x148 /usr/local/OAT/lib/gcc/arm-elf/4.3.2/../../../../arm-elf/lib/interwork/libc.a(lib_a-wsetup.o)
                0x0025c658                __swsetup_r
 .text          0x0025c7a0        0x8 /usr/local/OAT/lib/gcc/arm-elf/4.3.2/../../../../arm-elf/lib/interwork/libc.a(lib_a-OAT_close.o)
                0x0025c7a0                OAT_close
 .text          0x0025c7a8        0x8 /usr/local/OAT/lib/gcc/arm-elf/4.3.2/../../../../arm-elf/lib/interwork/libc.a(lib_a-OAT_fstat.o)
                0x0025c7a8                OAT_fstat
 .text          0x0025c7b0        0x8 /usr/local/OAT/lib/gcc/arm-elf/4.3.2/../../../../arm-elf/lib/interwork/libc.a(lib_a-OAT_isatty.o)
                0x0025c7b0                OAT_isatty
 .text          0x0025c7b8        0x8 /usr/local/OAT/lib/gcc/arm-elf/4.3.2/../../../../arm-elf/lib/interwork/libc.a(lib_a-OAT_kill.o)
                0x0025c7b8                OAT_kill
 .text          0x0025c7c0        0x8 /usr/local/OAT/lib/gcc/arm-elf/4.3.2/../../../../arm-elf/lib/interwork/libc.a(lib_a-OAT_lseek.o)
                0x0025c7c0                OAT_lseek
 .text          0x0025c7c8        0x8 /usr/local/OAT/lib/gcc/arm-elf/4.3.2/../../../../arm-elf/lib/interwork/libc.a(lib_a-OAT_open.o)
                0x0025c7c8                OAT_open
 .text          0x0025c7d0        0x8 /usr/local/OAT/lib/gcc/arm-elf/4.3.2/../../../../arm-elf/lib/interwork/libc.a(lib_a-OAT_read.o)
                0x0025c7d0                OAT_read
 .text          0x0025c7d8        0x8 /usr/local/OAT/lib/gcc/arm-elf/4.3.2/../../../../arm-elf/lib/interwork/libc.a(lib_a-OAT_write.o)
                0x0025c7d8                OAT_write
 .text          0x0025c7e0     0x16f0 /usr/local/OAT/lib/gcc/arm-elf/4.3.2/../../../../arm-elf/lib/interwork/libc.a(lib_a-dtoa.o)
                0x0025c9d4                _dtoa_r
 .text          0x0025ded0      0x1f4 /usr/local/OAT/lib/gcc/arm-elf/4.3.2/../../../../arm-elf/lib/interwork/libc.a(lib_a-fflush.o)
                0x0025e080                fflush
                0x0025ded0                _fflush_r
 .text          0x0025e0c4      0x2e4 /usr/local/OAT/lib/gcc/arm-elf/4.3.2/../../../../arm-elf/lib/interwork/libc.a(lib_a-findfp.o)
                0x0025e0c4                __sinit
                0x0025e284                __sfmoreglue
                0x0025e260                _cleanup
                0x0025e248                _cleanup_r
                0x0025e224                __fp_lock_all
                0x0025e1e0                __sfp_lock_acquire
                0x0025e2d0                __sfp
                0x0025e1ec                __sinit_lock_release
                0x0025e200                __fp_unlock_all
                0x0025e1e4                __sfp_lock_release
                0x0025e1e8                __sinit_lock_acquire
 .text          0x0025e3a8      0x21c /usr/local/OAT/lib/gcc/arm-elf/4.3.2/../../../../arm-elf/lib/interwork/libc.a(lib_a-fread.o)
                0x0025e580                fread
                0x0025e3a8                _fread_r
 .text          0x0025e5c4      0x378 /usr/local/OAT/lib/gcc/arm-elf/4.3.2/../../../../arm-elf/lib/interwork/libc.a(lib_a-freer.o)
                0x0025e6c0                _free_r
                0x0025e5c4                _malloc_trim_r
 .text          0x0025e93c      0x47c /usr/local/OAT/lib/gcc/arm-elf/4.3.2/../../../../arm-elf/lib/interwork/libc.a(lib_a-fvwrite.o)
                0x0025e93c                __sfvwrite_r
 .text          0x0025edb8      0x114 /usr/local/OAT/lib/gcc/arm-elf/4.3.2/../../../../arm-elf/lib/interwork/libc.a(lib_a-fwalk.o)
                0x0025ee44                _fwalk
                0x0025edb8                _fwalk_reent
 .text          0x0025eecc       0x20 /usr/local/OAT/lib/gcc/arm-elf/4.3.2/../../../../arm-elf/lib/interwork/libc.a(lib_a-iswspace.o)
                0x0025eecc                iswspace
 .text          0x0025eeec      0x168 /usr/local/OAT/lib/gcc/arm-elf/4.3.2/../../../../arm-elf/lib/interwork/libc.a(lib_a-makebuf.o)
                0x0025eeec                __smakebuf_r
 .text          0x0025f054       0xa0 /usr/local/OAT/lib/gcc/arm-elf/4.3.2/../../../../arm-elf/lib/interwork/libc.a(lib_a-mbrtowc.o)
                0x0025f0b0                mbrtowc
                0x0025f054                _mbrtowc_r
 .text          0x0025f0f4       0x54 /usr/local/OAT/lib/gcc/arm-elf/4.3.2/../../../../arm-elf/lib/interwork/libc.a(lib_a-mbtowc_r.o)
                0x0025f0f4                _mbtowc_r
 .text          0x0025f148      0x118 /usr/local/OAT/lib/gcc/arm-elf/4.3.2/../../../../arm-elf/lib/interwork/libc.a(lib_a-memchr.o)
                0x0025f148                memchr
 .text          0x0025f260      0x144 /usr/local/OAT/lib/gcc/arm-elf/4.3.2/../../../../arm-elf/lib/interwork/libc.a(lib_a-memmove.o)
                0x0025f260                memmove
 .text          0x0025f3a4      0xdb0 /usr/local/OAT/lib/gcc/arm-elf/4.3.2/../../../../arm-elf/lib/interwork/libc.a(lib_a-mprec.o)
                0x0025f6ac                _mprec_log10
                0x0025f78c                __any_on
                0x0025f828                _Balloc
                0x0025f62c                __ratio
                0x0025fe6c                __i2b
                0x0025f56c                __b2d
                0x0026006c                __s2b
                0x0025f4ac                __mcmp
                0x0025f3c0                __hi0bits
                0x0025ff70                __pow5mult
                0x0025fb54                __lshift
                0x0025fc7c                __multiply
                0x0025f8b0                __d2b
                0x0025f704                __copybits
                0x0025f50c                __ulp
                0x0025f9d0                __mdiff
                0x0025f418                __lo0bits
                0x0025fe90                __multadd
                0x0025f3a4                _Bfree
 .text          0x00260154      0x198 /usr/local/OAT/lib/gcc/arm-elf/4.3.2/../../../../arm-elf/lib/interwork/libc.a(lib_a-reent.o)
                0x002601c8                cleanup_glue
                0x002601f4                _reclaim_reent
                0x00260154                _wrapup_reent
 .text          0x002602ec      0x1c8 /usr/local/OAT/lib/gcc/arm-elf/4.3.2/../../../../arm-elf/lib/interwork/libc.a(lib_a-refill.o)
                0x002602ec                __srefill_r
 .text          0x002604b4       0x3c /usr/local/OAT/lib/gcc/arm-elf/4.3.2/../../../../arm-elf/lib/interwork/libc.a(lib_a-s_isinfd.o)
                0x002604b4                __isinfd
 .text          0x002604f0       0xc8 /usr/local/OAT/lib/gcc/arm-elf/4.3.2/../../../../arm-elf/lib/interwork/libc.a(lib_a-sccl.o)
                0x002604f0                __sccl
 .text          0x002605b8        0xc /usr/local/OAT/lib/gcc/arm-elf/4.3.2/../../../../arm-elf/lib/interwork/libc.a(lib_a-sf_nan.o)
                0x002605b8                nanf
 .text          0x002605c4       0xd8 /usr/local/OAT/lib/gcc/arm-elf/4.3.2/../../../../arm-elf/lib/interwork/libc.a(lib_a-stdio.o)
                0x002605d8                __sseek
                0x00260668                __sread
                0x002605c4                __sclose
                0x00260610                __swrite
 .text          0x0026069c     0x1638 /usr/local/OAT/lib/gcc/arm-elf/4.3.2/../../../../arm-elf/lib/interwork/libc.a(lib_a-strtod.o)
                0x0026069c                _strtod_r
                0x00261cb8                strtod
                0x00261c64                strtof
 .text          0x00261cd4      0x1e8 /usr/local/OAT/lib/gcc/arm-elf/4.3.2/../../../../arm-elf/lib/interwork/libc.a(lib_a-strtoul.o)
                0x00261e90                strtoul
                0x00261cd4                _strtoul_r
 .text          0x00261ebc      0x248 /usr/local/OAT/lib/gcc/arm-elf/4.3.2/../../../../arm-elf/lib/interwork/libc.a(lib_a-ungetc.o)
                0x002620e8                ungetc
                0x00261ebc                __submore
                0x00261f68                _ungetc_r
 .text          0x00262104       0x44 /usr/local/OAT/lib/gcc/arm-elf/4.3.2/../../../../arm-elf/lib/interwork/libc.a(lib_a-writer.o)
                0x00262104                _write_r
 .text          0x00262148       0x9c /usr/local/OAT/lib/gcc/arm-elf/4.3.2/../../../../arm-elf/lib/interwork/libc.a(lib_a-callocr.o)
                0x00262148                _calloc_r
 .text          0x002621e4       0x3c /usr/local/OAT/lib/gcc/arm-elf/4.3.2/../../../../arm-elf/lib/interwork/libc.a(lib_a-closer.o)
                0x002621e4                _close_r
 .text          0x00262220      0x118 /usr/local/OAT/lib/gcc/arm-elf/4.3.2/../../../../arm-elf/lib/interwork/libc.a(lib_a-fclose.o)
                0x00262220                _fclose_r
                0x00262324                fclose
 .text          0x00262338       0x40 /usr/local/OAT/lib/gcc/arm-elf/4.3.2/../../../../arm-elf/lib/interwork/libc.a(lib_a-fstatr.o)
                0x00262338                _fstat_r
 .text          0x00262378      0x8b0 /usr/local/OAT/lib/gcc/arm-elf/4.3.2/../../../../arm-elf/lib/interwork/libc.a(lib_a-gdtoa-gethex.o)
                0x00262378                __hexdig_init
                0x00262500                __gethex
 .text          0x00262c28      0x278 /usr/local/OAT/lib/gcc/arm-elf/4.3.2/../../../../arm-elf/lib/interwork/libc.a(lib_a-gdtoa-hexnan.o)
                0x00262c28                __hexnan
 .text          0x00262ea0       0x44 /usr/local/OAT/lib/gcc/arm-elf/4.3.2/../../../../arm-elf/lib/interwork/libc.a(lib_a-lseekr.o)
                0x00262ea0                _lseek_r
 .text          0x00262ee4       0x44 /usr/local/OAT/lib/gcc/arm-elf/4.3.2/../../../../arm-elf/lib/interwork/libc.a(lib_a-readr.o)
                0x00262ee4                _read_r
 .text          0x00262f28       0xa0 /usr/local/OAT/lib/gcc/arm-elf/4.3.2/interwork/libgcc.a(_truncdfsf2.o)
                0x00262f28                __aeabi_d2f
                0x00262f28                __truncdfsf2
 *(.rodata*)
 .rodata.str1.4
                0x00262fc8      0x265 src/gpioTest.o
                                0x268 (size before relaxing)
 *fill*         0x0026322d        0x3 00
 .rodata        0x00263230       0x1c src/gpioTest.o
 .rodata.str1.4
                0x0026324c       0xbf src/adc.o
                                 0xc0 (size before relaxing)
 *fill*         0x0026330b        0x1 00
 .rodata.str1.4
                0x0026330c      0x145 src/FlashTest.o
                                0x148 (size before relaxing)
 *fill*         0x00263451        0x3 00
 .rodata.str1.4
                0x00263454       0x1a src/wyhook_HAL.o
                                 0x20 (size before relaxing)
 *fill*         0x0026346e        0x2 00
 .rodata.str1.4
                0x00263470      0x2ba src/XactUtilities.o
                                0x2bc (size before relaxing)
 *fill*         0x0026372a        0x2 00
 .rodata        0x0026372c       0x20 src/XactUtilities.o
 .rodata.str1.4
                0x0026374c      0x1df src/SimOperations.o
                                0x1e0 (size before relaxing)
 *fill*         0x0026392b        0x1 00
 .rodata.str1.4
                0x0026392c      0x140 src/status.o
 .rodata.str1.4
                0x00263a6c      0x2bd src/WaypointControl.o
                                0x2c8 (size before relaxing)
 *fill*         0x00263d29        0x3 00
 .rodata        0x00263d2c       0x34 src/WaypointControl.o
 .rodata        0x00263d60       0x10 src/alarm_suppress.o
 .rodata.str1.4
                0x00263d70      0x564 src/GPSCtrl.o
                                0x574 (size before relaxing)
 .rodata.str1.4
                0x002642d4      0x568 src/anolclient.o
                                0x5a8 (size before relaxing)
 .rodata        0x0026483c        0xc src/anolclient.o
 .rodata.str1.4
                0x00264848      0x20a src/GpsInterface.o
                                0x23c (size before relaxing)
 *fill*         0x00264a52        0x2 00
 .rodata.str1.4
                0x00264a54      0x102 src/LED.o
                                0x104 (size before relaxing)
 *fill*         0x00264b56        0x2 00
 .rodata        0x00264b58      0x8a0 src/LED.o
 .rodata.str1.4
                0x002653f8      0x1ec src/TempoCasesTask.o
                                0x1f0 (size before relaxing)
 .rodata.str1.4
                0x002655e4      0x460 src/PowerCtrl.o
                                0x4ec (size before relaxing)
 .rodata        0x00265a44       0x30 src/PowerCtrl.o
 .rodata.str1.4
                0x00265a74      0x149 src/i2c_accelerometer.o
                                0x154 (size before relaxing)
 .rodata        0x00265bbd       0x21 src/i2c_accelerometer.o
 *fill*         0x00265bde        0x2 00
 .rodata.str1.4
                0x00265be0       0xad src/wyhook_Application.o
                                 0xb4 (size before relaxing)
 .rodata        0x00265c8d       0x15 src/wyhook_Application.o
 *fill*         0x00265ca2        0x2 00
 .rodata.str1.4
                0x00265ca4       0xc6 src/fence.o
                                 0xc8 (size before relaxing)
 *fill*         0x00265d6a        0x2 00
 .rodata.str1.4
                0x00265d6c      0x4e3 src/Accelerometer.o
                                0x514 (size before relaxing)
 *fill*         0x0026624f        0x1 00
 .rodata.str1.4
                0x00266250      0x278 src/ota_at.o
                                0x280 (size before relaxing)
 .rodata        0x002664c8       0x58 src/ota_at.o
 .rodata.str1.4
                0x00266520       0x55 src/XactTests.o
                                 0x58 (size before relaxing)
 *fill*         0x00266575        0x3 00
 .rodata.str1.4
                0x00266578       0xd4 src/wyhook_Message.o
 .rodata.str1.4
                0x0026664c     0x12be src/ConfigSettings.o
                               0x12d0 (size before relaxing)
 *fill*         0x0026790a        0x2 00
 .rodata.str1.4
                0x0026790c      0x573 src/InternalFlash.o
                                0x574 (size before relaxing)
 *fill*         0x00267e7f        0x1 00
 .rodata        0x00267e80       0xf8 src/InternalFlash.o
                0x00267f54                g_ModeconfigStructHandle
                0x00267f68                g_AGPSDataHandle
                0x00267ef8                g_APNLoginHandle
                0x00267f1c                g_RebootAlarmHandle
                0x00267f30                g_NVModeHandle
                0x00267ec8                g_accelCalibHandle
                0x00267edc                g_bandSettingHandle
                0x00267ef0                g_APNNameHandle
                0x00267f40                g_DiagCfgStructHandle
                0x00267f10                g_NVSHandle
                0x00267e80                g_configStructHandle
                0x00267ea4                g_fencesHandle
                0x00267f04                g_APNPasswordHandle
                0x00267eb4                g_configStringHandle
                0x00267e94                g_logPacketHandle
 .rodata.str1.4
                0x00267f78       0x15 src/haversine.o
                                 0x18 (size before relaxing)
 *fill*         0x00267f8d        0x3 00
 .rodata.str1.4
                0x00267f90       0x7f src/CallBackMethods.o
                                 0x88 (size before relaxing)
 *fill*         0x0026800f        0x1 00
 .rodata.str1.4
                0x00268010      0x3f0 src/Timers.o
 .rodata.str1.4
                0x00268400       0x67 src/VibrationMotor.o
                                 0x68 (size before relaxing)
 *fill*         0x00268467        0x1 00
 .rodata        0x00268468      0x5a0 src/VibrationMotor.o
 .rodata.str1.4
                0x00268a08      0x14e src/button.o
                                0x150 (size before relaxing)
 *fill*         0x00268b56        0x2 00
 .rodata        0x00268b58        0x4 src/button.o
                0x00268b58                g_inputButton
 .rodata.str1.4
                0x00268b5c      0x376 src/DOTAOperation.o
                                0x378 (size before relaxing)
 *fill*         0x00268ed2        0x2 00
 .rodata.str1.4
                0x00268ed4      0x375 src/adl_main.o
                                0x3e0 (size before relaxing)
 *fill*         0x00269249        0x3 00
 .rodata        0x0026924c       0x7c src/adl_main.o
                0x0026926c                adl_InitCompanyName
                0x00269280                adl_InitTasks
                0x00269250                adl_InitIRQHighLevelStackSize
                0x0026924c                adl_InitIRQLowLevelStackSize
                0x00269278                adl_InitApplicationVersion
                0x00269254                CONFIG_STR
                0x00269264                adl_InitApplicationName
 .rodata.str1.4
                0x002692c8       0x21 src/COMMR572.o
                                 0x24 (size before relaxing)
 *fill*         0x002692e9        0x3 00
 .rodata.str1.4
                0x002692ec      0xeaf src/USB.o
                               0x1088 (size before relaxing)
 *fill*         0x0026a19b        0x1 00
 .rodata.str1.4
                0x0026a19c      0x49b src/i2c.o
                                0x4a8 (size before relaxing)
 *fill*         0x0026a637        0x1 00
 .rodata.str1.4
                0x0026a638      0x323 src/ublox.o
                                0x348 (size before relaxing)
 *fill*         0x0026a95b        0x1 00
 .rodata.str1.4
                0x0026a95c      0xbb7 src/GPRS.o
                                0xc10 (size before relaxing)
 *fill*         0x0026b513        0x1 00
 .rodata.str1.4
                0x0026b514      0x9e9 src/SMShandling.o
                                0xa1c (size before relaxing)
 *fill*         0x0026befd        0x3 00
 .rodata.str1.4
                0x0026bf00       0x12 src/Traces.o
                                 0x18 (size before relaxing)
 *fill*         0x0026bf12        0x2 00
 .rodata        0x0026bf14       0x1c src/Traces.o
                0x0026bf14                FAIL_STRING
 .rodata.str1.4
                0x0026bf30       0xd0 src/airplane_mode.o
                                 0xf0 (size before relaxing)
 .rodata        0x0026c000        0xc src/airplane_mode.o
 .rodata.str1.4
                0x0026c00c      0x9a4 src/CommandHandlerXACT.o
                                0xa40 (size before relaxing)
 .rodata.str1.4
                0x0026c9b0      0x680 src/protocol.o
                                0x774 (size before relaxing)
 .rodata.str1.4
                0x0026d030      0x1db src/diagnose.o
                                0x220 (size before relaxing)
 *fill*         0x0026d20b        0x1 00
 .rodata.str1.4
                0x0026d20c      0x897 flash_src/atmel_flashDriver.o
                                0x97c (size before relaxing)
 *fill*         0x0026daa3        0x1 00
 .rodata        0x0026daa4       0x40 flash_src/atmel_flashDriver.o
                0x0026daa4                spi1Settings
 .rodata.str1.4
                0x0026dae4        0x5 /usr/local/OAT/lib/gcc/arm-elf/4.3.2/../../../../arm-elf/lib/interwork/libm.a(lib_a-w_sqrt.o)
                                  0x8 (size before relaxing)
 *fill*         0x0026dae9        0x3 00
 .rodata        0x0026daec      0x188 /usr/local/OAT/lib/gcc/arm-elf/4.3.2/../../../../arm-elf/lib/interwork/libm.a(lib_a-e_rem_pio2.o)
 .rodata        0x0026dc74       0x50 /usr/local/OAT/lib/gcc/arm-elf/4.3.2/../../../../arm-elf/lib/interwork/libm.a(lib_a-k_rem_pio2.o)
 .rodata        0x0026dcc4       0x40 /usr/local/OAT/lib/gcc/arm-elf/4.3.2/../../../../arm-elf/lib/interwork/libm.a(lib_a-s_atan.o)
 .rodata        0x0026dd04        0x1 /cygdrive/c/OpenAT/OS/6.21.02/ADL/gcc_wmadl_6.21.02.0.0.lib(mos_ftr.o)
                0x0026dd04                mos_ftrkey
 *fill*         0x0026dd05        0x3 00
 .rodata        0x0026dd08       0x18 /cygdrive/c/OpenAT/OS/6.21.02/ADL/gcc_wmadl_6.21.02.0.0.lib(adl_ad.o)
 .rodata.str1.4
                0x0026dd20      0x195 /cygdrive/c/OpenAT/OS/6.21.02/ADL/gcc_wmadl_6.21.02.0.0.lib(adl_ad.o)
                                0x198 (size before relaxing)
 *fill*         0x0026deb5        0x3 00
 .rodata.str1.4
                0x0026deb8       0x2e /cygdrive/c/OpenAT/OS/6.21.02/ADL/gcc_wmadl_6.21.02.0.0.lib(adl_adc.o)
                                 0x30 (size before relaxing)
 *fill*         0x0026dee6        0x2 00
 .rodata        0x0026dee8       0x5c /cygdrive/c/OpenAT/OS/6.21.02/ADL/gcc_wmadl_6.21.02.0.0.lib(adl_AppliInit.o)
                0x0026dee8                mos_headerInnerTasks
 .rodata.str1.4
                0x0026df44       0x52 /cygdrive/c/OpenAT/OS/6.21.02/ADL/gcc_wmadl_6.21.02.0.0.lib(adl_AppliInit.o)
                                 0x58 (size before relaxing)
 *fill*         0x0026df96        0x2 00
 .rodata.str1.4
                0x0026df98       0x1d /cygdrive/c/OpenAT/OS/6.21.02/ADL/gcc_wmadl_6.21.02.0.0.lib(adl_bus.o)
                                 0x20 (size before relaxing)
 *fill*         0x0026dfb5        0x3 00
 .rodata        0x0026dfb8       0x48 /cygdrive/c/OpenAT/OS/6.21.02/ADL/gcc_wmadl_6.21.02.0.0.lib(adl_bus.o)
 .rodata.str1.4
                0x0026e000       0x66 /cygdrive/c/OpenAT/OS/6.21.02/ADL/gcc_wmadl_6.21.02.0.0.lib(adl_call.o)
                                 0x7c (size before relaxing)
 .rodata.str1.4
                0x00000000       0x66 /cygdrive/c/OpenAT/OS/6.21.02/ADL/gcc_wmadl_6.21.02.0.0.lib(adl_CmdHandler.o)
                                  0x8 (size before relaxing)
 *fill*         0x0026e066        0x2 00
 .rodata.str1.4
                0x0026e068       0x93 /cygdrive/c/OpenAT/OS/6.21.02/ADL/gcc_wmadl_6.21.02.0.0.lib(adl_CmdProcessor.o)
                                 0xa4 (size before relaxing)
 *fill*         0x0026e0fb        0x1 00
 .rodata        0x0026e0fc       0x14 /cygdrive/c/OpenAT/OS/6.21.02/ADL/gcc_wmadl_6.21.02.0.0.lib(adl_CmdProcessor.o)
 .rodata        0x0026e110       0x10 /cygdrive/c/OpenAT/OS/6.21.02/ADL/gcc_wmadl_6.21.02.0.0.lib(adl_CmdStackHandler.o)
 .rodata.str1.4
                0x0026e120        0x3 /cygdrive/c/OpenAT/OS/6.21.02/ADL/gcc_wmadl_6.21.02.0.0.lib(adl_CmdStackHandler.o)
                                  0xc (size before relaxing)
 *fill*         0x0026e123        0x1 00
 .rodata        0x0026e124        0x4 /cygdrive/c/OpenAT/OS/6.21.02/ADL/gcc_wmadl_6.21.02.0.0.lib(adl_defaut_extend.o)
                0x0026e124                adlint_extendInitTable
 .rodata        0x0026e128        0x1 /cygdrive/c/OpenAT/OS/6.21.02/ADL/gcc_wmadl_6.21.02.0.0.lib(adl_defaut_timeslicing.o)
                0x0026e128                mos_headerTimeSlicing
 *fill*         0x0026e129        0x3 00
 .rodata.str1.4
                0x0026e12c      0x13c /cygdrive/c/OpenAT/OS/6.21.02/ADL/gcc_wmadl_6.21.02.0.0.lib(adl_error.o)
 .rodata        0x0026e268       0x28 /cygdrive/c/OpenAT/OS/6.21.02/ADL/gcc_wmadl_6.21.02.0.0.lib(adl_error.o)
 .rodata.str1.4
                0x0026e290      0x136 /cygdrive/c/OpenAT/OS/6.21.02/ADL/gcc_wmadl_6.21.02.0.0.lib(adl_extint_deprecated.o)
                                0x138 (size before relaxing)
 *fill*         0x0026e3c6        0x2 00
 .rodata        0x0026e3c8        0x8 /cygdrive/c/OpenAT/OS/6.21.02/ADL/gcc_wmadl_6.21.02.0.0.lib(adl_fcm.o)
 .rodata.str1.4
                0x0026e3d0       0xd5 /cygdrive/c/OpenAT/OS/6.21.02/ADL/gcc_wmadl_6.21.02.0.0.lib(adl_fcm.o)
                                 0xd8 (size before relaxing)
 *fill*         0x0026e4a5        0x3 00
 .rodata.str1.4
                0x0026e4a8       0xb2 /cygdrive/c/OpenAT/OS/6.21.02/ADL/gcc_wmadl_6.21.02.0.0.lib(adl_flash.o)
                                 0xb4 (size before relaxing)
 *fill*         0x0026e55a        0x2 00
 .rodata        0x0026e55c       0x10 /cygdrive/c/OpenAT/OS/6.21.02/ADL/gcc_wmadl_6.21.02.0.0.lib(adl_gpio.o)
 .rodata.str1.4
                0x0026e56c      0x13e /cygdrive/c/OpenAT/OS/6.21.02/ADL/gcc_wmadl_6.21.02.0.0.lib(adl_gprs.o)
                                0x148 (size before relaxing)
 *fill*         0x0026e6aa        0x2 00
 .rodata        0x0026e6ac       0x34 /cygdrive/c/OpenAT/OS/6.21.02/ADL/gcc_wmadl_6.21.02.0.0.lib(adl_gprs.o)
 .rodata        0x0026e6e0        0x8 /cygdrive/c/OpenAT/OS/6.21.02/ADL/gcc_wmadl_6.21.02.0.0.lib(adl_irq.o)
 .rodata        0x0026e6e8       0x20 /cygdrive/c/OpenAT/OS/6.21.02/ADL/gcc_wmadl_6.21.02.0.0.lib(adl_msg.o)
 .rodata        0x0026e708        0x8 /cygdrive/c/OpenAT/OS/6.21.02/ADL/gcc_wmadl_6.21.02.0.0.lib(adl_port.o)
 .rodata.str1.4
                0x0026e710      0x110 /cygdrive/c/OpenAT/OS/6.21.02/ADL/gcc_wmadl_6.21.02.0.0.lib(adl_port.o)
 .rodata.str1.4
                0x0026e820        0x2 /cygdrive/c/OpenAT/OS/6.21.02/ADL/gcc_wmadl_6.21.02.0.0.lib(adl_RspHandler.o)
                                  0x8 (size before relaxing)
 *fill*         0x0026e822        0x2 00
 .rodata.str1.4
                0x0026e824       0x48 /cygdrive/c/OpenAT/OS/6.21.02/ADL/gcc_wmadl_6.21.02.0.0.lib(adl_rtc.o)
 .rodata        0x0026e86c        0x8 /cygdrive/c/OpenAT/OS/6.21.02/ADL/gcc_wmadl_6.21.02.0.0.lib(adl_sem.o)
 .rodata        0x0026e874        0x8 /cygdrive/c/OpenAT/OS/6.21.02/ADL/gcc_wmadl_6.21.02.0.0.lib(adl_sim.o)
 .rodata.str1.4
                0x0026e87c       0x62 /cygdrive/c/OpenAT/OS/6.21.02/ADL/gcc_wmadl_6.21.02.0.0.lib(adl_sim.o)
                                 0x68 (size before relaxing)
 *fill*         0x0026e8de        0x2 00
 .rodata.str1.4
                0x0026e8e0       0xe0 /cygdrive/c/OpenAT/OS/6.21.02/ADL/gcc_wmadl_6.21.02.0.0.lib(adl_sms.o)
                                 0xe8 (size before relaxing)
 .rodata.str1.4
                0x0026e9c0       0xb1 /cygdrive/c/OpenAT/OS/6.21.02/ADL/gcc_wmadl_6.21.02.0.0.lib(adl_str.o)
                                 0xd8 (size before relaxing)
 *fill*         0x0026ea71        0x3 00
 .rodata        0x0026ea74       0xe0 /cygdrive/c/OpenAT/OS/6.21.02/ADL/gcc_wmadl_6.21.02.0.0.lib(adl_str.o)
 .rodata        0x0026eb54        0x8 /cygdrive/c/OpenAT/OS/6.21.02/ADL/gcc_wmadl_6.21.02.0.0.lib(adl_TimerHandler.o)
 .rodata.str1.4
                0x0026eb5c       0x67 /cygdrive/c/OpenAT/OS/6.21.02/ADL/gcc_wmadl_6.21.02.0.0.lib(adl_TimerHandler.o)
                                 0x68 (size before relaxing)
 *fill*         0x0026ebc3        0x1 00
 .rodata        0x0026ebc4        0xc /cygdrive/c/OpenAT/OS/6.21.02/ADL/gcc_wmadl_6.21.02.0.0.lib(adl_traces.o)
 .rodata.str1.4
                0x0026ebd0       0x42 /cygdrive/c/OpenAT/OS/6.21.02/ADL/gcc_wmadl_6.21.02.0.0.lib(adl_traces.o)
                                 0x48 (size before relaxing)
 *fill*         0x0026ec12        0x2 00
 .rodata.str1.4
                0x0026ec14       0x10 /cygdrive/c/OpenAT/Plug-ins/WIP/5.10.2020/WIP/gcc_wmwip_5.10.2020.lib(br_open.o)
                                 0x1c (size before relaxing)
 .rodata        0x0026ec24       0x28 /cygdrive/c/OpenAT/Plug-ins/WIP/5.10.2020/WIP/gcc_wmwip_5.10.2020.lib(br_open.o)
 .rodata.str1.4
                0x0026ec4c       0x9a /cygdrive/c/OpenAT/Plug-ins/WIP/5.10.2020/WIP/gcc_wmwip_5.10.2020.lib(br_v24.o)
                                 0xa8 (size before relaxing)
 *fill*         0x0026ece6        0x2 00
 .rodata.str1.4
                0x0026ece8      0x5c4 /cygdrive/c/OpenAT/Plug-ins/WIP/5.10.2020/WIP/gcc_wmwip_5.10.2020.lib(ch_channel.o)
                                0x5e0 (size before relaxing)
 .rodata        0x0026f2ac      0x2b8 /cygdrive/c/OpenAT/Plug-ins/WIP/5.10.2020/WIP/gcc_wmwip_5.10.2020.lib(ch_channel.o)
 .rodata        0x0026f564      0x240 /cygdrive/c/OpenAT/Plug-ins/WIP/5.10.2020/WIP/gcc_wmwip_5.10.2020.lib(ch_tcp_client.o)
 .rodata.str1.4
                0x0026f7a4      0x18b /cygdrive/c/OpenAT/Plug-ins/WIP/5.10.2020/WIP/gcc_wmwip_5.10.2020.lib(ch_tcp_client.o)
                                0x238 (size before relaxing)
 *fill*         0x0026f92f        0x1 00
 .rodata        0x0026f930      0x230 /cygdrive/c/OpenAT/Plug-ins/WIP/5.10.2020/WIP/gcc_wmwip_5.10.2020.lib(ch_udp.o)
 .rodata.str1.4
                0x0026fb60      0x19a /cygdrive/c/OpenAT/Plug-ins/WIP/5.10.2020/WIP/gcc_wmwip_5.10.2020.lib(ch_udp.o)
                                0x2b0 (size before relaxing)
 *fill*         0x0026fcfa        0x2 00
 .rodata.str1.4
                0x0026fcfc       0xb6 /cygdrive/c/OpenAT/Plug-ins/WIP/5.10.2020/WIP/gcc_wmwip_5.10.2020.lib(file.o)
                                0x150 (size before relaxing)
 *fill*         0x0026fdb2        0x2 00
 .rodata        0x0026fdb4       0xd4 /cygdrive/c/OpenAT/Plug-ins/WIP/5.10.2020/WIP/gcc_wmwip_5.10.2020.lib(ftp.o)
 .rodata.str1.4
                0x0026fe88      0x20d /cygdrive/c/OpenAT/Plug-ins/WIP/5.10.2020/WIP/gcc_wmwip_5.10.2020.lib(ftp.o)
                                0x2b4 (size before relaxing)
 *fill*         0x00270095        0x3 00
 .rodata.str1.4
                0x00270098      0x601 /cygdrive/c/OpenAT/Plug-ins/WIP/5.10.2020/WIP/gcc_wmwip_5.10.2020.lib(ftp_evh.o)
                                0x644 (size before relaxing)
 *fill*         0x00270699        0x3 00
 .rodata        0x0027069c       0x6c /cygdrive/c/OpenAT/Plug-ins/WIP/5.10.2020/WIP/gcc_wmwip_5.10.2020.lib(ftp_evh.o)
 .rodata.str1.4
                0x00270708       0x47 /cygdrive/c/OpenAT/Plug-ins/WIP/5.10.2020/WIP/gcc_wmwip_5.10.2020.lib(ftp_list.o)
                                 0x7c (size before relaxing)
 *fill*         0x0027074f        0x1 00
 .rodata        0x00270750       0x1c /cygdrive/c/OpenAT/Plug-ins/WIP/5.10.2020/WIP/gcc_wmwip_5.10.2020.lib(ftp_list.o)
 .rodata.str1.4
                0x0027076c      0x105 /cygdrive/c/OpenAT/Plug-ins/WIP/5.10.2020/WIP/gcc_wmwip_5.10.2020.lib(ftr.o)
                                0x108 (size before relaxing)
 *fill*         0x00270871        0x3 00
 .rodata        0x00270874        0x8 /cygdrive/c/OpenAT/Plug-ins/WIP/5.10.2020/WIP/gcc_wmwip_5.10.2020.lib(list_plugin_unix.o)
 .rodata.str1.4
                0x00000000        0x4 /cygdrive/c/OpenAT/Plug-ins/WIP/5.10.2020/WIP/gcc_wmwip_5.10.2020.lib(list_plugin_unix.o)
 .rodata.str1.4
                0x0027087c       0x8a /cygdrive/c/OpenAT/Plug-ins/WIP/5.10.2020/WIP/gcc_wmwip_5.10.2020.lib(net_setopts.o)
                                 0x8c (size before relaxing)
 *fill*         0x00270906        0x2 00
 .rodata        0x00270908      0x1f4 /cygdrive/c/OpenAT/Plug-ins/WIP/5.10.2020/WIP/gcc_wmwip_5.10.2020.lib(net_setopts.o)
 .rodata.str1.4
                0x00270afc       0xdc /cygdrive/c/OpenAT/Plug-ins/WIP/5.10.2020/WIP/gcc_wmwip_5.10.2020.lib(queue.o)
                                0x10c (size before relaxing)
 .rodata.str1.4
                0x00270bd8      0x370 /cygdrive/c/OpenAT/Plug-ins/WIP/5.10.2020/WIP/gcc_wmwip_5.10.2020.lib(readline.o)
                                0x388 (size before relaxing)
 .rodata        0x00270f48      0x108 /cygdrive/c/OpenAT/Plug-ins/WIP/5.10.2020/WIP/gcc_wmwip_5.10.2020.lib(wip_subLevelOpts.o)
 .rodata.str1.4
                0x00271050       0x19 /cygdrive/c/OpenAT/Plug-ins/WIP/5.10.2020/WIP/gcc_wmwip_5.10.2020.lib(wip_subLevelOpts.o)
                                 0x1c (size before relaxing)
 .rodata        0x00271069        0x3 /cygdrive/c/OpenAT/Plug-ins/WIP/5.10.2020/WIP/gcc_wmwip_5.10.2020.lib(wrapper.o)
 .rodata.str1.4
                0x0027106c       0x81 /cygdrive/c/OpenAT/Plug-ins/WIP/5.10.2020/WIP/gcc_wmwip_5.10.2020.lib(wrapper.o)
                                 0xa0 (size before relaxing)
 *fill*         0x002710ed        0x3 00
 .rodata.str1.4
                0x002710f0        0xc /cygdrive/c/OpenAT/Plug-ins/WIP/5.10.2020/WIP/gcc_wmwip_5.10.2020.lib(wm_net_in_ntoa.o)
 .rodata        0x002710fc      0x1f0 /cygdrive/c/OpenAT/Plug-ins/WIP/5.10.2020/WIP/gcc_wmwip_5.10.2020.lib(rawprint.o)
 .rodata.str1.4
                0x002712ec       0x8e /cygdrive/c/OpenAT/Plug-ins/WIP/5.10.2020/WIP/gcc_wmwip_5.10.2020.lib(br_eth.o)
                                 0xc0 (size before relaxing)
 *fill*         0x0027137a        0x2 00
 .rodata        0x0027137c      0x33c /cygdrive/c/OpenAT/Plug-ins/WIP/5.10.2020/WIP/gcc_wmwip_5.10.2020.lib(br_eth.o)
 .rodata.str1.4
                0x002716b8       0x11 /cygdrive/c/OpenAT/Plug-ins/WIP/5.10.2020/WIP/gcc_wmwip_5.10.2020.lib(br_gen_close.o)
                                 0x14 (size before relaxing)
 *fill*         0x002716c9        0x3 00
 .rodata        0x002716cc      0x188 /cygdrive/c/OpenAT/Plug-ins/WIP/5.10.2020/WIP/gcc_wmwip_5.10.2020.lib(br_gen_getopt.o)
 .rodata.str1.4
                0x00000000       0x18 /cygdrive/c/OpenAT/Plug-ins/WIP/5.10.2020/WIP/gcc_wmwip_5.10.2020.lib(br_gen_stop.o)
 .rodata.str1.4
                0x00271854      0x247 /cygdrive/c/OpenAT/Plug-ins/WIP/5.10.2020/WIP/gcc_wmwip_5.10.2020.lib(br_gprs.o)
                                0x2a4 (size before relaxing)
 *fill*         0x00271a9b        0x1 00
 .rodata        0x00271a9c      0x2c0 /cygdrive/c/OpenAT/Plug-ins/WIP/5.10.2020/WIP/gcc_wmwip_5.10.2020.lib(br_gprs.o)
 .rodata.str1.4
                0x00271d5c      0x3aa /cygdrive/c/OpenAT/Plug-ins/WIP/5.10.2020/WIP/gcc_wmwip_5.10.2020.lib(br_gsm.o)
                                0x42c (size before relaxing)
 *fill*         0x00272106        0x2 00
 .rodata        0x00272108       0x94 /cygdrive/c/OpenAT/Plug-ins/WIP/5.10.2020/WIP/gcc_wmwip_5.10.2020.lib(br_gsm.o)
 .rodata.str1.4
                0x0027219c        0x7 /cygdrive/c/OpenAT/Plug-ins/WIP/5.10.2020/WIP/gcc_wmwip_5.10.2020.lib(br_mgr_debug.o)
                                  0xc (size before relaxing)
 *fill*         0x002721a3        0x1 00
 .rodata        0x002721a4       0xb8 /cygdrive/c/OpenAT/Plug-ins/WIP/5.10.2020/WIP/gcc_wmwip_5.10.2020.lib(br_ppp_getopt.o)
 .rodata.str1.4
                0x0027225c      0x1c6 /cygdrive/c/OpenAT/Plug-ins/WIP/5.10.2020/WIP/gcc_wmwip_5.10.2020.lib(br_ppp_init.o)
                                0x1f0 (size before relaxing)
 *fill*         0x00272422        0x2 00
 .rodata        0x00272424       0x54 /cygdrive/c/OpenAT/Plug-ins/WIP/5.10.2020/WIP/gcc_wmwip_5.10.2020.lib(br_ppp_init.o)
 .rodata        0x00272478      0x140 /cygdrive/c/OpenAT/Plug-ins/WIP/5.10.2020/WIP/gcc_wmwip_5.10.2020.lib(br_ppp_setopt.o)
 .rodata.str1.4
                0x002725b8       0x58 /cygdrive/c/OpenAT/Plug-ins/WIP/5.10.2020/WIP/gcc_wmwip_5.10.2020.lib(br_ppp_start.o)
                                 0x5c (size before relaxing)
 .rodata.str1.4
                0x00272610       0x1f /cygdrive/c/OpenAT/Plug-ins/WIP/5.10.2020/WIP/gcc_wmwip_5.10.2020.lib(br_ppp_stop.o)
                                 0x20 (size before relaxing)
 *fill*         0x0027262f        0x1 00
 .rodata        0x00272630       0x58 /cygdrive/c/OpenAT/Plug-ins/WIP/5.10.2020/WIP/gcc_wmwip_5.10.2020.lib(ch_class.o)
 .rodata.str1.4
                0x00272688       0x6b /cygdrive/c/OpenAT/Plug-ins/WIP/5.10.2020/WIP/gcc_wmwip_5.10.2020.lib(ch_class.o)
                                 0x6c (size before relaxing)
 .rodata        0x002726f3        0x7 /cygdrive/c/OpenAT/Plug-ins/WIP/5.10.2020/WIP/gcc_wmwip_5.10.2020.lib(ch_tcp_server.o)
 *fill*         0x002726fa        0x2 00
 .rodata.str1.4
                0x002726fc       0x52 /cygdrive/c/OpenAT/Plug-ins/WIP/5.10.2020/WIP/gcc_wmwip_5.10.2020.lib(ch_tcp_server.o)
                                 0xa4 (size before relaxing)
 .rodata        0x0027274e      0x101 /usr/local/OAT/lib/gcc/arm-elf/4.3.2/../../../../arm-elf/lib/interwork/libc.a(lib_a-ctype_.o)
                0x0027274e                _ctype_
 *fill*         0x0027284f        0x1 00
 .rodata        0x00272850        0x4 /usr/local/OAT/lib/gcc/arm-elf/4.3.2/../../../../arm-elf/lib/interwork/libc.a(lib_a-impure.o)
                0x00272850                _global_impure_ptr
 .rodata.str1.4
                0x00000000       0x52 /usr/local/OAT/lib/gcc/arm-elf/4.3.2/../../../../arm-elf/lib/interwork/libc.a(lib_a-impure.o)
                                  0x4 (size before relaxing)
 .rodata.str1.4
                0x00272854        0xf /usr/local/OAT/lib/gcc/arm-elf/4.3.2/../../../../arm-elf/lib/interwork/libc.a(lib_a-locale.o)
                                 0x18 (size before relaxing)
 *fill*         0x00272863        0x1 00
 .rodata        0x00272864       0x34 /usr/local/OAT/lib/gcc/arm-elf/4.3.2/../../../../arm-elf/lib/interwork/libc.a(lib_a-locale.o)
 .rodata.str1.4
                0x00272898        0x4 /usr/local/OAT/lib/gcc/arm-elf/4.3.2/../../../../arm-elf/lib/interwork/libc.a(lib_a-syscalls.o)
 .rodata.str1.4
                0x0027289c       0x5a /usr/local/OAT/lib/gcc/arm-elf/4.3.2/../../../../arm-elf/lib/interwork/libc.a(lib_a-vfprintf.o)
                                 0x60 (size before relaxing)
 .rodata        0x002728f6       0x20 /usr/local/OAT/lib/gcc/arm-elf/4.3.2/../../../../arm-elf/lib/interwork/libc.a(lib_a-vfprintf.o)
 *fill*         0x00272916        0x2 00
 .rodata.str1.4
                0x00272918        0x5 /usr/local/OAT/lib/gcc/arm-elf/4.3.2/../../../../arm-elf/lib/interwork/libc.a(lib_a-vfscanf.o)
                                  0x8 (size before relaxing)
 *fill*         0x0027291d        0x1 00
 .rodata        0x0027291e       0x22 /usr/local/OAT/lib/gcc/arm-elf/4.3.2/../../../../arm-elf/lib/interwork/libc.a(lib_a-vfscanf.o)
 .rodata.str1.4
                0x00272940       0x10 /usr/local/OAT/lib/gcc/arm-elf/4.3.2/../../../../arm-elf/lib/interwork/libc.a(lib_a-dtoa.o)
                                 0x14 (size before relaxing)
 .rodata.str1.4
                0x00000000        0x4 /usr/local/OAT/lib/gcc/arm-elf/4.3.2/../../../../arm-elf/lib/interwork/libc.a(lib_a-mbrtowc.o)
 .rodata        0x00272950      0x124 /usr/local/OAT/lib/gcc/arm-elf/4.3.2/../../../../arm-elf/lib/interwork/libc.a(lib_a-mprec.o)
                0x00272a40                __mprec_tinytens
                0x00272950                __mprec_tens
                0x00272a18                __mprec_bigtens
 .rodata.str1.4
                0x00272a74        0xf /usr/local/OAT/lib/gcc/arm-elf/4.3.2/../../../../arm-elf/lib/interwork/libc.a(lib_a-strtod.o)
                                 0x10 (size before relaxing)
 *fill*         0x00272a83        0x1 00
 .rodata        0x00272a84       0x28 /usr/local/OAT/lib/gcc/arm-elf/4.3.2/../../../../arm-elf/lib/interwork/libc.a(lib_a-strtod.o)
 .rodata.str1.4
                0x00272aac       0x1c /usr/local/OAT/lib/gcc/arm-elf/4.3.2/../../../../arm-elf/lib/interwork/libc.a(lib_a-gdtoa-gethex.o)
 *(.glue_7t)
 .glue_7t       0x00272ac8        0x0 src/gpioTest.o
 .glue_7t       0x00272ac8        0x0 src/adc.o
 .glue_7t       0x00272ac8        0x0 src/FlashTest.o
 .glue_7t       0x00272ac8        0x0 src/wyhook_HAL.o
 .glue_7t       0x00272ac8        0x0 src/XactUtilities.o
 .glue_7t       0x00272ac8        0x0 src/SimOperations.o
 .glue_7t       0x00272ac8        0x0 src/status.o
 .glue_7t       0x00272ac8        0x0 src/WaypointControl.o
 .glue_7t       0x00272ac8        0x0 src/alarm_suppress.o
 .glue_7t       0x00272ac8        0x0 src/GPSCtrl.o
 .glue_7t       0x00272ac8        0x0 src/anolclient.o
 .glue_7t       0x00272ac8        0x0 src/GpsInterface.o
 .glue_7t       0x00272ac8        0x0 src/LED.o
 .glue_7t       0x00272ac8        0x0 src/TempoCasesTask.o
 .glue_7t       0x00272ac8        0x0 src/PowerCtrl.o
 .glue_7t       0x00272ac8        0x0 src/i2c_accelerometer.o
 .glue_7t       0x00272ac8        0x0 src/wyhook_Application.o
 .glue_7t       0x00272ac8        0x0 src/fence.o
 .glue_7t       0x00272ac8        0x0 src/Accelerometer.o
 .glue_7t       0x00272ac8        0x0 src/ota_at.o
 .glue_7t       0x00272ac8        0x0 src/XactTests.o
 .glue_7t       0x00272ac8        0x0 src/wyhook_Message.o
 .glue_7t       0x00272ac8        0x0 src/ConfigSettings.o
 .glue_7t       0x00272ac8        0x0 src/InternalFlash.o
 .glue_7t       0x00272ac8        0x0 src/haversine.o
 .glue_7t       0x00272ac8        0x0 src/CallBackMethods.o
 .glue_7t       0x00272ac8        0x0 src/Timers.o
 .glue_7t       0x00272ac8        0x0 src/VibrationMotor.o
 .glue_7t       0x00272ac8        0x0 src/button.o
 .glue_7t       0x00272ac8        0x0 src/DOTAOperation.o
 .glue_7t       0x00272ac8        0x0 src/gpioconfig.o
 .glue_7t       0x00272ac8        0x0 src/adl_main.o
 .glue_7t       0x00272ac8        0x0 src/dogwalk.o
 .glue_7t       0x00272ac8        0x0 src/COMMR572.o
 .glue_7t       0x00272ac8        0x0 src/USB.o
 .glue_7t       0x00272ac8        0x0 src/i2c.o
 .glue_7t       0x00272ac8        0x0 src/ublox.o
 .glue_7t       0x00272ac8        0x0 src/GPRS.o
 .glue_7t       0x00272ac8        0x0 src/SMShandling.o
 .glue_7t       0x00272ac8        0x0 src/Traces.o
 .glue_7t       0x00272ac8        0x0 src/airplane_mode.o
 .glue_7t       0x00272ac8        0x0 src/CommandHandlerXACT.o
 .glue_7t       0x00272ac8        0x0 src/protocol.o
 .glue_7t       0x00272ac8        0x0 src/diagnose.o
 .glue_7t       0x00272ac8        0x0 flash_src/atmel_flashDriver.o
 .glue_7t       0x00272ac8        0x0 /usr/local/OAT/lib/gcc/arm-elf/4.3.2/../../../../arm-elf/lib/interwork/libm.a(lib_a-s_cos.o)
 .glue_7t       0x00272ac8        0x0 /usr/local/OAT/lib/gcc/arm-elf/4.3.2/../../../../arm-elf/lib/interwork/libm.a(lib_a-s_sin.o)
 .glue_7t       0x00272ac8        0x0 /usr/local/OAT/lib/gcc/arm-elf/4.3.2/../../../../arm-elf/lib/interwork/libm.a(lib_a-w_atan2.o)
 .glue_7t       0x00272ac8        0x0 /usr/local/OAT/lib/gcc/arm-elf/4.3.2/../../../../arm-elf/lib/interwork/libm.a(lib_a-w_sqrt.o)
 .glue_7t       0x00272ac8        0x0 /usr/local/OAT/lib/gcc/arm-elf/4.3.2/../../../../arm-elf/lib/interwork/libm.a(lib_a-e_atan2.o)
 .glue_7t       0x00272ac8        0x0 /usr/local/OAT/lib/gcc/arm-elf/4.3.2/../../../../arm-elf/lib/interwork/libm.a(lib_a-e_rem_pio2.o)
 .glue_7t       0x00272ac8        0x0 /usr/local/OAT/lib/gcc/arm-elf/4.3.2/../../../../arm-elf/lib/interwork/libm.a(lib_a-e_sqrt.o)
 .glue_7t       0x00272ac8        0x0 /usr/local/OAT/lib/gcc/arm-elf/4.3.2/../../../../arm-elf/lib/interwork/libm.a(lib_a-k_cos.o)
 .glue_7t       0x00272ac8        0x0 /usr/local/OAT/lib/gcc/arm-elf/4.3.2/../../../../arm-elf/lib/interwork/libm.a(lib_a-k_rem_pio2.o)
 .glue_7t       0x00272ac8        0x0 /usr/local/OAT/lib/gcc/arm-elf/4.3.2/../../../../arm-elf/lib/interwork/libm.a(lib_a-k_sin.o)
 .glue_7t       0x00272ac8        0x0 /usr/local/OAT/lib/gcc/arm-elf/4.3.2/../../../../arm-elf/lib/interwork/libm.a(lib_a-s_atan.o)
 .glue_7t       0x00272ac8        0x0 /usr/local/OAT/lib/gcc/arm-elf/4.3.2/../../../../arm-elf/lib/interwork/libm.a(lib_a-s_fabs.o)
 .glue_7t       0x00272ac8        0x0 /usr/local/OAT/lib/gcc/arm-elf/4.3.2/../../../../arm-elf/lib/interwork/libm.a(lib_a-s_floor.o)
 .glue_7t       0x00272ac8        0x0 /usr/local/OAT/lib/gcc/arm-elf/4.3.2/../../../../arm-elf/lib/interwork/libm.a(lib_a-s_isnand.o)
 .glue_7t       0x00272ac8        0x0 /usr/local/OAT/lib/gcc/arm-elf/4.3.2/../../../../arm-elf/lib/interwork/libm.a(lib_a-s_lib_ver.o)
 .glue_7t       0x00272ac8        0x0 /usr/local/OAT/lib/gcc/arm-elf/4.3.2/../../../../arm-elf/lib/interwork/libm.a(lib_a-s_matherr.o)
 .glue_7t       0x00272ac8        0x0 /usr/local/OAT/lib/gcc/arm-elf/4.3.2/../../../../arm-elf/lib/interwork/libm.a(lib_a-s_scalbn.o)
 .glue_7t       0x00272ac8        0x0 /usr/local/OAT/lib/gcc/arm-elf/4.3.2/../../../../arm-elf/lib/interwork/libm.a(lib_a-s_copysign.o)
 .glue_7t       0x00272ac8        0x0 mos_header.o
 .glue_7t       0x00272ac8        0x0 /cygdrive/c/OpenAT/OS/6.21.02/ADL/gcc_wmadl_6.21.02.0.0.lib(mos_ftr.o)
 .glue_7t       0x00272ac8        0x0 /cygdrive/c/OpenAT/OS/6.21.02/ADL/gcc_wmadl_6.21.02.0.0.lib(opec_lst.o)
 .glue_7t       0x00272ac8        0x0 /cygdrive/c/OpenAT/OS/6.21.02/ADL/gcc_wmadl_6.21.02.0.0.lib(opec_std.o)
 .glue_7t       0x00272ac8        0x0 /cygdrive/c/OpenAT/OS/6.21.02/ADL/gcc_wmadl_6.21.02.0.0.lib(adl_ad.o)
 .glue_7t       0x00272ac8        0x0 /cygdrive/c/OpenAT/OS/6.21.02/ADL/gcc_wmadl_6.21.02.0.0.lib(adl_adc.o)
 .glue_7t       0x00272ac8        0x0 /cygdrive/c/OpenAT/OS/6.21.02/ADL/gcc_wmadl_6.21.02.0.0.lib(adl_AppliInit.o)
 .glue_7t       0x00272ac8        0x0 /cygdrive/c/OpenAT/OS/6.21.02/ADL/gcc_wmadl_6.21.02.0.0.lib(adl_audio.o)
 .glue_7t       0x00272ac8        0x0 /cygdrive/c/OpenAT/OS/6.21.02/ADL/gcc_wmadl_6.21.02.0.0.lib(adl_bus.o)
 .glue_7t       0x00272ac8        0x0 /cygdrive/c/OpenAT/OS/6.21.02/ADL/gcc_wmadl_6.21.02.0.0.lib(adl_call.o)
 .glue_7t       0x00272ac8        0x0 /cygdrive/c/OpenAT/OS/6.21.02/ADL/gcc_wmadl_6.21.02.0.0.lib(adl_CmdHandler.o)
 .glue_7t       0x00272ac8        0x0 /cygdrive/c/OpenAT/OS/6.21.02/ADL/gcc_wmadl_6.21.02.0.0.lib(adl_CmdProcessor.o)
 .glue_7t       0x00272ac8        0x0 /cygdrive/c/OpenAT/OS/6.21.02/ADL/gcc_wmadl_6.21.02.0.0.lib(adl_CmdStackHandler.o)
 .glue_7t       0x00272ac8        0x0 /cygdrive/c/OpenAT/OS/6.21.02/ADL/gcc_wmadl_6.21.02.0.0.lib(adl_ctx.o)
 .glue_7t       0x00272ac8        0x0 /cygdrive/c/OpenAT/OS/6.21.02/ADL/gcc_wmadl_6.21.02.0.0.lib(adl_defaut_buildtime.o)
 .glue_7t       0x00272ac8        0x0 /cygdrive/c/OpenAT/OS/6.21.02/ADL/gcc_wmadl_6.21.02.0.0.lib(adl_defaut_extend.o)
 .glue_7t       0x00272ac8        0x0 /cygdrive/c/OpenAT/OS/6.21.02/ADL/gcc_wmadl_6.21.02.0.0.lib(adl_defaut_selist.o)
 .glue_7t       0x00272ac8        0x0 /cygdrive/c/OpenAT/OS/6.21.02/ADL/gcc_wmadl_6.21.02.0.0.lib(adl_defaut_timeslicing.o)
 .glue_7t       0x00272ac8        0x0 /cygdrive/c/OpenAT/OS/6.21.02/ADL/gcc_wmadl_6.21.02.0.0.lib(adl_error.o)
 .glue_7t       0x00272ac8        0x0 /cygdrive/c/OpenAT/OS/6.21.02/ADL/gcc_wmadl_6.21.02.0.0.lib(adl_EventMachine.o)
 .glue_7t       0x00272ac8        0x0 /cygdrive/c/OpenAT/OS/6.21.02/ADL/gcc_wmadl_6.21.02.0.0.lib(adl_extint.o)
 .glue_7t       0x00272ac8        0x0 /cygdrive/c/OpenAT/OS/6.21.02/ADL/gcc_wmadl_6.21.02.0.0.lib(adl_extint_deprecated.o)
 .glue_7t       0x00272ac8        0x0 /cygdrive/c/OpenAT/OS/6.21.02/ADL/gcc_wmadl_6.21.02.0.0.lib(adl_fcm.o)
 .glue_7t       0x00272ac8        0x0 /cygdrive/c/OpenAT/OS/6.21.02/ADL/gcc_wmadl_6.21.02.0.0.lib(adl_flash.o)
 .glue_7t       0x00272ac8        0x0 /cygdrive/c/OpenAT/OS/6.21.02/ADL/gcc_wmadl_6.21.02.0.0.lib(adl_gpio.o)
 .glue_7t       0x00272ac8        0x0 /cygdrive/c/OpenAT/OS/6.21.02/ADL/gcc_wmadl_6.21.02.0.0.lib(adl_gprs.o)
 .glue_7t       0x00272ac8        0x0 /cygdrive/c/OpenAT/OS/6.21.02/ADL/gcc_wmadl_6.21.02.0.0.lib(adl_irq.o)
 .glue_7t       0x00272ac8        0x0 /cygdrive/c/OpenAT/OS/6.21.02/ADL/gcc_wmadl_6.21.02.0.0.lib(adl_memory.o)
 .glue_7t       0x00272ac8        0x0 /cygdrive/c/OpenAT/OS/6.21.02/ADL/gcc_wmadl_6.21.02.0.0.lib(adl_msg.o)
 .glue_7t       0x00272ac8        0x0 /cygdrive/c/OpenAT/OS/6.21.02/ADL/gcc_wmadl_6.21.02.0.0.lib(adl_port.o)
 .glue_7t       0x00272ac8        0x0 /cygdrive/c/OpenAT/OS/6.21.02/ADL/gcc_wmadl_6.21.02.0.0.lib(adl_reg.o)
 .glue_7t       0x00272ac8        0x0 /cygdrive/c/OpenAT/OS/6.21.02/ADL/gcc_wmadl_6.21.02.0.0.lib(adl_RspHandler.o)
 .glue_7t       0x00272ac8        0x0 /cygdrive/c/OpenAT/OS/6.21.02/ADL/gcc_wmadl_6.21.02.0.0.lib(adl_rtc.o)
 .glue_7t       0x00272ac8        0x0 /cygdrive/c/OpenAT/OS/6.21.02/ADL/gcc_wmadl_6.21.02.0.0.lib(adl_sem.o)
 .glue_7t       0x00272ac8        0x0 /cygdrive/c/OpenAT/OS/6.21.02/ADL/gcc_wmadl_6.21.02.0.0.lib(adl_serv.o)
 .glue_7t       0x00272ac8        0x0 /cygdrive/c/OpenAT/OS/6.21.02/ADL/gcc_wmadl_6.21.02.0.0.lib(adl_sim.o)
 .glue_7t       0x00272ac8        0x0 /cygdrive/c/OpenAT/OS/6.21.02/ADL/gcc_wmadl_6.21.02.0.0.lib(adl_sms.o)
 .glue_7t       0x00272ac8        0x0 /cygdrive/c/OpenAT/OS/6.21.02/ADL/gcc_wmadl_6.21.02.0.0.lib(adl_str.o)
 .glue_7t       0x00272ac8        0x0 /cygdrive/c/OpenAT/OS/6.21.02/ADL/gcc_wmadl_6.21.02.0.0.lib(adl_TimerHandler.o)
 .glue_7t       0x00272ac8        0x0 /cygdrive/c/OpenAT/OS/6.21.02/ADL/gcc_wmadl_6.21.02.0.0.lib(adl_traces.o)
 .glue_7t       0x00272ac8        0x0 /cygdrive/c/OpenAT/OS/6.21.02/ADL/gcc_wmadl_6.21.02.0.0.lib(adl_UnSoHandler.o)
 .glue_7t       0x00272ac8        0x0 /cygdrive/c/OpenAT/OS/6.21.02/ADL/gcc_wmadl_6.21.02.0.0.lib(adl_wd.o)
 .glue_7t       0x00272ac8        0x0 /cygdrive/c/OpenAT/Plug-ins/WIP/5.10.2020/WIP/gcc_wmwip_5.10.2020.lib(br_close.o)
 .glue_7t       0x00272ac8        0x0 /cygdrive/c/OpenAT/Plug-ins/WIP/5.10.2020/WIP/gcc_wmwip_5.10.2020.lib(br_getopts.o)
 .glue_7t       0x00272ac8        0x0 /cygdrive/c/OpenAT/Plug-ins/WIP/5.10.2020/WIP/gcc_wmwip_5.10.2020.lib(br_mgr_init.o)
 .glue_7t       0x00272ac8        0x0 /cygdrive/c/OpenAT/Plug-ins/WIP/5.10.2020/WIP/gcc_wmwip_5.10.2020.lib(br_open.o)
 .glue_7t       0x00272ac8        0x0 /cygdrive/c/OpenAT/Plug-ins/WIP/5.10.2020/WIP/gcc_wmwip_5.10.2020.lib(br_setopts.o)
 .glue_7t       0x00272ac8        0x0 /cygdrive/c/OpenAT/Plug-ins/WIP/5.10.2020/WIP/gcc_wmwip_5.10.2020.lib(br_start.o)
 .glue_7t       0x00272ac8        0x0 /cygdrive/c/OpenAT/Plug-ins/WIP/5.10.2020/WIP/gcc_wmwip_5.10.2020.lib(br_v24.o)
 .glue_7t       0x00272ac8        0x0 /cygdrive/c/OpenAT/Plug-ins/WIP/5.10.2020/WIP/gcc_wmwip_5.10.2020.lib(ch_channel.o)
 .glue_7t       0x00272ac8        0x0 /cygdrive/c/OpenAT/Plug-ins/WIP/5.10.2020/WIP/gcc_wmwip_5.10.2020.lib(ch_tcp_client.o)
 .glue_7t       0x00272ac8        0x0 /cygdrive/c/OpenAT/Plug-ins/WIP/5.10.2020/WIP/gcc_wmwip_5.10.2020.lib(ch_udp.o)
 .glue_7t       0x00272ac8        0x0 /cygdrive/c/OpenAT/Plug-ins/WIP/5.10.2020/WIP/gcc_wmwip_5.10.2020.lib(file.o)
 .glue_7t       0x00272ac8        0x0 /cygdrive/c/OpenAT/Plug-ins/WIP/5.10.2020/WIP/gcc_wmwip_5.10.2020.lib(ftp.o)
 .glue_7t       0x00272ac8        0x0 /cygdrive/c/OpenAT/Plug-ins/WIP/5.10.2020/WIP/gcc_wmwip_5.10.2020.lib(ftp_evh.o)
 .glue_7t       0x00272ac8        0x0 /cygdrive/c/OpenAT/Plug-ins/WIP/5.10.2020/WIP/gcc_wmwip_5.10.2020.lib(ftp_list.o)
 .glue_7t       0x00272ac8        0x0 /cygdrive/c/OpenAT/Plug-ins/WIP/5.10.2020/WIP/gcc_wmwip_5.10.2020.lib(ftr.o)
 .glue_7t       0x00272ac8        0x0 /cygdrive/c/OpenAT/Plug-ins/WIP/5.10.2020/WIP/gcc_wmwip_5.10.2020.lib(in_aton.o)
 .glue_7t       0x00272ac8        0x0 /cygdrive/c/OpenAT/Plug-ins/WIP/5.10.2020/WIP/gcc_wmwip_5.10.2020.lib(in_ntoa.o)
 .glue_7t       0x00272ac8        0x0 /cygdrive/c/OpenAT/Plug-ins/WIP/5.10.2020/WIP/gcc_wmwip_5.10.2020.lib(list_plugin_unix.o)
 .glue_7t       0x00272ac8        0x0 /cygdrive/c/OpenAT/Plug-ins/WIP/5.10.2020/WIP/gcc_wmwip_5.10.2020.lib(net_debug.o)
 .glue_7t       0x00272ac8        0x0 /cygdrive/c/OpenAT/Plug-ins/WIP/5.10.2020/WIP/gcc_wmwip_5.10.2020.lib(net_init.o)
 .glue_7t       0x00272ac8        0x0 /cygdrive/c/OpenAT/Plug-ins/WIP/5.10.2020/WIP/gcc_wmwip_5.10.2020.lib(net_initopts.o)
 .glue_7t       0x00272ac8        0x0 /cygdrive/c/OpenAT/Plug-ins/WIP/5.10.2020/WIP/gcc_wmwip_5.10.2020.lib(net_setopts.o)
 .glue_7t       0x00272ac8        0x0 /cygdrive/c/OpenAT/Plug-ins/WIP/5.10.2020/WIP/gcc_wmwip_5.10.2020.lib(net_sync.o)
 .glue_7t       0x00272ac8        0x0 /cygdrive/c/OpenAT/Plug-ins/WIP/5.10.2020/WIP/gcc_wmwip_5.10.2020.lib(queue.o)
 .glue_7t       0x00272ac8        0x0 /cygdrive/c/OpenAT/Plug-ins/WIP/5.10.2020/WIP/gcc_wmwip_5.10.2020.lib(readline.o)
 .glue_7t       0x00272ac8        0x0 /cygdrive/c/OpenAT/Plug-ins/WIP/5.10.2020/WIP/gcc_wmwip_5.10.2020.lib(wip_subLevelOpts.o)
 .glue_7t       0x00272ac8        0x0 /cygdrive/c/OpenAT/Plug-ins/WIP/5.10.2020/WIP/gcc_wmwip_5.10.2020.lib(wrapper.o)
 .glue_7t       0x00272ac8        0x0 /cygdrive/c/OpenAT/Plug-ins/WIP/5.10.2020/WIP/gcc_wmwip_5.10.2020.lib(wm_net_hton.o)
 .glue_7t       0x00272ac8        0x0 /cygdrive/c/OpenAT/Plug-ins/WIP/5.10.2020/WIP/gcc_wmwip_5.10.2020.lib(wm_net_in_aton.o)
 .glue_7t       0x00272ac8        0x0 /cygdrive/c/OpenAT/Plug-ins/WIP/5.10.2020/WIP/gcc_wmwip_5.10.2020.lib(wm_net_in_ntoa.o)
 .glue_7t       0x00272ac8        0x0 /cygdrive/c/OpenAT/Plug-ins/WIP/5.10.2020/WIP/gcc_wmwip_5.10.2020.lib(wm_net_wrapper.o)
 .glue_7t       0x00272ac8        0x0 /cygdrive/c/OpenAT/Plug-ins/WIP/5.10.2020/WIP/gcc_wmwip_5.10.2020.lib(rawprint.o)
 .glue_7t       0x00272ac8        0x0 /cygdrive/c/OpenAT/Plug-ins/WIP/5.10.2020/WIP/gcc_wmwip_5.10.2020.lib(br_eth.o)
 .glue_7t       0x00272ac8        0x0 /cygdrive/c/OpenAT/Plug-ins/WIP/5.10.2020/WIP/gcc_wmwip_5.10.2020.lib(br_gen_close.o)
 .glue_7t       0x00272ac8        0x0 /cygdrive/c/OpenAT/Plug-ins/WIP/5.10.2020/WIP/gcc_wmwip_5.10.2020.lib(br_gen_getopt.o)
 .glue_7t       0x00272ac8        0x0 /cygdrive/c/OpenAT/Plug-ins/WIP/5.10.2020/WIP/gcc_wmwip_5.10.2020.lib(br_gen_setopt.o)
 .glue_7t       0x00272ac8        0x0 /cygdrive/c/OpenAT/Plug-ins/WIP/5.10.2020/WIP/gcc_wmwip_5.10.2020.lib(br_gen_stop.o)
 .glue_7t       0x00272ac8        0x0 /cygdrive/c/OpenAT/Plug-ins/WIP/5.10.2020/WIP/gcc_wmwip_5.10.2020.lib(br_gprs.o)
 .glue_7t       0x00272ac8        0x0 /cygdrive/c/OpenAT/Plug-ins/WIP/5.10.2020/WIP/gcc_wmwip_5.10.2020.lib(br_gsm.o)
 .glue_7t       0x00272ac8        0x0 /cygdrive/c/OpenAT/Plug-ins/WIP/5.10.2020/WIP/gcc_wmwip_5.10.2020.lib(br_mgr_debug.o)
 .glue_7t       0x00272ac8        0x0 /cygdrive/c/OpenAT/Plug-ins/WIP/5.10.2020/WIP/gcc_wmwip_5.10.2020.lib(br_ppp_getopt.o)
 .glue_7t       0x00272ac8        0x0 /cygdrive/c/OpenAT/Plug-ins/WIP/5.10.2020/WIP/gcc_wmwip_5.10.2020.lib(br_ppp_init.o)
 .glue_7t       0x00272ac8        0x0 /cygdrive/c/OpenAT/Plug-ins/WIP/5.10.2020/WIP/gcc_wmwip_5.10.2020.lib(br_ppp_setopt.o)
 .glue_7t       0x00272ac8        0x0 /cygdrive/c/OpenAT/Plug-ins/WIP/5.10.2020/WIP/gcc_wmwip_5.10.2020.lib(br_ppp_start.o)
 .glue_7t       0x00272ac8        0x0 /cygdrive/c/OpenAT/Plug-ins/WIP/5.10.2020/WIP/gcc_wmwip_5.10.2020.lib(br_ppp_stop.o)
 .glue_7t       0x00272ac8        0x0 /cygdrive/c/OpenAT/Plug-ins/WIP/5.10.2020/WIP/gcc_wmwip_5.10.2020.lib(ch_class.o)
 .glue_7t       0x00272ac8        0x0 /cygdrive/c/OpenAT/Plug-ins/WIP/5.10.2020/WIP/gcc_wmwip_5.10.2020.lib(ch_tcp_server.o)
 .glue_7t       0x00272ac8        0x0 /usr/local/OAT/lib/gcc/arm-elf/4.3.2/interwork/libgcc.a(_udivsi3.o)
 .glue_7t       0x00272ac8        0x0 /usr/local/OAT/lib/gcc/arm-elf/4.3.2/interwork/libgcc.a(_divsi3.o)
 .glue_7t       0x00272ac8        0x0 /usr/local/OAT/lib/gcc/arm-elf/4.3.2/interwork/libgcc.a(_umodsi3.o)
 .glue_7t       0x00272ac8        0x0 /usr/local/OAT/lib/gcc/arm-elf/4.3.2/interwork/libgcc.a(_dvmd_tls.o)
 .glue_7t       0x00272ac8        0x0 /usr/local/OAT/lib/gcc/arm-elf/4.3.2/interwork/libgcc.a(_addsubdf3.o)
 .glue_7t       0x00272ac8        0x0 /usr/local/OAT/lib/gcc/arm-elf/4.3.2/interwork/libgcc.a(_muldivdf3.o)
 .glue_7t       0x00272ac8        0x0 /usr/local/OAT/lib/gcc/arm-elf/4.3.2/interwork/libgcc.a(_cmpdf2.o)
 .glue_7t       0x00272ac8        0x0 /usr/local/OAT/lib/gcc/arm-elf/4.3.2/interwork/libgcc.a(_fixdfsi.o)
 .glue_7t       0x00272ac8        0x0 /usr/local/OAT/lib/gcc/arm-elf/4.3.2/interwork/libgcc.a(_fixunsdfsi.o)
 .glue_7t       0x00272ac8        0x0 /usr/local/OAT/lib/gcc/arm-elf/4.3.2/interwork/libgcc.a(_addsubsf3.o)
 .glue_7t       0x00272ac8        0x0 /usr/local/OAT/lib/gcc/arm-elf/4.3.2/interwork/libgcc.a(_muldivsf3.o)
 .glue_7t       0x00272ac8        0x0 /usr/local/OAT/lib/gcc/arm-elf/4.3.2/interwork/libgcc.a(_cmpsf2.o)
 .glue_7t       0x00272ac8        0x0 /usr/local/OAT/lib/gcc/arm-elf/4.3.2/interwork/libgcc.a(_fixunssfsi.o)
 .glue_7t       0x00272ac8        0x0 /usr/local/OAT/lib/gcc/arm-elf/4.3.2/../../../../arm-elf/lib/interwork/libc.a(lib_a-asprintf.o)
 .glue_7t       0x00272ac8        0x0 /usr/local/OAT/lib/gcc/arm-elf/4.3.2/../../../../arm-elf/lib/interwork/libc.a(lib_a-atoi.o)
 .glue_7t       0x00272ac8        0x0 /usr/local/OAT/lib/gcc/arm-elf/4.3.2/../../../../arm-elf/lib/interwork/libc.a(lib_a-ctype_.o)
 .glue_7t       0x00272ac8        0x0 /usr/local/OAT/lib/gcc/arm-elf/4.3.2/../../../../arm-elf/lib/interwork/libc.a(lib_a-errno.o)
 .glue_7t       0x00272ac8        0x0 /usr/local/OAT/lib/gcc/arm-elf/4.3.2/../../../../arm-elf/lib/interwork/libc.a(lib_a-impure.o)
 .glue_7t       0x00272ac8        0x0 /usr/local/OAT/lib/gcc/arm-elf/4.3.2/../../../../arm-elf/lib/interwork/libc.a(lib_a-locale.o)
 .glue_7t       0x00272ac8        0x0 /usr/local/OAT/lib/gcc/arm-elf/4.3.2/../../../../arm-elf/lib/interwork/libc.a(lib_a-malloc.o)
 .glue_7t       0x00272ac8        0x0 /usr/local/OAT/lib/gcc/arm-elf/4.3.2/../../../../arm-elf/lib/interwork/libc.a(lib_a-mallocr.o)
 .glue_7t       0x00272ac8        0x0 /usr/local/OAT/lib/gcc/arm-elf/4.3.2/../../../../arm-elf/lib/interwork/libc.a(lib_a-memcmp.o)
 .glue_7t       0x00272ac8        0x0 /usr/local/OAT/lib/gcc/arm-elf/4.3.2/../../../../arm-elf/lib/interwork/libc.a(lib_a-memcpy.o)
 .glue_7t       0x00272ac8        0x0 /usr/local/OAT/lib/gcc/arm-elf/4.3.2/../../../../arm-elf/lib/interwork/libc.a(lib_a-memset.o)
 .glue_7t       0x00272ac8        0x0 /usr/local/OAT/lib/gcc/arm-elf/4.3.2/../../../../arm-elf/lib/interwork/libc.a(lib_a-mlock.o)
 .glue_7t       0x00272ac8        0x0 /usr/local/OAT/lib/gcc/arm-elf/4.3.2/../../../../arm-elf/lib/interwork/libc.a(lib_a-printf.o)
 .glue_7t       0x00272ac8        0x0 /usr/local/OAT/lib/gcc/arm-elf/4.3.2/../../../../arm-elf/lib/interwork/libc.a(lib_a-realloc.o)
 .glue_7t       0x00272ac8        0x0 /usr/local/OAT/lib/gcc/arm-elf/4.3.2/../../../../arm-elf/lib/interwork/libc.a(lib_a-reallocr.o)
 .glue_7t       0x00272ac8        0x0 /usr/local/OAT/lib/gcc/arm-elf/4.3.2/../../../../arm-elf/lib/interwork/libc.a(lib_a-sbrkr.o)
 .glue_7t       0x00272ac8        0x0 /usr/local/OAT/lib/gcc/arm-elf/4.3.2/../../../../arm-elf/lib/interwork/libc.a(lib_a-sprintf.o)
 .glue_7t       0x00272ac8        0x0 /usr/local/OAT/lib/gcc/arm-elf/4.3.2/../../../../arm-elf/lib/interwork/libc.a(lib_a-sscanf.o)
 .glue_7t       0x00272ac8        0x0 /usr/local/OAT/lib/gcc/arm-elf/4.3.2/../../../../arm-elf/lib/interwork/libc.a(lib_a-strcat.o)
 .glue_7t       0x00272ac8        0x0 /usr/local/OAT/lib/gcc/arm-elf/4.3.2/../../../../arm-elf/lib/interwork/libc.a(lib_a-strchr.o)
 .glue_7t       0x00272ac8        0x0 /usr/local/OAT/lib/gcc/arm-elf/4.3.2/../../../../arm-elf/lib/interwork/libc.a(lib_a-strcmp.o)
 .glue_7t       0x00272ac8        0x0 /usr/local/OAT/lib/gcc/arm-elf/4.3.2/../../../../arm-elf/lib/interwork/libc.a(lib_a-strcpy.o)
 .glue_7t       0x00272ac8        0x0 /usr/local/OAT/lib/gcc/arm-elf/4.3.2/../../../../arm-elf/lib/interwork/libc.a(lib_a-strdup.o)
 .glue_7t       0x00272ac8        0x0 /usr/local/OAT/lib/gcc/arm-elf/4.3.2/../../../../arm-elf/lib/interwork/libc.a(lib_a-strdup_r.o)
 .glue_7t       0x00272ac8        0x0 /usr/local/OAT/lib/gcc/arm-elf/4.3.2/../../../../arm-elf/lib/interwork/libc.a(lib_a-strlen.o)
 .glue_7t       0x00272ac8        0x0 /usr/local/OAT/lib/gcc/arm-elf/4.3.2/../../../../arm-elf/lib/interwork/libc.a(lib_a-strncat.o)
 .glue_7t       0x00272ac8        0x0 /usr/local/OAT/lib/gcc/arm-elf/4.3.2/../../../../arm-elf/lib/interwork/libc.a(lib_a-strncmp.o)
 .glue_7t       0x00272ac8        0x0 /usr/local/OAT/lib/gcc/arm-elf/4.3.2/../../../../arm-elf/lib/interwork/libc.a(lib_a-strncpy.o)
 .glue_7t       0x00272ac8        0x0 /usr/local/OAT/lib/gcc/arm-elf/4.3.2/../../../../arm-elf/lib/interwork/libc.a(lib_a-strsep.o)
 .glue_7t       0x00272ac8        0x0 /usr/local/OAT/lib/gcc/arm-elf/4.3.2/../../../../arm-elf/lib/interwork/libc.a(lib_a-strstr.o)
 .glue_7t       0x00272ac8        0x0 /usr/local/OAT/lib/gcc/arm-elf/4.3.2/../../../../arm-elf/lib/interwork/libc.a(lib_a-strtok.o)
 .glue_7t       0x00272ac8        0x0 /usr/local/OAT/lib/gcc/arm-elf/4.3.2/../../../../arm-elf/lib/interwork/libc.a(lib_a-strtok_r.o)
 .glue_7t       0x00272ac8        0x0 /usr/local/OAT/lib/gcc/arm-elf/4.3.2/../../../../arm-elf/lib/interwork/libc.a(lib_a-strtol.o)
 .glue_7t       0x00272ac8        0x0 /usr/local/OAT/lib/gcc/arm-elf/4.3.2/../../../../arm-elf/lib/interwork/libc.a(lib_a-syscalls.o)
 .glue_7t       0x00272ac8        0x0 /usr/local/OAT/lib/gcc/arm-elf/4.3.2/../../../../arm-elf/lib/interwork/libc.a(lib_a-syswrite.o)
 .glue_7t       0x00272ac8        0x0 /usr/local/OAT/lib/gcc/arm-elf/4.3.2/../../../../arm-elf/lib/interwork/libc.a(lib_a-vasprintf.o)
 .glue_7t       0x00272ac8        0x0 /usr/local/OAT/lib/gcc/arm-elf/4.3.2/../../../../arm-elf/lib/interwork/libc.a(lib_a-vfprintf.o)
 .glue_7t       0x00272ac8        0x0 /usr/local/OAT/lib/gcc/arm-elf/4.3.2/../../../../arm-elf/lib/interwork/libc.a(lib_a-vfscanf.o)
 .glue_7t       0x00272ac8        0x0 /usr/local/OAT/lib/gcc/arm-elf/4.3.2/../../../../arm-elf/lib/interwork/libc.a(lib_a-vsprintf.o)
 .glue_7t       0x00272ac8        0x0 /usr/local/OAT/lib/gcc/arm-elf/4.3.2/../../../../arm-elf/lib/interwork/libc.a(lib_a-wsetup.o)
 .glue_7t       0x00272ac8        0x0 /usr/local/OAT/lib/gcc/arm-elf/4.3.2/../../../../arm-elf/lib/interwork/libc.a(lib_a-OAT_close.o)
 .glue_7t       0x00272ac8        0x0 /usr/local/OAT/lib/gcc/arm-elf/4.3.2/../../../../arm-elf/lib/interwork/libc.a(lib_a-OAT_fstat.o)
 .glue_7t       0x00272ac8        0x0 /usr/local/OAT/lib/gcc/arm-elf/4.3.2/../../../../arm-elf/lib/interwork/libc.a(lib_a-OAT_isatty.o)
 .glue_7t       0x00272ac8        0x0 /usr/local/OAT/lib/gcc/arm-elf/4.3.2/../../../../arm-elf/lib/interwork/libc.a(lib_a-OAT_kill.o)
 .glue_7t       0x00272ac8        0x0 /usr/local/OAT/lib/gcc/arm-elf/4.3.2/../../../../arm-elf/lib/interwork/libc.a(lib_a-OAT_lseek.o)
 .glue_7t       0x00272ac8        0x0 /usr/local/OAT/lib/gcc/arm-elf/4.3.2/../../../../arm-elf/lib/interwork/libc.a(lib_a-OAT_open.o)
 .glue_7t       0x00272ac8        0x0 /usr/local/OAT/lib/gcc/arm-elf/4.3.2/../../../../arm-elf/lib/interwork/libc.a(lib_a-OAT_read.o)
 .glue_7t       0x00272ac8        0x0 /usr/local/OAT/lib/gcc/arm-elf/4.3.2/../../../../arm-elf/lib/interwork/libc.a(lib_a-OAT_write.o)
 .glue_7t       0x00272ac8        0x0 /usr/local/OAT/lib/gcc/arm-elf/4.3.2/../../../../arm-elf/lib/interwork/libc.a(lib_a-dtoa.o)
 .glue_7t       0x00272ac8        0x0 /usr/local/OAT/lib/gcc/arm-elf/4.3.2/../../../../arm-elf/lib/interwork/libc.a(lib_a-fflush.o)
 .glue_7t       0x00272ac8        0x0 /usr/local/OAT/lib/gcc/arm-elf/4.3.2/../../../../arm-elf/lib/interwork/libc.a(lib_a-findfp.o)
 .glue_7t       0x00272ac8        0x0 /usr/local/OAT/lib/gcc/arm-elf/4.3.2/../../../../arm-elf/lib/interwork/libc.a(lib_a-fread.o)
 .glue_7t       0x00272ac8        0x0 /usr/local/OAT/lib/gcc/arm-elf/4.3.2/../../../../arm-elf/lib/interwork/libc.a(lib_a-freer.o)
 .glue_7t       0x00272ac8        0x0 /usr/local/OAT/lib/gcc/arm-elf/4.3.2/../../../../arm-elf/lib/interwork/libc.a(lib_a-fvwrite.o)
 .glue_7t       0x00272ac8        0x0 /usr/local/OAT/lib/gcc/arm-elf/4.3.2/../../../../arm-elf/lib/interwork/libc.a(lib_a-fwalk.o)
 .glue_7t       0x00272ac8        0x0 /usr/local/OAT/lib/gcc/arm-elf/4.3.2/../../../../arm-elf/lib/interwork/libc.a(lib_a-iswspace.o)
 .glue_7t       0x00272ac8        0x0 /usr/local/OAT/lib/gcc/arm-elf/4.3.2/../../../../arm-elf/lib/interwork/libc.a(lib_a-makebuf.o)
 .glue_7t       0x00272ac8        0x0 /usr/local/OAT/lib/gcc/arm-elf/4.3.2/../../../../arm-elf/lib/interwork/libc.a(lib_a-mbrtowc.o)
 .glue_7t       0x00272ac8        0x0 /usr/local/OAT/lib/gcc/arm-elf/4.3.2/../../../../arm-elf/lib/interwork/libc.a(lib_a-mbtowc_r.o)
 .glue_7t       0x00272ac8        0x0 /usr/local/OAT/lib/gcc/arm-elf/4.3.2/../../../../arm-elf/lib/interwork/libc.a(lib_a-memchr.o)
 .glue_7t       0x00272ac8        0x0 /usr/local/OAT/lib/gcc/arm-elf/4.3.2/../../../../arm-elf/lib/interwork/libc.a(lib_a-memmove.o)
 .glue_7t       0x00272ac8        0x0 /usr/local/OAT/lib/gcc/arm-elf/4.3.2/../../../../arm-elf/lib/interwork/libc.a(lib_a-mprec.o)
 .glue_7t       0x00272ac8        0x0 /usr/local/OAT/lib/gcc/arm-elf/4.3.2/../../../../arm-elf/lib/interwork/libc.a(lib_a-reent.o)
 .glue_7t       0x00272ac8        0x0 /usr/local/OAT/lib/gcc/arm-elf/4.3.2/../../../../arm-elf/lib/interwork/libc.a(lib_a-refill.o)
 .glue_7t       0x00272ac8        0x0 /usr/local/OAT/lib/gcc/arm-elf/4.3.2/../../../../arm-elf/lib/interwork/libc.a(lib_a-s_isinfd.o)
 .glue_7t       0x00272ac8        0x0 /usr/local/OAT/lib/gcc/arm-elf/4.3.2/../../../../arm-elf/lib/interwork/libc.a(lib_a-sccl.o)
 .glue_7t       0x00272ac8        0x0 /usr/local/OAT/lib/gcc/arm-elf/4.3.2/../../../../arm-elf/lib/interwork/libc.a(lib_a-sf_nan.o)
 .glue_7t       0x00272ac8        0x0 /usr/local/OAT/lib/gcc/arm-elf/4.3.2/../../../../arm-elf/lib/interwork/libc.a(lib_a-stdio.o)
 .glue_7t       0x00272ac8        0x0 /usr/local/OAT/lib/gcc/arm-elf/4.3.2/../../../../arm-elf/lib/interwork/libc.a(lib_a-strtod.o)
 .glue_7t       0x00272ac8        0x0 /usr/local/OAT/lib/gcc/arm-elf/4.3.2/../../../../arm-elf/lib/interwork/libc.a(lib_a-strtoul.o)
 .glue_7t       0x00272ac8        0x0 /usr/local/OAT/lib/gcc/arm-elf/4.3.2/../../../../arm-elf/lib/interwork/libc.a(lib_a-ungetc.o)
 .glue_7t       0x00272ac8        0x0 /usr/local/OAT/lib/gcc/arm-elf/4.3.2/../../../../arm-elf/lib/interwork/libc.a(lib_a-writer.o)
 .glue_7t       0x00272ac8        0x0 /usr/local/OAT/lib/gcc/arm-elf/4.3.2/../../../../arm-elf/lib/interwork/libc.a(lib_a-callocr.o)
 .glue_7t       0x00272ac8        0x0 /usr/local/OAT/lib/gcc/arm-elf/4.3.2/../../../../arm-elf/lib/interwork/libc.a(lib_a-closer.o)
 .glue_7t       0x00272ac8        0x0 /usr/local/OAT/lib/gcc/arm-elf/4.3.2/../../../../arm-elf/lib/interwork/libc.a(lib_a-fclose.o)
 .glue_7t       0x00272ac8        0x0 /usr/local/OAT/lib/gcc/arm-elf/4.3.2/../../../../arm-elf/lib/interwork/libc.a(lib_a-fstatr.o)
 .glue_7t       0x00272ac8        0x0 /usr/local/OAT/lib/gcc/arm-elf/4.3.2/../../../../arm-elf/lib/interwork/libc.a(lib_a-gdtoa-gethex.o)
 .glue_7t       0x00272ac8        0x0 /usr/local/OAT/lib/gcc/arm-elf/4.3.2/../../../../arm-elf/lib/interwork/libc.a(lib_a-gdtoa-hexnan.o)
 .glue_7t       0x00272ac8        0x0 /usr/local/OAT/lib/gcc/arm-elf/4.3.2/../../../../arm-elf/lib/interwork/libc.a(lib_a-lseekr.o)
 .glue_7t       0x00272ac8        0x0 /usr/local/OAT/lib/gcc/arm-elf/4.3.2/../../../../arm-elf/lib/interwork/libc.a(lib_a-readr.o)
 .glue_7t       0x00272ac8       0xa8 /usr/local/OAT/lib/gcc/arm-elf/4.3.2/interwork/libgcc.a(_truncdfsf2.o)
                0x00272aec                __strcpy_change_to_arm
                0x00272b20                __memset_from_thumb
                0x00272ad4                __strcmp_change_to_arm
                0x00272b24                __memset_change_to_arm
                0x00272b40                ____divsf3_from_thumb
                0x00272b54                __strtol_change_to_arm
                0x00272b4c                __vsprintf_change_to_arm
                0x00272b18                __strncpy_from_thumb
                0x00272b38                ____floatsisf_from_thumb
                0x00272ae4                __strlen_change_to_arm
                0x00272b64                __strchr_change_to_arm
                0x00272ad8                __memcpy_from_thumb
                0x00272b14                __strncmp_change_to_arm
                0x00272b6c                ____umodsi3_change_to_arm
                0x00272af0                __sprintf_from_thumb
                0x00272ae8                __strcpy_from_thumb
                0x00272b5c                ____udivsi3_change_to_arm
                0x00272b60                __strchr_from_thumb
                0x00272b48                __vsprintf_from_thumb
                0x00272af8                __atoi_from_thumb
                0x00272b08                __strcat_from_thumb
                0x00272b50                __strtol_from_thumb
                0x00272b44                ____divsf3_change_to_arm
                0x00272b68                ____umodsi3_from_thumb
                0x00272b00                ____divsi3_from_thumb
                0x00272b34                ____nesf2_change_to_arm
                0x00272acc                __setlocale_change_to_arm
                0x00272b30                ____nesf2_from_thumb
                0x00272afc                __atoi_change_to_arm
                0x00272b3c                ____floatsisf_change_to_arm
                0x00272b58                ____udivsi3_from_thumb
                0x00272af4                __sprintf_change_to_arm
                0x00272b0c                __strcat_change_to_arm
                0x00272ae0                __strlen_from_thumb
                0x00272b28                __memcmp_from_thumb
                0x00272b2c                __memcmp_change_to_arm
                0x00272adc                __memcpy_change_to_arm
                0x00272ad0                __strcmp_from_thumb
                0x00272ac8                __setlocale_from_thumb
                0x00272b1c                __strncpy_change_to_arm
                0x00272b10                __strncmp_from_thumb
                0x00272b04                ____divsi3_change_to_arm
 *(.glue_7)
 .glue_7        0x00272b70        0x0 src/gpioTest.o
 .glue_7        0x00272b70        0x0 src/adc.o
 .glue_7        0x00272b70        0x0 src/FlashTest.o
 .glue_7        0x00272b70        0x0 src/wyhook_HAL.o
 .glue_7        0x00272b70        0x0 src/XactUtilities.o
 .glue_7        0x00272b70        0x0 src/SimOperations.o
 .glue_7        0x00272b70        0x0 src/status.o
 .glue_7        0x00272b70        0x0 src/WaypointControl.o
 .glue_7        0x00272b70        0x0 src/alarm_suppress.o
 .glue_7        0x00272b70        0x0 src/GPSCtrl.o
 .glue_7        0x00272b70        0x0 src/anolclient.o
 .glue_7        0x00272b70        0x0 src/GpsInterface.o
 .glue_7        0x00272b70        0x0 src/LED.o
 .glue_7        0x00272b70        0x0 src/TempoCasesTask.o
 .glue_7        0x00272b70        0x0 src/PowerCtrl.o
 .glue_7        0x00272b70        0x0 src/i2c_accelerometer.o
 .glue_7        0x00272b70        0x0 src/wyhook_Application.o
 .glue_7        0x00272b70        0x0 src/fence.o
 .glue_7        0x00272b70        0x0 src/Accelerometer.o
 .glue_7        0x00272b70        0x0 src/ota_at.o
 .glue_7        0x00272b70        0x0 src/XactTests.o
 .glue_7        0x00272b70        0x0 src/wyhook_Message.o
 .glue_7        0x00272b70        0x0 src/ConfigSettings.o
 .glue_7        0x00272b70        0x0 src/InternalFlash.o
 .glue_7        0x00272b70        0x0 src/haversine.o
 .glue_7        0x00272b70        0x0 src/CallBackMethods.o
 .glue_7        0x00272b70        0x0 src/Timers.o
 .glue_7        0x00272b70        0x0 src/VibrationMotor.o
 .glue_7        0x00272b70        0x0 src/button.o
 .glue_7        0x00272b70        0x0 src/DOTAOperation.o
 .glue_7        0x00272b70        0x0 src/gpioconfig.o
 .glue_7        0x00272b70        0x0 src/adl_main.o
 .glue_7        0x00272b70        0x0 src/dogwalk.o
 .glue_7        0x00272b70        0x0 src/COMMR572.o
 .glue_7        0x00272b70        0x0 src/USB.o
 .glue_7        0x00272b70        0x0 src/i2c.o
 .glue_7        0x00272b70        0x0 src/ublox.o
 .glue_7        0x00272b70        0x0 src/GPRS.o
 .glue_7        0x00272b70        0x0 src/SMShandling.o
 .glue_7        0x00272b70        0x0 src/Traces.o
 .glue_7        0x00272b70        0x0 src/airplane_mode.o
 .glue_7        0x00272b70        0x0 src/CommandHandlerXACT.o
 .glue_7        0x00272b70        0x0 src/protocol.o
 .glue_7        0x00272b70        0x0 src/diagnose.o
 .glue_7        0x00272b70        0x0 flash_src/atmel_flashDriver.o
 .glue_7        0x00272b70        0x0 /usr/local/OAT/lib/gcc/arm-elf/4.3.2/../../../../arm-elf/lib/interwork/libm.a(lib_a-s_cos.o)
 .glue_7        0x00272b70        0x0 /usr/local/OAT/lib/gcc/arm-elf/4.3.2/../../../../arm-elf/lib/interwork/libm.a(lib_a-s_sin.o)
 .glue_7        0x00272b70        0x0 /usr/local/OAT/lib/gcc/arm-elf/4.3.2/../../../../arm-elf/lib/interwork/libm.a(lib_a-w_atan2.o)
 .glue_7        0x00272b70        0x0 /usr/local/OAT/lib/gcc/arm-elf/4.3.2/../../../../arm-elf/lib/interwork/libm.a(lib_a-w_sqrt.o)
 .glue_7        0x00272b70        0x0 /usr/local/OAT/lib/gcc/arm-elf/4.3.2/../../../../arm-elf/lib/interwork/libm.a(lib_a-e_atan2.o)
 .glue_7        0x00272b70        0x0 /usr/local/OAT/lib/gcc/arm-elf/4.3.2/../../../../arm-elf/lib/interwork/libm.a(lib_a-e_rem_pio2.o)
 .glue_7        0x00272b70        0x0 /usr/local/OAT/lib/gcc/arm-elf/4.3.2/../../../../arm-elf/lib/interwork/libm.a(lib_a-e_sqrt.o)
 .glue_7        0x00272b70        0x0 /usr/local/OAT/lib/gcc/arm-elf/4.3.2/../../../../arm-elf/lib/interwork/libm.a(lib_a-k_cos.o)
 .glue_7        0x00272b70        0x0 /usr/local/OAT/lib/gcc/arm-elf/4.3.2/../../../../arm-elf/lib/interwork/libm.a(lib_a-k_rem_pio2.o)
 .glue_7        0x00272b70        0x0 /usr/local/OAT/lib/gcc/arm-elf/4.3.2/../../../../arm-elf/lib/interwork/libm.a(lib_a-k_sin.o)
 .glue_7        0x00272b70        0x0 /usr/local/OAT/lib/gcc/arm-elf/4.3.2/../../../../arm-elf/lib/interwork/libm.a(lib_a-s_atan.o)
 .glue_7        0x00272b70        0x0 /usr/local/OAT/lib/gcc/arm-elf/4.3.2/../../../../arm-elf/lib/interwork/libm.a(lib_a-s_fabs.o)
 .glue_7        0x00272b70        0x0 /usr/local/OAT/lib/gcc/arm-elf/4.3.2/../../../../arm-elf/lib/interwork/libm.a(lib_a-s_floor.o)
 .glue_7        0x00272b70        0x0 /usr/local/OAT/lib/gcc/arm-elf/4.3.2/../../../../arm-elf/lib/interwork/libm.a(lib_a-s_isnand.o)
 .glue_7        0x00272b70        0x0 /usr/local/OAT/lib/gcc/arm-elf/4.3.2/../../../../arm-elf/lib/interwork/libm.a(lib_a-s_lib_ver.o)
 .glue_7        0x00272b70        0x0 /usr/local/OAT/lib/gcc/arm-elf/4.3.2/../../../../arm-elf/lib/interwork/libm.a(lib_a-s_matherr.o)
 .glue_7        0x00272b70        0x0 /usr/local/OAT/lib/gcc/arm-elf/4.3.2/../../../../arm-elf/lib/interwork/libm.a(lib_a-s_scalbn.o)
 .glue_7        0x00272b70        0x0 /usr/local/OAT/lib/gcc/arm-elf/4.3.2/../../../../arm-elf/lib/interwork/libm.a(lib_a-s_copysign.o)
 .glue_7        0x00272b70        0x0 mos_header.o
 .glue_7        0x00272b70        0x0 /cygdrive/c/OpenAT/OS/6.21.02/ADL/gcc_wmadl_6.21.02.0.0.lib(mos_ftr.o)
 .glue_7        0x00272b70        0x0 /cygdrive/c/OpenAT/OS/6.21.02/ADL/gcc_wmadl_6.21.02.0.0.lib(opec_lst.o)
 .glue_7        0x00272b70        0x0 /cygdrive/c/OpenAT/OS/6.21.02/ADL/gcc_wmadl_6.21.02.0.0.lib(opec_std.o)
 .glue_7        0x00272b70        0x0 /cygdrive/c/OpenAT/OS/6.21.02/ADL/gcc_wmadl_6.21.02.0.0.lib(adl_ad.o)
 .glue_7        0x00272b70        0x0 /cygdrive/c/OpenAT/OS/6.21.02/ADL/gcc_wmadl_6.21.02.0.0.lib(adl_adc.o)
 .glue_7        0x00272b70        0x0 /cygdrive/c/OpenAT/OS/6.21.02/ADL/gcc_wmadl_6.21.02.0.0.lib(adl_AppliInit.o)
 .glue_7        0x00272b70        0x0 /cygdrive/c/OpenAT/OS/6.21.02/ADL/gcc_wmadl_6.21.02.0.0.lib(adl_audio.o)
 .glue_7        0x00272b70        0x0 /cygdrive/c/OpenAT/OS/6.21.02/ADL/gcc_wmadl_6.21.02.0.0.lib(adl_bus.o)
 .glue_7        0x00272b70        0x0 /cygdrive/c/OpenAT/OS/6.21.02/ADL/gcc_wmadl_6.21.02.0.0.lib(adl_call.o)
 .glue_7        0x00272b70        0x0 /cygdrive/c/OpenAT/OS/6.21.02/ADL/gcc_wmadl_6.21.02.0.0.lib(adl_CmdHandler.o)
 .glue_7        0x00272b70        0x0 /cygdrive/c/OpenAT/OS/6.21.02/ADL/gcc_wmadl_6.21.02.0.0.lib(adl_CmdProcessor.o)
 .glue_7        0x00272b70        0x0 /cygdrive/c/OpenAT/OS/6.21.02/ADL/gcc_wmadl_6.21.02.0.0.lib(adl_CmdStackHandler.o)
 .glue_7        0x00272b70        0x0 /cygdrive/c/OpenAT/OS/6.21.02/ADL/gcc_wmadl_6.21.02.0.0.lib(adl_ctx.o)
 .glue_7        0x00272b70        0x0 /cygdrive/c/OpenAT/OS/6.21.02/ADL/gcc_wmadl_6.21.02.0.0.lib(adl_defaut_buildtime.o)
 .glue_7        0x00272b70        0x0 /cygdrive/c/OpenAT/OS/6.21.02/ADL/gcc_wmadl_6.21.02.0.0.lib(adl_defaut_extend.o)
 .glue_7        0x00272b70        0x0 /cygdrive/c/OpenAT/OS/6.21.02/ADL/gcc_wmadl_6.21.02.0.0.lib(adl_defaut_selist.o)
 .glue_7        0x00272b70        0x0 /cygdrive/c/OpenAT/OS/6.21.02/ADL/gcc_wmadl_6.21.02.0.0.lib(adl_defaut_timeslicing.o)
 .glue_7        0x00272b70        0x0 /cygdrive/c/OpenAT/OS/6.21.02/ADL/gcc_wmadl_6.21.02.0.0.lib(adl_error.o)
 .glue_7        0x00272b70        0x0 /cygdrive/c/OpenAT/OS/6.21.02/ADL/gcc_wmadl_6.21.02.0.0.lib(adl_EventMachine.o)
 .glue_7        0x00272b70        0x0 /cygdrive/c/OpenAT/OS/6.21.02/ADL/gcc_wmadl_6.21.02.0.0.lib(adl_extint.o)
 .glue_7        0x00272b70        0x0 /cygdrive/c/OpenAT/OS/6.21.02/ADL/gcc_wmadl_6.21.02.0.0.lib(adl_extint_deprecated.o)
 .glue_7        0x00272b70        0x0 /cygdrive/c/OpenAT/OS/6.21.02/ADL/gcc_wmadl_6.21.02.0.0.lib(adl_fcm.o)
 .glue_7        0x00272b70        0x0 /cygdrive/c/OpenAT/OS/6.21.02/ADL/gcc_wmadl_6.21.02.0.0.lib(adl_flash.o)
 .glue_7        0x00272b70        0x0 /cygdrive/c/OpenAT/OS/6.21.02/ADL/gcc_wmadl_6.21.02.0.0.lib(adl_gpio.o)
 .glue_7        0x00272b70        0x0 /cygdrive/c/OpenAT/OS/6.21.02/ADL/gcc_wmadl_6.21.02.0.0.lib(adl_gprs.o)
 .glue_7        0x00272b70        0x0 /cygdrive/c/OpenAT/OS/6.21.02/ADL/gcc_wmadl_6.21.02.0.0.lib(adl_irq.o)
 .glue_7        0x00272b70        0x0 /cygdrive/c/OpenAT/OS/6.21.02/ADL/gcc_wmadl_6.21.02.0.0.lib(adl_memory.o)
 .glue_7        0x00272b70        0x0 /cygdrive/c/OpenAT/OS/6.21.02/ADL/gcc_wmadl_6.21.02.0.0.lib(adl_msg.o)
 .glue_7        0x00272b70        0x0 /cygdrive/c/OpenAT/OS/6.21.02/ADL/gcc_wmadl_6.21.02.0.0.lib(adl_port.o)
 .glue_7        0x00272b70        0x0 /cygdrive/c/OpenAT/OS/6.21.02/ADL/gcc_wmadl_6.21.02.0.0.lib(adl_reg.o)
 .glue_7        0x00272b70        0x0 /cygdrive/c/OpenAT/OS/6.21.02/ADL/gcc_wmadl_6.21.02.0.0.lib(adl_RspHandler.o)
 .glue_7        0x00272b70        0x0 /cygdrive/c/OpenAT/OS/6.21.02/ADL/gcc_wmadl_6.21.02.0.0.lib(adl_rtc.o)
 .glue_7        0x00272b70        0x0 /cygdrive/c/OpenAT/OS/6.21.02/ADL/gcc_wmadl_6.21.02.0.0.lib(adl_sem.o)
 .glue_7        0x00272b70        0x0 /cygdrive/c/OpenAT/OS/6.21.02/ADL/gcc_wmadl_6.21.02.0.0.lib(adl_serv.o)
 .glue_7        0x00272b70        0x0 /cygdrive/c/OpenAT/OS/6.21.02/ADL/gcc_wmadl_6.21.02.0.0.lib(adl_sim.o)
 .glue_7        0x00272b70        0x0 /cygdrive/c/OpenAT/OS/6.21.02/ADL/gcc_wmadl_6.21.02.0.0.lib(adl_sms.o)
 .glue_7        0x00272b70        0x0 /cygdrive/c/OpenAT/OS/6.21.02/ADL/gcc_wmadl_6.21.02.0.0.lib(adl_str.o)
 .glue_7        0x00272b70        0x0 /cygdrive/c/OpenAT/OS/6.21.02/ADL/gcc_wmadl_6.21.02.0.0.lib(adl_TimerHandler.o)
 .glue_7        0x00272b70        0x0 /cygdrive/c/OpenAT/OS/6.21.02/ADL/gcc_wmadl_6.21.02.0.0.lib(adl_traces.o)
 .glue_7        0x00272b70        0x0 /cygdrive/c/OpenAT/OS/6.21.02/ADL/gcc_wmadl_6.21.02.0.0.lib(adl_UnSoHandler.o)
 .glue_7        0x00272b70        0x0 /cygdrive/c/OpenAT/OS/6.21.02/ADL/gcc_wmadl_6.21.02.0.0.lib(adl_wd.o)
 .glue_7        0x00272b70        0x0 /cygdrive/c/OpenAT/Plug-ins/WIP/5.10.2020/WIP/gcc_wmwip_5.10.2020.lib(br_close.o)
 .glue_7        0x00272b70        0x0 /cygdrive/c/OpenAT/Plug-ins/WIP/5.10.2020/WIP/gcc_wmwip_5.10.2020.lib(br_getopts.o)
 .glue_7        0x00272b70        0x0 /cygdrive/c/OpenAT/Plug-ins/WIP/5.10.2020/WIP/gcc_wmwip_5.10.2020.lib(br_mgr_init.o)
 .glue_7        0x00272b70        0x0 /cygdrive/c/OpenAT/Plug-ins/WIP/5.10.2020/WIP/gcc_wmwip_5.10.2020.lib(br_open.o)
 .glue_7        0x00272b70        0x0 /cygdrive/c/OpenAT/Plug-ins/WIP/5.10.2020/WIP/gcc_wmwip_5.10.2020.lib(br_setopts.o)
 .glue_7        0x00272b70        0x0 /cygdrive/c/OpenAT/Plug-ins/WIP/5.10.2020/WIP/gcc_wmwip_5.10.2020.lib(br_start.o)
 .glue_7        0x00272b70        0x0 /cygdrive/c/OpenAT/Plug-ins/WIP/5.10.2020/WIP/gcc_wmwip_5.10.2020.lib(br_v24.o)
 .glue_7        0x00272b70        0x0 /cygdrive/c/OpenAT/Plug-ins/WIP/5.10.2020/WIP/gcc_wmwip_5.10.2020.lib(ch_channel.o)
 .glue_7        0x00272b70        0x0 /cygdrive/c/OpenAT/Plug-ins/WIP/5.10.2020/WIP/gcc_wmwip_5.10.2020.lib(ch_tcp_client.o)
 .glue_7        0x00272b70        0x0 /cygdrive/c/OpenAT/Plug-ins/WIP/5.10.2020/WIP/gcc_wmwip_5.10.2020.lib(ch_udp.o)
 .glue_7        0x00272b70        0x0 /cygdrive/c/OpenAT/Plug-ins/WIP/5.10.2020/WIP/gcc_wmwip_5.10.2020.lib(file.o)
 .glue_7        0x00272b70        0x0 /cygdrive/c/OpenAT/Plug-ins/WIP/5.10.2020/WIP/gcc_wmwip_5.10.2020.lib(ftp.o)
 .glue_7        0x00272b70        0x0 /cygdrive/c/OpenAT/Plug-ins/WIP/5.10.2020/WIP/gcc_wmwip_5.10.2020.lib(ftp_evh.o)
 .glue_7        0x00272b70        0x0 /cygdrive/c/OpenAT/Plug-ins/WIP/5.10.2020/WIP/gcc_wmwip_5.10.2020.lib(ftp_list.o)
 .glue_7        0x00272b70        0x0 /cygdrive/c/OpenAT/Plug-ins/WIP/5.10.2020/WIP/gcc_wmwip_5.10.2020.lib(ftr.o)
 .glue_7        0x00272b70        0x0 /cygdrive/c/OpenAT/Plug-ins/WIP/5.10.2020/WIP/gcc_wmwip_5.10.2020.lib(in_aton.o)
 .glue_7        0x00272b70        0x0 /cygdrive/c/OpenAT/Plug-ins/WIP/5.10.2020/WIP/gcc_wmwip_5.10.2020.lib(in_ntoa.o)
 .glue_7        0x00272b70        0x0 /cygdrive/c/OpenAT/Plug-ins/WIP/5.10.2020/WIP/gcc_wmwip_5.10.2020.lib(list_plugin_unix.o)
 .glue_7        0x00272b70        0x0 /cygdrive/c/OpenAT/Plug-ins/WIP/5.10.2020/WIP/gcc_wmwip_5.10.2020.lib(net_debug.o)
 .glue_7        0x00272b70        0x0 /cygdrive/c/OpenAT/Plug-ins/WIP/5.10.2020/WIP/gcc_wmwip_5.10.2020.lib(net_init.o)
 .glue_7        0x00272b70        0x0 /cygdrive/c/OpenAT/Plug-ins/WIP/5.10.2020/WIP/gcc_wmwip_5.10.2020.lib(net_initopts.o)
 .glue_7        0x00272b70        0x0 /cygdrive/c/OpenAT/Plug-ins/WIP/5.10.2020/WIP/gcc_wmwip_5.10.2020.lib(net_setopts.o)
 .glue_7        0x00272b70        0x0 /cygdrive/c/OpenAT/Plug-ins/WIP/5.10.2020/WIP/gcc_wmwip_5.10.2020.lib(net_sync.o)
 .glue_7        0x00272b70        0x0 /cygdrive/c/OpenAT/Plug-ins/WIP/5.10.2020/WIP/gcc_wmwip_5.10.2020.lib(queue.o)
 .glue_7        0x00272b70        0x0 /cygdrive/c/OpenAT/Plug-ins/WIP/5.10.2020/WIP/gcc_wmwip_5.10.2020.lib(readline.o)
 .glue_7        0x00272b70        0x0 /cygdrive/c/OpenAT/Plug-ins/WIP/5.10.2020/WIP/gcc_wmwip_5.10.2020.lib(wip_subLevelOpts.o)
 .glue_7        0x00272b70        0x0 /cygdrive/c/OpenAT/Plug-ins/WIP/5.10.2020/WIP/gcc_wmwip_5.10.2020.lib(wrapper.o)
 .glue_7        0x00272b70        0x0 /cygdrive/c/OpenAT/Plug-ins/WIP/5.10.2020/WIP/gcc_wmwip_5.10.2020.lib(wm_net_hton.o)
 .glue_7        0x00272b70        0x0 /cygdrive/c/OpenAT/Plug-ins/WIP/5.10.2020/WIP/gcc_wmwip_5.10.2020.lib(wm_net_in_aton.o)
 .glue_7        0x00272b70        0x0 /cygdrive/c/OpenAT/Plug-ins/WIP/5.10.2020/WIP/gcc_wmwip_5.10.2020.lib(wm_net_in_ntoa.o)
 .glue_7        0x00272b70        0x0 /cygdrive/c/OpenAT/Plug-ins/WIP/5.10.2020/WIP/gcc_wmwip_5.10.2020.lib(wm_net_wrapper.o)
 .glue_7        0x00272b70        0x0 /cygdrive/c/OpenAT/Plug-ins/WIP/5.10.2020/WIP/gcc_wmwip_5.10.2020.lib(rawprint.o)
 .glue_7        0x00272b70        0x0 /cygdrive/c/OpenAT/Plug-ins/WIP/5.10.2020/WIP/gcc_wmwip_5.10.2020.lib(br_eth.o)
 .glue_7        0x00272b70        0x0 /cygdrive/c/OpenAT/Plug-ins/WIP/5.10.2020/WIP/gcc_wmwip_5.10.2020.lib(br_gen_close.o)
 .glue_7        0x00272b70        0x0 /cygdrive/c/OpenAT/Plug-ins/WIP/5.10.2020/WIP/gcc_wmwip_5.10.2020.lib(br_gen_getopt.o)
 .glue_7        0x00272b70        0x0 /cygdrive/c/OpenAT/Plug-ins/WIP/5.10.2020/WIP/gcc_wmwip_5.10.2020.lib(br_gen_setopt.o)
 .glue_7        0x00272b70        0x0 /cygdrive/c/OpenAT/Plug-ins/WIP/5.10.2020/WIP/gcc_wmwip_5.10.2020.lib(br_gen_stop.o)
 .glue_7        0x00272b70        0x0 /cygdrive/c/OpenAT/Plug-ins/WIP/5.10.2020/WIP/gcc_wmwip_5.10.2020.lib(br_gprs.o)
 .glue_7        0x00272b70        0x0 /cygdrive/c/OpenAT/Plug-ins/WIP/5.10.2020/WIP/gcc_wmwip_5.10.2020.lib(br_gsm.o)
 .glue_7        0x00272b70        0x0 /cygdrive/c/OpenAT/Plug-ins/WIP/5.10.2020/WIP/gcc_wmwip_5.10.2020.lib(br_mgr_debug.o)
 .glue_7        0x00272b70        0x0 /cygdrive/c/OpenAT/Plug-ins/WIP/5.10.2020/WIP/gcc_wmwip_5.10.2020.lib(br_ppp_getopt.o)
 .glue_7        0x00272b70        0x0 /cygdrive/c/OpenAT/Plug-ins/WIP/5.10.2020/WIP/gcc_wmwip_5.10.2020.lib(br_ppp_init.o)
 .glue_7        0x00272b70        0x0 /cygdrive/c/OpenAT/Plug-ins/WIP/5.10.2020/WIP/gcc_wmwip_5.10.2020.lib(br_ppp_setopt.o)
 .glue_7        0x00272b70        0x0 /cygdrive/c/OpenAT/Plug-ins/WIP/5.10.2020/WIP/gcc_wmwip_5.10.2020.lib(br_ppp_start.o)
 .glue_7        0x00272b70        0x0 /cygdrive/c/OpenAT/Plug-ins/WIP/5.10.2020/WIP/gcc_wmwip_5.10.2020.lib(br_ppp_stop.o)
 .glue_7        0x00272b70        0x0 /cygdrive/c/OpenAT/Plug-ins/WIP/5.10.2020/WIP/gcc_wmwip_5.10.2020.lib(ch_class.o)
 .glue_7        0x00272b70        0x0 /cygdrive/c/OpenAT/Plug-ins/WIP/5.10.2020/WIP/gcc_wmwip_5.10.2020.lib(ch_tcp_server.o)
 .glue_7        0x00272b70        0x0 /usr/local/OAT/lib/gcc/arm-elf/4.3.2/interwork/libgcc.a(_udivsi3.o)
 .glue_7        0x00272b70        0x0 /usr/local/OAT/lib/gcc/arm-elf/4.3.2/interwork/libgcc.a(_divsi3.o)
 .glue_7        0x00272b70        0x0 /usr/local/OAT/lib/gcc/arm-elf/4.3.2/interwork/libgcc.a(_umodsi3.o)
 .glue_7        0x00272b70        0x0 /usr/local/OAT/lib/gcc/arm-elf/4.3.2/interwork/libgcc.a(_dvmd_tls.o)
 .glue_7        0x00272b70        0x0 /usr/local/OAT/lib/gcc/arm-elf/4.3.2/interwork/libgcc.a(_addsubdf3.o)
 .glue_7        0x00272b70        0x0 /usr/local/OAT/lib/gcc/arm-elf/4.3.2/interwork/libgcc.a(_muldivdf3.o)
 .glue_7        0x00272b70        0x0 /usr/local/OAT/lib/gcc/arm-elf/4.3.2/interwork/libgcc.a(_cmpdf2.o)
 .glue_7        0x00272b70        0x0 /usr/local/OAT/lib/gcc/arm-elf/4.3.2/interwork/libgcc.a(_fixdfsi.o)
 .glue_7        0x00272b70        0x0 /usr/local/OAT/lib/gcc/arm-elf/4.3.2/interwork/libgcc.a(_fixunsdfsi.o)
 .glue_7        0x00272b70        0x0 /usr/local/OAT/lib/gcc/arm-elf/4.3.2/interwork/libgcc.a(_addsubsf3.o)
 .glue_7        0x00272b70        0x0 /usr/local/OAT/lib/gcc/arm-elf/4.3.2/interwork/libgcc.a(_muldivsf3.o)
 .glue_7        0x00272b70        0x0 /usr/local/OAT/lib/gcc/arm-elf/4.3.2/interwork/libgcc.a(_cmpsf2.o)
 .glue_7        0x00272b70        0x0 /usr/local/OAT/lib/gcc/arm-elf/4.3.2/interwork/libgcc.a(_fixunssfsi.o)
 .glue_7        0x00272b70        0x0 /usr/local/OAT/lib/gcc/arm-elf/4.3.2/../../../../arm-elf/lib/interwork/libc.a(lib_a-asprintf.o)
 .glue_7        0x00272b70        0x0 /usr/local/OAT/lib/gcc/arm-elf/4.3.2/../../../../arm-elf/lib/interwork/libc.a(lib_a-atoi.o)
 .glue_7        0x00272b70        0x0 /usr/local/OAT/lib/gcc/arm-elf/4.3.2/../../../../arm-elf/lib/interwork/libc.a(lib_a-ctype_.o)
 .glue_7        0x00272b70        0x0 /usr/local/OAT/lib/gcc/arm-elf/4.3.2/../../../../arm-elf/lib/interwork/libc.a(lib_a-errno.o)
 .glue_7        0x00272b70        0x0 /usr/local/OAT/lib/gcc/arm-elf/4.3.2/../../../../arm-elf/lib/interwork/libc.a(lib_a-impure.o)
 .glue_7        0x00272b70        0x0 /usr/local/OAT/lib/gcc/arm-elf/4.3.2/../../../../arm-elf/lib/interwork/libc.a(lib_a-locale.o)
 .glue_7        0x00272b70        0x0 /usr/local/OAT/lib/gcc/arm-elf/4.3.2/../../../../arm-elf/lib/interwork/libc.a(lib_a-malloc.o)
 .glue_7        0x00272b70        0x0 /usr/local/OAT/lib/gcc/arm-elf/4.3.2/../../../../arm-elf/lib/interwork/libc.a(lib_a-mallocr.o)
 .glue_7        0x00272b70        0x0 /usr/local/OAT/lib/gcc/arm-elf/4.3.2/../../../../arm-elf/lib/interwork/libc.a(lib_a-memcmp.o)
 .glue_7        0x00272b70        0x0 /usr/local/OAT/lib/gcc/arm-elf/4.3.2/../../../../arm-elf/lib/interwork/libc.a(lib_a-memcpy.o)
 .glue_7        0x00272b70        0x0 /usr/local/OAT/lib/gcc/arm-elf/4.3.2/../../../../arm-elf/lib/interwork/libc.a(lib_a-memset.o)
 .glue_7        0x00272b70        0x0 /usr/local/OAT/lib/gcc/arm-elf/4.3.2/../../../../arm-elf/lib/interwork/libc.a(lib_a-mlock.o)
 .glue_7        0x00272b70        0x0 /usr/local/OAT/lib/gcc/arm-elf/4.3.2/../../../../arm-elf/lib/interwork/libc.a(lib_a-printf.o)
 .glue_7        0x00272b70        0x0 /usr/local/OAT/lib/gcc/arm-elf/4.3.2/../../../../arm-elf/lib/interwork/libc.a(lib_a-realloc.o)
 .glue_7        0x00272b70        0x0 /usr/local/OAT/lib/gcc/arm-elf/4.3.2/../../../../arm-elf/lib/interwork/libc.a(lib_a-reallocr.o)
 .glue_7        0x00272b70        0x0 /usr/local/OAT/lib/gcc/arm-elf/4.3.2/../../../../arm-elf/lib/interwork/libc.a(lib_a-sbrkr.o)
 .glue_7        0x00272b70        0x0 /usr/local/OAT/lib/gcc/arm-elf/4.3.2/../../../../arm-elf/lib/interwork/libc.a(lib_a-sprintf.o)
 .glue_7        0x00272b70        0x0 /usr/local/OAT/lib/gcc/arm-elf/4.3.2/../../../../arm-elf/lib/interwork/libc.a(lib_a-sscanf.o)
 .glue_7        0x00272b70        0x0 /usr/local/OAT/lib/gcc/arm-elf/4.3.2/../../../../arm-elf/lib/interwork/libc.a(lib_a-strcat.o)
 .glue_7        0x00272b70        0x0 /usr/local/OAT/lib/gcc/arm-elf/4.3.2/../../../../arm-elf/lib/interwork/libc.a(lib_a-strchr.o)
 .glue_7        0x00272b70        0x0 /usr/local/OAT/lib/gcc/arm-elf/4.3.2/../../../../arm-elf/lib/interwork/libc.a(lib_a-strcmp.o)
 .glue_7        0x00272b70        0x0 /usr/local/OAT/lib/gcc/arm-elf/4.3.2/../../../../arm-elf/lib/interwork/libc.a(lib_a-strcpy.o)
 .glue_7        0x00272b70        0x0 /usr/local/OAT/lib/gcc/arm-elf/4.3.2/../../../../arm-elf/lib/interwork/libc.a(lib_a-strdup.o)
 .glue_7        0x00272b70        0x0 /usr/local/OAT/lib/gcc/arm-elf/4.3.2/../../../../arm-elf/lib/interwork/libc.a(lib_a-strdup_r.o)
 .glue_7        0x00272b70        0x0 /usr/local/OAT/lib/gcc/arm-elf/4.3.2/../../../../arm-elf/lib/interwork/libc.a(lib_a-strlen.o)
 .glue_7        0x00272b70        0x0 /usr/local/OAT/lib/gcc/arm-elf/4.3.2/../../../../arm-elf/lib/interwork/libc.a(lib_a-strncat.o)
 .glue_7        0x00272b70        0x0 /usr/local/OAT/lib/gcc/arm-elf/4.3.2/../../../../arm-elf/lib/interwork/libc.a(lib_a-strncmp.o)
 .glue_7        0x00272b70        0x0 /usr/local/OAT/lib/gcc/arm-elf/4.3.2/../../../../arm-elf/lib/interwork/libc.a(lib_a-strncpy.o)
 .glue_7        0x00272b70        0x0 /usr/local/OAT/lib/gcc/arm-elf/4.3.2/../../../../arm-elf/lib/interwork/libc.a(lib_a-strsep.o)
 .glue_7        0x00272b70        0x0 /usr/local/OAT/lib/gcc/arm-elf/4.3.2/../../../../arm-elf/lib/interwork/libc.a(lib_a-strstr.o)
 .glue_7        0x00272b70        0x0 /usr/local/OAT/lib/gcc/arm-elf/4.3.2/../../../../arm-elf/lib/interwork/libc.a(lib_a-strtok.o)
 .glue_7        0x00272b70        0x0 /usr/local/OAT/lib/gcc/arm-elf/4.3.2/../../../../arm-elf/lib/interwork/libc.a(lib_a-strtok_r.o)
 .glue_7        0x00272b70        0x0 /usr/local/OAT/lib/gcc/arm-elf/4.3.2/../../../../arm-elf/lib/interwork/libc.a(lib_a-strtol.o)
 .glue_7        0x00272b70        0x0 /usr/local/OAT/lib/gcc/arm-elf/4.3.2/../../../../arm-elf/lib/interwork/libc.a(lib_a-syscalls.o)
 .glue_7        0x00272b70        0x0 /usr/local/OAT/lib/gcc/arm-elf/4.3.2/../../../../arm-elf/lib/interwork/libc.a(lib_a-syswrite.o)
 .glue_7        0x00272b70        0x0 /usr/local/OAT/lib/gcc/arm-elf/4.3.2/../../../../arm-elf/lib/interwork/libc.a(lib_a-vasprintf.o)
 .glue_7        0x00272b70        0x0 /usr/local/OAT/lib/gcc/arm-elf/4.3.2/../../../../arm-elf/lib/interwork/libc.a(lib_a-vfprintf.o)
 .glue_7        0x00272b70        0x0 /usr/local/OAT/lib/gcc/arm-elf/4.3.2/../../../../arm-elf/lib/interwork/libc.a(lib_a-vfscanf.o)
 .glue_7        0x00272b70        0x0 /usr/local/OAT/lib/gcc/arm-elf/4.3.2/../../../../arm-elf/lib/interwork/libc.a(lib_a-vsprintf.o)
 .glue_7        0x00272b70        0x0 /usr/local/OAT/lib/gcc/arm-elf/4.3.2/../../../../arm-elf/lib/interwork/libc.a(lib_a-wsetup.o)
 .glue_7        0x00272b70        0x0 /usr/local/OAT/lib/gcc/arm-elf/4.3.2/../../../../arm-elf/lib/interwork/libc.a(lib_a-OAT_close.o)
 .glue_7        0x00272b70        0x0 /usr/local/OAT/lib/gcc/arm-elf/4.3.2/../../../../arm-elf/lib/interwork/libc.a(lib_a-OAT_fstat.o)
 .glue_7        0x00272b70        0x0 /usr/local/OAT/lib/gcc/arm-elf/4.3.2/../../../../arm-elf/lib/interwork/libc.a(lib_a-OAT_isatty.o)
 .glue_7        0x00272b70        0x0 /usr/local/OAT/lib/gcc/arm-elf/4.3.2/../../../../arm-elf/lib/interwork/libc.a(lib_a-OAT_kill.o)
 .glue_7        0x00272b70        0x0 /usr/local/OAT/lib/gcc/arm-elf/4.3.2/../../../../arm-elf/lib/interwork/libc.a(lib_a-OAT_lseek.o)
 .glue_7        0x00272b70        0x0 /usr/local/OAT/lib/gcc/arm-elf/4.3.2/../../../../arm-elf/lib/interwork/libc.a(lib_a-OAT_open.o)
 .glue_7        0x00272b70        0x0 /usr/local/OAT/lib/gcc/arm-elf/4.3.2/../../../../arm-elf/lib/interwork/libc.a(lib_a-OAT_read.o)
 .glue_7        0x00272b70        0x0 /usr/local/OAT/lib/gcc/arm-elf/4.3.2/../../../../arm-elf/lib/interwork/libc.a(lib_a-OAT_write.o)
 .glue_7        0x00272b70        0x0 /usr/local/OAT/lib/gcc/arm-elf/4.3.2/../../../../arm-elf/lib/interwork/libc.a(lib_a-dtoa.o)
 .glue_7        0x00272b70        0x0 /usr/local/OAT/lib/gcc/arm-elf/4.3.2/../../../../arm-elf/lib/interwork/libc.a(lib_a-fflush.o)
 .glue_7        0x00272b70        0x0 /usr/local/OAT/lib/gcc/arm-elf/4.3.2/../../../../arm-elf/lib/interwork/libc.a(lib_a-findfp.o)
 .glue_7        0x00272b70        0x0 /usr/local/OAT/lib/gcc/arm-elf/4.3.2/../../../../arm-elf/lib/interwork/libc.a(lib_a-fread.o)
 .glue_7        0x00272b70        0x0 /usr/local/OAT/lib/gcc/arm-elf/4.3.2/../../../../arm-elf/lib/interwork/libc.a(lib_a-freer.o)
 .glue_7        0x00272b70        0x0 /usr/local/OAT/lib/gcc/arm-elf/4.3.2/../../../../arm-elf/lib/interwork/libc.a(lib_a-fvwrite.o)
 .glue_7        0x00272b70        0x0 /usr/local/OAT/lib/gcc/arm-elf/4.3.2/../../../../arm-elf/lib/interwork/libc.a(lib_a-fwalk.o)
 .glue_7        0x00272b70        0x0 /usr/local/OAT/lib/gcc/arm-elf/4.3.2/../../../../arm-elf/lib/interwork/libc.a(lib_a-iswspace.o)
 .glue_7        0x00272b70        0x0 /usr/local/OAT/lib/gcc/arm-elf/4.3.2/../../../../arm-elf/lib/interwork/libc.a(lib_a-makebuf.o)
 .glue_7        0x00272b70        0x0 /usr/local/OAT/lib/gcc/arm-elf/4.3.2/../../../../arm-elf/lib/interwork/libc.a(lib_a-mbrtowc.o)
 .glue_7        0x00272b70        0x0 /usr/local/OAT/lib/gcc/arm-elf/4.3.2/../../../../arm-elf/lib/interwork/libc.a(lib_a-mbtowc_r.o)
 .glue_7        0x00272b70        0x0 /usr/local/OAT/lib/gcc/arm-elf/4.3.2/../../../../arm-elf/lib/interwork/libc.a(lib_a-memchr.o)
 .glue_7        0x00272b70        0x0 /usr/local/OAT/lib/gcc/arm-elf/4.3.2/../../../../arm-elf/lib/interwork/libc.a(lib_a-memmove.o)
 .glue_7        0x00272b70        0x0 /usr/local/OAT/lib/gcc/arm-elf/4.3.2/../../../../arm-elf/lib/interwork/libc.a(lib_a-mprec.o)
 .glue_7        0x00272b70        0x0 /usr/local/OAT/lib/gcc/arm-elf/4.3.2/../../../../arm-elf/lib/interwork/libc.a(lib_a-reent.o)
 .glue_7        0x00272b70        0x0 /usr/local/OAT/lib/gcc/arm-elf/4.3.2/../../../../arm-elf/lib/interwork/libc.a(lib_a-refill.o)
 .glue_7        0x00272b70        0x0 /usr/local/OAT/lib/gcc/arm-elf/4.3.2/../../../../arm-elf/lib/interwork/libc.a(lib_a-s_isinfd.o)
 .glue_7        0x00272b70        0x0 /usr/local/OAT/lib/gcc/arm-elf/4.3.2/../../../../arm-elf/lib/interwork/libc.a(lib_a-sccl.o)
 .glue_7        0x00272b70        0x0 /usr/local/OAT/lib/gcc/arm-elf/4.3.2/../../../../arm-elf/lib/interwork/libc.a(lib_a-sf_nan.o)
 .glue_7        0x00272b70        0x0 /usr/local/OAT/lib/gcc/arm-elf/4.3.2/../../../../arm-elf/lib/interwork/libc.a(lib_a-stdio.o)
 .glue_7        0x00272b70        0x0 /usr/local/OAT/lib/gcc/arm-elf/4.3.2/../../../../arm-elf/lib/interwork/libc.a(lib_a-strtod.o)
 .glue_7        0x00272b70        0x0 /usr/local/OAT/lib/gcc/arm-elf/4.3.2/../../../../arm-elf/lib/interwork/libc.a(lib_a-strtoul.o)
 .glue_7        0x00272b70        0x0 /usr/local/OAT/lib/gcc/arm-elf/4.3.2/../../../../arm-elf/lib/interwork/libc.a(lib_a-ungetc.o)
 .glue_7        0x00272b70        0x0 /usr/local/OAT/lib/gcc/arm-elf/4.3.2/../../../../arm-elf/lib/interwork/libc.a(lib_a-writer.o)
 .glue_7        0x00272b70        0x0 /usr/local/OAT/lib/gcc/arm-elf/4.3.2/../../../../arm-elf/lib/interwork/libc.a(lib_a-callocr.o)
 .glue_7        0x00272b70        0x0 /usr/local/OAT/lib/gcc/arm-elf/4.3.2/../../../../arm-elf/lib/interwork/libc.a(lib_a-closer.o)
 .glue_7        0x00272b70        0x0 /usr/local/OAT/lib/gcc/arm-elf/4.3.2/../../../../arm-elf/lib/interwork/libc.a(lib_a-fclose.o)
 .glue_7        0x00272b70        0x0 /usr/local/OAT/lib/gcc/arm-elf/4.3.2/../../../../arm-elf/lib/interwork/libc.a(lib_a-fstatr.o)
 .glue_7        0x00272b70        0x0 /usr/local/OAT/lib/gcc/arm-elf/4.3.2/../../../../arm-elf/lib/interwork/libc.a(lib_a-gdtoa-gethex.o)
 .glue_7        0x00272b70        0x0 /usr/local/OAT/lib/gcc/arm-elf/4.3.2/../../../../arm-elf/lib/interwork/libc.a(lib_a-gdtoa-hexnan.o)
 .glue_7        0x00272b70        0x0 /usr/local/OAT/lib/gcc/arm-elf/4.3.2/../../../../arm-elf/lib/interwork/libc.a(lib_a-lseekr.o)
 .glue_7        0x00272b70        0x0 /usr/local/OAT/lib/gcc/arm-elf/4.3.2/../../../../arm-elf/lib/interwork/libc.a(lib_a-readr.o)
 .glue_7        0x00272b70      0x3e4 /usr/local/OAT/lib/gcc/arm-elf/4.3.2/interwork/libgcc.a(_truncdfsf2.o)
                0x00272d44                __adl_extintSubscribe_from_arm
                0x00272d98                __adl_adInstall_from_arm
                0x00272f0c                __adl_gprsSubscribe_from_arm
                0x00272b94                __adl_rtcGetTime_from_arm
                0x00272db0                __adl_adSubscribe_from_arm
                0x00272dec                __adl_simSubscribe_from_arm
                0x00272e64                __adl_busWrite_from_arm
                0x00272df8                __adl_atUnSoSubscribe_from_arm
                0x00272d8c                __adl_adFinalise_from_arm
                0x00272ed0                __wip_bearerOpen_from_arm
                0x00272d80                __wm_strGetParameterString_from_arm
                0x00272e1c                __adl_simUnsubscribe_from_arm
                0x00272d08                __adl_msgSubscribe_from_arm
                0x00272f30                __adl_smsSubscribe_from_arm
                0x00272cf0                __wm_hexatoi_from_arm
                0x00272f18                __wip_netInit_from_arm
                0x00272ca8                __wip_closeAndClear_from_arm
                0x00272ef4                __wip_bearerClose_from_arm
                0x00272bb8                __adl_trcPrint_from_arm
                0x00272c90                __wip_setOpts_from_arm
                0x00272c30                __wm_itohexa_from_arm
                0x00272c18                __adl_flhSubscribe_from_arm
                0x00272e94                ___adl_memRelease_from_arm
                0x00272c60                __wip_debug_from_arm
                0x00272e04                __wip_netInitOpts_from_arm
                0x00272c24                __adl_atSendResponse_from_arm
                0x00272da4                __adl_adWrite_from_arm
                0x00272e58                __adl_semProduce_from_arm
                0x00272ba0                __adl_rtcConvertTime_from_arm
                0x00272c3c                __adl_rtcSetTime_from_arm
                0x00272d2c                __adl_extintGetCapabilities_from_arm
                0x00272f48                __adl_errHalt_from_arm
                0x00272bd0                __adl_tmrSubscribe_from_arm
                0x00272e70                __adl_busUnsubscribe_from_arm
                0x00272d20                __adl_msgSend_from_arm
                0x00272dbc                __adl_adRecompact_from_arm
                0x00272f24                __wip_readOpts_from_arm
                0x00272dc8                __adl_adEventSubscribe_from_arm
                0x00272cfc                __adl_atCmdCreate_from_arm
                0x00272ce4                __adl_fcmSwitchV24State_from_arm
                0x00272cd8                __adl_fcmUnsubscribe_from_arm
                0x00272edc                __wip_bearerSetOpts_from_arm
                0x00272e10                __adl_wdActiveAppWd_from_arm
                0x00272cc0                __adl_atCmdSubscribe_from_arm
                0x00272b70                __adl_ioSubscribe_from_arm
                0x00272b88                __adl_ioReadSingle_from_arm
                0x00272bc4                __adl_tmrUnSubscribe_from_arm
                0x00272c84                __adl_ctxSleep_from_arm
                0x00272cb4                __wm_lstGetItem_from_arm
                0x00272e88                __adl_memGet_from_arm
                0x00272b7c                __adl_ioWriteSingle_from_arm
                0x00272e7c                __adl_busSubscribe_from_arm
                0x00272bac                __adl_rtcDiffTime_from_arm
                0x00272ccc                __adl_fcmSubscribe_from_arm
                0x00272e28                __adl_fcmIsAvailable_from_arm
                0x00272ec4                __wip_bearerGetOpts_from_arm
                0x00272c0c                __adl_flhExist_from_arm
                0x00272e34                __adl_busIOCtl_from_arm
                0x00272ea0                __wip_FTPCreateOpts_from_arm
                0x00272d74                __wip_inet_ntoa_from_arm
                0x00272f3c                __adl_smsUnsubscribe_from_arm
                0x00272eac                __wip_getFile_from_arm
                0x00272ee8                __wip_bearerStart_from_arm
                0x00272be8                __adl_flhErase_from_arm
                0x00272c54                __adl_fcmSendData_from_arm
                0x00272bdc                __adl_adcAnalogRead_from_arm
                0x00272eb8                __wip_writeOpts_from_arm
                0x00272d5c                __adl_ctxGetID_from_arm
                0x00272bf4                __adl_flhWrite_from_arm
                0x00272d38                __adl_irqSubscribe_from_arm
                0x00272c00                __adl_flhRead_from_arm
                0x00272c9c                __wip_read_from_arm
                0x00272e40                __adl_busRead_from_arm
                0x00272de0                __adl_InitGetType_from_arm
                0x00272d14                __adl_wdRearmAppWd_from_arm
                0x00272d68                __adl_smsSend_from_arm
                0x00272dd4                __adl_adFormat_from_arm
                0x00272f00                __wip_UDPCreateOpts_from_arm
                0x00272d50                __adl_extintRead_from_arm
                0x00272c6c                __wip_write_from_arm
                0x00272c48                __adl_rtcGetSecondFracPartStep_from_arm
                0x00272e4c                __adl_semIsConsumed_from_arm
                0x00272c78                __wip_TCPClientCreate_from_arm
 *(.ctors)
 *(.dtors)
 *(.jcr)
 *(.init)
 *(.fini)
                0x00272f54                PROVIDE (Image$$APP_RO$$Limit, .)
                0x00272f54                PROVIDE (Image$$RO$$Limit, .)
                0x00052ef0                PROVIDE (Image$$APP_RO$$Length, SIZEOF (.text))
                0x00052ef0                PROVIDE (Image$$ER_RO$$Length, SIZEOF (.text))
                0x00272f54                _etext = .

.vfp11_veneer   0x00272f54        0x0
 .vfp11_veneer  0x00272f54        0x0 src/gpioTest.o
 .vfp11_veneer  0x00272f54        0x0 src/adc.o
 .vfp11_veneer  0x00272f54        0x0 src/FlashTest.o
 .vfp11_veneer  0x00272f54        0x0 src/wyhook_HAL.o
 .vfp11_veneer  0x00272f54        0x0 src/XactUtilities.o
 .vfp11_veneer  0x00272f54        0x0 src/SimOperations.o
 .vfp11_veneer  0x00272f54        0x0 src/status.o
 .vfp11_veneer  0x00272f54        0x0 src/WaypointControl.o
 .vfp11_veneer  0x00272f54        0x0 src/alarm_suppress.o
 .vfp11_veneer  0x00272f54        0x0 src/GPSCtrl.o
 .vfp11_veneer  0x00272f54        0x0 src/anolclient.o
 .vfp11_veneer  0x00272f54        0x0 src/GpsInterface.o
 .vfp11_veneer  0x00272f54        0x0 src/LED.o
 .vfp11_veneer  0x00272f54        0x0 src/TempoCasesTask.o
 .vfp11_veneer  0x00272f54        0x0 src/PowerCtrl.o
 .vfp11_veneer  0x00272f54        0x0 src/i2c_accelerometer.o
 .vfp11_veneer  0x00272f54        0x0 src/wyhook_Application.o
 .vfp11_veneer  0x00272f54        0x0 src/fence.o
 .vfp11_veneer  0x00272f54        0x0 src/Accelerometer.o
 .vfp11_veneer  0x00272f54        0x0 src/ota_at.o
 .vfp11_veneer  0x00272f54        0x0 src/XactTests.o
 .vfp11_veneer  0x00272f54        0x0 src/wyhook_Message.o
 .vfp11_veneer  0x00272f54        0x0 src/ConfigSettings.o
 .vfp11_veneer  0x00272f54        0x0 src/InternalFlash.o
 .vfp11_veneer  0x00272f54        0x0 src/haversine.o
 .vfp11_veneer  0x00272f54        0x0 src/CallBackMethods.o
 .vfp11_veneer  0x00272f54        0x0 src/Timers.o
 .vfp11_veneer  0x00272f54        0x0 src/VibrationMotor.o
 .vfp11_veneer  0x00272f54        0x0 src/button.o
 .vfp11_veneer  0x00272f54        0x0 src/DOTAOperation.o
 .vfp11_veneer  0x00272f54        0x0 src/gpioconfig.o
 .vfp11_veneer  0x00272f54        0x0 src/adl_main.o
 .vfp11_veneer  0x00272f54        0x0 src/dogwalk.o
 .vfp11_veneer  0x00272f54        0x0 src/COMMR572.o
 .vfp11_veneer  0x00272f54        0x0 src/USB.o
 .vfp11_veneer  0x00272f54        0x0 src/i2c.o
 .vfp11_veneer  0x00272f54        0x0 src/ublox.o
 .vfp11_veneer  0x00272f54        0x0 src/GPRS.o
 .vfp11_veneer  0x00272f54        0x0 src/SMShandling.o
 .vfp11_veneer  0x00272f54        0x0 src/Traces.o
 .vfp11_veneer  0x00272f54        0x0 src/airplane_mode.o
 .vfp11_veneer  0x00272f54        0x0 src/CommandHandlerXACT.o
 .vfp11_veneer  0x00272f54        0x0 src/protocol.o
 .vfp11_veneer  0x00272f54        0x0 src/diagnose.o
 .vfp11_veneer  0x00272f54        0x0 flash_src/atmel_flashDriver.o
 .vfp11_veneer  0x00272f54        0x0 /usr/local/OAT/lib/gcc/arm-elf/4.3.2/../../../../arm-elf/lib/interwork/libm.a(lib_a-s_cos.o)
 .vfp11_veneer  0x00272f54        0x0 /usr/local/OAT/lib/gcc/arm-elf/4.3.2/../../../../arm-elf/lib/interwork/libm.a(lib_a-s_sin.o)
 .vfp11_veneer  0x00272f54        0x0 /usr/local/OAT/lib/gcc/arm-elf/4.3.2/../../../../arm-elf/lib/interwork/libm.a(lib_a-w_atan2.o)
 .vfp11_veneer  0x00272f54        0x0 /usr/local/OAT/lib/gcc/arm-elf/4.3.2/../../../../arm-elf/lib/interwork/libm.a(lib_a-w_sqrt.o)
 .vfp11_veneer  0x00272f54        0x0 /usr/local/OAT/lib/gcc/arm-elf/4.3.2/../../../../arm-elf/lib/interwork/libm.a(lib_a-e_atan2.o)
 .vfp11_veneer  0x00272f54        0x0 /usr/local/OAT/lib/gcc/arm-elf/4.3.2/../../../../arm-elf/lib/interwork/libm.a(lib_a-e_rem_pio2.o)
 .vfp11_veneer  0x00272f54        0x0 /usr/local/OAT/lib/gcc/arm-elf/4.3.2/../../../../arm-elf/lib/interwork/libm.a(lib_a-e_sqrt.o)
 .vfp11_veneer  0x00272f54        0x0 /usr/local/OAT/lib/gcc/arm-elf/4.3.2/../../../../arm-elf/lib/interwork/libm.a(lib_a-k_cos.o)
 .vfp11_veneer  0x00272f54        0x0 /usr/local/OAT/lib/gcc/arm-elf/4.3.2/../../../../arm-elf/lib/interwork/libm.a(lib_a-k_rem_pio2.o)
 .vfp11_veneer  0x00272f54        0x0 /usr/local/OAT/lib/gcc/arm-elf/4.3.2/../../../../arm-elf/lib/interwork/libm.a(lib_a-k_sin.o)
 .vfp11_veneer  0x00272f54        0x0 /usr/local/OAT/lib/gcc/arm-elf/4.3.2/../../../../arm-elf/lib/interwork/libm.a(lib_a-s_atan.o)
 .vfp11_veneer  0x00272f54        0x0 /usr/local/OAT/lib/gcc/arm-elf/4.3.2/../../../../arm-elf/lib/interwork/libm.a(lib_a-s_fabs.o)
 .vfp11_veneer  0x00272f54        0x0 /usr/local/OAT/lib/gcc/arm-elf/4.3.2/../../../../arm-elf/lib/interwork/libm.a(lib_a-s_floor.o)
 .vfp11_veneer  0x00272f54        0x0 /usr/local/OAT/lib/gcc/arm-elf/4.3.2/../../../../arm-elf/lib/interwork/libm.a(lib_a-s_isnand.o)
 .vfp11_veneer  0x00272f54        0x0 /usr/local/OAT/lib/gcc/arm-elf/4.3.2/../../../../arm-elf/lib/interwork/libm.a(lib_a-s_lib_ver.o)
 .vfp11_veneer  0x00272f54        0x0 /usr/local/OAT/lib/gcc/arm-elf/4.3.2/../../../../arm-elf/lib/interwork/libm.a(lib_a-s_matherr.o)
 .vfp11_veneer  0x00272f54        0x0 /usr/local/OAT/lib/gcc/arm-elf/4.3.2/../../../../arm-elf/lib/interwork/libm.a(lib_a-s_scalbn.o)
 .vfp11_veneer  0x00272f54        0x0 /usr/local/OAT/lib/gcc/arm-elf/4.3.2/../../../../arm-elf/lib/interwork/libm.a(lib_a-s_copysign.o)
 .vfp11_veneer  0x00272f54        0x0 mos_header.o
 .vfp11_veneer  0x00272f54        0x0 /cygdrive/c/OpenAT/OS/6.21.02/ADL/gcc_wmadl_6.21.02.0.0.lib(mos_ftr.o)
 .vfp11_veneer  0x00272f54        0x0 /cygdrive/c/OpenAT/OS/6.21.02/ADL/gcc_wmadl_6.21.02.0.0.lib(opec_lst.o)
 .vfp11_veneer  0x00272f54        0x0 /cygdrive/c/OpenAT/OS/6.21.02/ADL/gcc_wmadl_6.21.02.0.0.lib(opec_std.o)
 .vfp11_veneer  0x00272f54        0x0 /cygdrive/c/OpenAT/OS/6.21.02/ADL/gcc_wmadl_6.21.02.0.0.lib(adl_ad.o)
 .vfp11_veneer  0x00272f54        0x0 /cygdrive/c/OpenAT/OS/6.21.02/ADL/gcc_wmadl_6.21.02.0.0.lib(adl_adc.o)
 .vfp11_veneer  0x00272f54        0x0 /cygdrive/c/OpenAT/OS/6.21.02/ADL/gcc_wmadl_6.21.02.0.0.lib(adl_AppliInit.o)
 .vfp11_veneer  0x00272f54        0x0 /cygdrive/c/OpenAT/OS/6.21.02/ADL/gcc_wmadl_6.21.02.0.0.lib(adl_audio.o)
 .vfp11_veneer  0x00272f54        0x0 /cygdrive/c/OpenAT/OS/6.21.02/ADL/gcc_wmadl_6.21.02.0.0.lib(adl_bus.o)
 .vfp11_veneer  0x00272f54        0x0 /cygdrive/c/OpenAT/OS/6.21.02/ADL/gcc_wmadl_6.21.02.0.0.lib(adl_call.o)
 .vfp11_veneer  0x00272f54        0x0 /cygdrive/c/OpenAT/OS/6.21.02/ADL/gcc_wmadl_6.21.02.0.0.lib(adl_CmdHandler.o)
 .vfp11_veneer  0x00272f54        0x0 /cygdrive/c/OpenAT/OS/6.21.02/ADL/gcc_wmadl_6.21.02.0.0.lib(adl_CmdProcessor.o)
 .vfp11_veneer  0x00272f54        0x0 /cygdrive/c/OpenAT/OS/6.21.02/ADL/gcc_wmadl_6.21.02.0.0.lib(adl_CmdStackHandler.o)
 .vfp11_veneer  0x00272f54        0x0 /cygdrive/c/OpenAT/OS/6.21.02/ADL/gcc_wmadl_6.21.02.0.0.lib(adl_ctx.o)
 .vfp11_veneer  0x00272f54        0x0 /cygdrive/c/OpenAT/OS/6.21.02/ADL/gcc_wmadl_6.21.02.0.0.lib(adl_defaut_buildtime.o)
 .vfp11_veneer  0x00272f54        0x0 /cygdrive/c/OpenAT/OS/6.21.02/ADL/gcc_wmadl_6.21.02.0.0.lib(adl_defaut_extend.o)
 .vfp11_veneer  0x00272f54        0x0 /cygdrive/c/OpenAT/OS/6.21.02/ADL/gcc_wmadl_6.21.02.0.0.lib(adl_defaut_selist.o)
 .vfp11_veneer  0x00272f54        0x0 /cygdrive/c/OpenAT/OS/6.21.02/ADL/gcc_wmadl_6.21.02.0.0.lib(adl_defaut_timeslicing.o)
 .vfp11_veneer  0x00272f54        0x0 /cygdrive/c/OpenAT/OS/6.21.02/ADL/gcc_wmadl_6.21.02.0.0.lib(adl_error.o)
 .vfp11_veneer  0x00272f54        0x0 /cygdrive/c/OpenAT/OS/6.21.02/ADL/gcc_wmadl_6.21.02.0.0.lib(adl_EventMachine.o)
 .vfp11_veneer  0x00272f54        0x0 /cygdrive/c/OpenAT/OS/6.21.02/ADL/gcc_wmadl_6.21.02.0.0.lib(adl_extint.o)
 .vfp11_veneer  0x00272f54        0x0 /cygdrive/c/OpenAT/OS/6.21.02/ADL/gcc_wmadl_6.21.02.0.0.lib(adl_extint_deprecated.o)
 .vfp11_veneer  0x00272f54        0x0 /cygdrive/c/OpenAT/OS/6.21.02/ADL/gcc_wmadl_6.21.02.0.0.lib(adl_fcm.o)
 .vfp11_veneer  0x00272f54        0x0 /cygdrive/c/OpenAT/OS/6.21.02/ADL/gcc_wmadl_6.21.02.0.0.lib(adl_flash.o)
 .vfp11_veneer  0x00272f54        0x0 /cygdrive/c/OpenAT/OS/6.21.02/ADL/gcc_wmadl_6.21.02.0.0.lib(adl_gpio.o)
 .vfp11_veneer  0x00272f54        0x0 /cygdrive/c/OpenAT/OS/6.21.02/ADL/gcc_wmadl_6.21.02.0.0.lib(adl_gprs.o)
 .vfp11_veneer  0x00272f54        0x0 /cygdrive/c/OpenAT/OS/6.21.02/ADL/gcc_wmadl_6.21.02.0.0.lib(adl_irq.o)
 .vfp11_veneer  0x00272f54        0x0 /cygdrive/c/OpenAT/OS/6.21.02/ADL/gcc_wmadl_6.21.02.0.0.lib(adl_memory.o)
 .vfp11_veneer  0x00272f54        0x0 /cygdrive/c/OpenAT/OS/6.21.02/ADL/gcc_wmadl_6.21.02.0.0.lib(adl_msg.o)
 .vfp11_veneer  0x00272f54        0x0 /cygdrive/c/OpenAT/OS/6.21.02/ADL/gcc_wmadl_6.21.02.0.0.lib(adl_port.o)
 .vfp11_veneer  0x00272f54        0x0 /cygdrive/c/OpenAT/OS/6.21.02/ADL/gcc_wmadl_6.21.02.0.0.lib(adl_reg.o)
 .vfp11_veneer  0x00272f54        0x0 /cygdrive/c/OpenAT/OS/6.21.02/ADL/gcc_wmadl_6.21.02.0.0.lib(adl_RspHandler.o)
 .vfp11_veneer  0x00272f54        0x0 /cygdrive/c/OpenAT/OS/6.21.02/ADL/gcc_wmadl_6.21.02.0.0.lib(adl_rtc.o)
 .vfp11_veneer  0x00272f54        0x0 /cygdrive/c/OpenAT/OS/6.21.02/ADL/gcc_wmadl_6.21.02.0.0.lib(adl_sem.o)
 .vfp11_veneer  0x00272f54        0x0 /cygdrive/c/OpenAT/OS/6.21.02/ADL/gcc_wmadl_6.21.02.0.0.lib(adl_serv.o)
 .vfp11_veneer  0x00272f54        0x0 /cygdrive/c/OpenAT/OS/6.21.02/ADL/gcc_wmadl_6.21.02.0.0.lib(adl_sim.o)
 .vfp11_veneer  0x00272f54        0x0 /cygdrive/c/OpenAT/OS/6.21.02/ADL/gcc_wmadl_6.21.02.0.0.lib(adl_sms.o)
 .vfp11_veneer  0x00272f54        0x0 /cygdrive/c/OpenAT/OS/6.21.02/ADL/gcc_wmadl_6.21.02.0.0.lib(adl_str.o)
 .vfp11_veneer  0x00272f54        0x0 /cygdrive/c/OpenAT/OS/6.21.02/ADL/gcc_wmadl_6.21.02.0.0.lib(adl_TimerHandler.o)
 .vfp11_veneer  0x00272f54        0x0 /cygdrive/c/OpenAT/OS/6.21.02/ADL/gcc_wmadl_6.21.02.0.0.lib(adl_traces.o)
 .vfp11_veneer  0x00272f54        0x0 /cygdrive/c/OpenAT/OS/6.21.02/ADL/gcc_wmadl_6.21.02.0.0.lib(adl_UnSoHandler.o)
 .vfp11_veneer  0x00272f54        0x0 /cygdrive/c/OpenAT/OS/6.21.02/ADL/gcc_wmadl_6.21.02.0.0.lib(adl_wd.o)
 .vfp11_veneer  0x00272f54        0x0 /cygdrive/c/OpenAT/Plug-ins/WIP/5.10.2020/WIP/gcc_wmwip_5.10.2020.lib(br_close.o)
 .vfp11_veneer  0x00272f54        0x0 /cygdrive/c/OpenAT/Plug-ins/WIP/5.10.2020/WIP/gcc_wmwip_5.10.2020.lib(br_getopts.o)
 .vfp11_veneer  0x00272f54        0x0 /cygdrive/c/OpenAT/Plug-ins/WIP/5.10.2020/WIP/gcc_wmwip_5.10.2020.lib(br_mgr_init.o)
 .vfp11_veneer  0x00272f54        0x0 /cygdrive/c/OpenAT/Plug-ins/WIP/5.10.2020/WIP/gcc_wmwip_5.10.2020.lib(br_open.o)
 .vfp11_veneer  0x00272f54        0x0 /cygdrive/c/OpenAT/Plug-ins/WIP/5.10.2020/WIP/gcc_wmwip_5.10.2020.lib(br_setopts.o)
 .vfp11_veneer  0x00272f54        0x0 /cygdrive/c/OpenAT/Plug-ins/WIP/5.10.2020/WIP/gcc_wmwip_5.10.2020.lib(br_start.o)
 .vfp11_veneer  0x00272f54        0x0 /cygdrive/c/OpenAT/Plug-ins/WIP/5.10.2020/WIP/gcc_wmwip_5.10.2020.lib(br_v24.o)
 .vfp11_veneer  0x00272f54        0x0 /cygdrive/c/OpenAT/Plug-ins/WIP/5.10.2020/WIP/gcc_wmwip_5.10.2020.lib(ch_channel.o)
 .vfp11_veneer  0x00272f54        0x0 /cygdrive/c/OpenAT/Plug-ins/WIP/5.10.2020/WIP/gcc_wmwip_5.10.2020.lib(ch_tcp_client.o)
 .vfp11_veneer  0x00272f54        0x0 /cygdrive/c/OpenAT/Plug-ins/WIP/5.10.2020/WIP/gcc_wmwip_5.10.2020.lib(ch_udp.o)
 .vfp11_veneer  0x00272f54        0x0 /cygdrive/c/OpenAT/Plug-ins/WIP/5.10.2020/WIP/gcc_wmwip_5.10.2020.lib(file.o)
 .vfp11_veneer  0x00272f54        0x0 /cygdrive/c/OpenAT/Plug-ins/WIP/5.10.2020/WIP/gcc_wmwip_5.10.2020.lib(ftp.o)
 .vfp11_veneer  0x00272f54        0x0 /cygdrive/c/OpenAT/Plug-ins/WIP/5.10.2020/WIP/gcc_wmwip_5.10.2020.lib(ftp_evh.o)
 .vfp11_veneer  0x00272f54        0x0 /cygdrive/c/OpenAT/Plug-ins/WIP/5.10.2020/WIP/gcc_wmwip_5.10.2020.lib(ftp_list.o)
 .vfp11_veneer  0x00272f54        0x0 /cygdrive/c/OpenAT/Plug-ins/WIP/5.10.2020/WIP/gcc_wmwip_5.10.2020.lib(ftr.o)
 .vfp11_veneer  0x00272f54        0x0 /cygdrive/c/OpenAT/Plug-ins/WIP/5.10.2020/WIP/gcc_wmwip_5.10.2020.lib(in_aton.o)
 .vfp11_veneer  0x00272f54        0x0 /cygdrive/c/OpenAT/Plug-ins/WIP/5.10.2020/WIP/gcc_wmwip_5.10.2020.lib(in_ntoa.o)
 .vfp11_veneer  0x00272f54        0x0 /cygdrive/c/OpenAT/Plug-ins/WIP/5.10.2020/WIP/gcc_wmwip_5.10.2020.lib(list_plugin_unix.o)
 .vfp11_veneer  0x00272f54        0x0 /cygdrive/c/OpenAT/Plug-ins/WIP/5.10.2020/WIP/gcc_wmwip_5.10.2020.lib(net_debug.o)
 .vfp11_veneer  0x00272f54        0x0 /cygdrive/c/OpenAT/Plug-ins/WIP/5.10.2020/WIP/gcc_wmwip_5.10.2020.lib(net_init.o)
 .vfp11_veneer  0x00272f54        0x0 /cygdrive/c/OpenAT/Plug-ins/WIP/5.10.2020/WIP/gcc_wmwip_5.10.2020.lib(net_initopts.o)
 .vfp11_veneer  0x00272f54        0x0 /cygdrive/c/OpenAT/Plug-ins/WIP/5.10.2020/WIP/gcc_wmwip_5.10.2020.lib(net_setopts.o)
 .vfp11_veneer  0x00272f54        0x0 /cygdrive/c/OpenAT/Plug-ins/WIP/5.10.2020/WIP/gcc_wmwip_5.10.2020.lib(net_sync.o)
 .vfp11_veneer  0x00272f54        0x0 /cygdrive/c/OpenAT/Plug-ins/WIP/5.10.2020/WIP/gcc_wmwip_5.10.2020.lib(queue.o)
 .vfp11_veneer  0x00272f54        0x0 /cygdrive/c/OpenAT/Plug-ins/WIP/5.10.2020/WIP/gcc_wmwip_5.10.2020.lib(readline.o)
 .vfp11_veneer  0x00272f54        0x0 /cygdrive/c/OpenAT/Plug-ins/WIP/5.10.2020/WIP/gcc_wmwip_5.10.2020.lib(wip_subLevelOpts.o)
 .vfp11_veneer  0x00272f54        0x0 /cygdrive/c/OpenAT/Plug-ins/WIP/5.10.2020/WIP/gcc_wmwip_5.10.2020.lib(wrapper.o)
 .vfp11_veneer  0x00272f54        0x0 /cygdrive/c/OpenAT/Plug-ins/WIP/5.10.2020/WIP/gcc_wmwip_5.10.2020.lib(wm_net_hton.o)
 .vfp11_veneer  0x00272f54        0x0 /cygdrive/c/OpenAT/Plug-ins/WIP/5.10.2020/WIP/gcc_wmwip_5.10.2020.lib(wm_net_in_aton.o)
 .vfp11_veneer  0x00272f54        0x0 /cygdrive/c/OpenAT/Plug-ins/WIP/5.10.2020/WIP/gcc_wmwip_5.10.2020.lib(wm_net_in_ntoa.o)
 .vfp11_veneer  0x00272f54        0x0 /cygdrive/c/OpenAT/Plug-ins/WIP/5.10.2020/WIP/gcc_wmwip_5.10.2020.lib(wm_net_wrapper.o)
 .vfp11_veneer  0x00272f54        0x0 /cygdrive/c/OpenAT/Plug-ins/WIP/5.10.2020/WIP/gcc_wmwip_5.10.2020.lib(rawprint.o)
 .vfp11_veneer  0x00272f54        0x0 /cygdrive/c/OpenAT/Plug-ins/WIP/5.10.2020/WIP/gcc_wmwip_5.10.2020.lib(br_eth.o)
 .vfp11_veneer  0x00272f54        0x0 /cygdrive/c/OpenAT/Plug-ins/WIP/5.10.2020/WIP/gcc_wmwip_5.10.2020.lib(br_gen_close.o)
 .vfp11_veneer  0x00272f54        0x0 /cygdrive/c/OpenAT/Plug-ins/WIP/5.10.2020/WIP/gcc_wmwip_5.10.2020.lib(br_gen_getopt.o)
 .vfp11_veneer  0x00272f54        0x0 /cygdrive/c/OpenAT/Plug-ins/WIP/5.10.2020/WIP/gcc_wmwip_5.10.2020.lib(br_gen_setopt.o)
 .vfp11_veneer  0x00272f54        0x0 /cygdrive/c/OpenAT/Plug-ins/WIP/5.10.2020/WIP/gcc_wmwip_5.10.2020.lib(br_gen_stop.o)
 .vfp11_veneer  0x00272f54        0x0 /cygdrive/c/OpenAT/Plug-ins/WIP/5.10.2020/WIP/gcc_wmwip_5.10.2020.lib(br_gprs.o)
 .vfp11_veneer  0x00272f54        0x0 /cygdrive/c/OpenAT/Plug-ins/WIP/5.10.2020/WIP/gcc_wmwip_5.10.2020.lib(br_gsm.o)
 .vfp11_veneer  0x00272f54        0x0 /cygdrive/c/OpenAT/Plug-ins/WIP/5.10.2020/WIP/gcc_wmwip_5.10.2020.lib(br_mgr_debug.o)
 .vfp11_veneer  0x00272f54        0x0 /cygdrive/c/OpenAT/Plug-ins/WIP/5.10.2020/WIP/gcc_wmwip_5.10.2020.lib(br_ppp_getopt.o)
 .vfp11_veneer  0x00272f54        0x0 /cygdrive/c/OpenAT/Plug-ins/WIP/5.10.2020/WIP/gcc_wmwip_5.10.2020.lib(br_ppp_init.o)
 .vfp11_veneer  0x00272f54        0x0 /cygdrive/c/OpenAT/Plug-ins/WIP/5.10.2020/WIP/gcc_wmwip_5.10.2020.lib(br_ppp_setopt.o)
 .vfp11_veneer  0x00272f54        0x0 /cygdrive/c/OpenAT/Plug-ins/WIP/5.10.2020/WIP/gcc_wmwip_5.10.2020.lib(br_ppp_start.o)
 .vfp11_veneer  0x00272f54        0x0 /cygdrive/c/OpenAT/Plug-ins/WIP/5.10.2020/WIP/gcc_wmwip_5.10.2020.lib(br_ppp_stop.o)
 .vfp11_veneer  0x00272f54        0x0 /cygdrive/c/OpenAT/Plug-ins/WIP/5.10.2020/WIP/gcc_wmwip_5.10.2020.lib(ch_class.o)
 .vfp11_veneer  0x00272f54        0x0 /cygdrive/c/OpenAT/Plug-ins/WIP/5.10.2020/WIP/gcc_wmwip_5.10.2020.lib(ch_tcp_server.o)
 .vfp11_veneer  0x00272f54        0x0 /usr/local/OAT/lib/gcc/arm-elf/4.3.2/interwork/libgcc.a(_udivsi3.o)
 .vfp11_veneer  0x00272f54        0x0 /usr/local/OAT/lib/gcc/arm-elf/4.3.2/interwork/libgcc.a(_divsi3.o)
 .vfp11_veneer  0x00272f54        0x0 /usr/local/OAT/lib/gcc/arm-elf/4.3.2/interwork/libgcc.a(_umodsi3.o)
 .vfp11_veneer  0x00272f54        0x0 /usr/local/OAT/lib/gcc/arm-elf/4.3.2/interwork/libgcc.a(_dvmd_tls.o)
 .vfp11_veneer  0x00272f54        0x0 /usr/local/OAT/lib/gcc/arm-elf/4.3.2/interwork/libgcc.a(_addsubdf3.o)
 .vfp11_veneer  0x00272f54        0x0 /usr/local/OAT/lib/gcc/arm-elf/4.3.2/interwork/libgcc.a(_muldivdf3.o)
 .vfp11_veneer  0x00272f54        0x0 /usr/local/OAT/lib/gcc/arm-elf/4.3.2/interwork/libgcc.a(_cmpdf2.o)
 .vfp11_veneer  0x00272f54        0x0 /usr/local/OAT/lib/gcc/arm-elf/4.3.2/interwork/libgcc.a(_fixdfsi.o)
 .vfp11_veneer  0x00272f54        0x0 /usr/local/OAT/lib/gcc/arm-elf/4.3.2/interwork/libgcc.a(_fixunsdfsi.o)
 .vfp11_veneer  0x00272f54        0x0 /usr/local/OAT/lib/gcc/arm-elf/4.3.2/interwork/libgcc.a(_addsubsf3.o)
 .vfp11_veneer  0x00272f54        0x0 /usr/local/OAT/lib/gcc/arm-elf/4.3.2/interwork/libgcc.a(_muldivsf3.o)
 .vfp11_veneer  0x00272f54        0x0 /usr/local/OAT/lib/gcc/arm-elf/4.3.2/interwork/libgcc.a(_cmpsf2.o)
 .vfp11_veneer  0x00272f54        0x0 /usr/local/OAT/lib/gcc/arm-elf/4.3.2/interwork/libgcc.a(_fixunssfsi.o)
 .vfp11_veneer  0x00272f54        0x0 /usr/local/OAT/lib/gcc/arm-elf/4.3.2/../../../../arm-elf/lib/interwork/libc.a(lib_a-asprintf.o)
 .vfp11_veneer  0x00272f54        0x0 /usr/local/OAT/lib/gcc/arm-elf/4.3.2/../../../../arm-elf/lib/interwork/libc.a(lib_a-atoi.o)
 .vfp11_veneer  0x00272f54        0x0 /usr/local/OAT/lib/gcc/arm-elf/4.3.2/../../../../arm-elf/lib/interwork/libc.a(lib_a-ctype_.o)
 .vfp11_veneer  0x00272f54        0x0 /usr/local/OAT/lib/gcc/arm-elf/4.3.2/../../../../arm-elf/lib/interwork/libc.a(lib_a-errno.o)
 .vfp11_veneer  0x00272f54        0x0 /usr/local/OAT/lib/gcc/arm-elf/4.3.2/../../../../arm-elf/lib/interwork/libc.a(lib_a-impure.o)
 .vfp11_veneer  0x00272f54        0x0 /usr/local/OAT/lib/gcc/arm-elf/4.3.2/../../../../arm-elf/lib/interwork/libc.a(lib_a-locale.o)
 .vfp11_veneer  0x00272f54        0x0 /usr/local/OAT/lib/gcc/arm-elf/4.3.2/../../../../arm-elf/lib/interwork/libc.a(lib_a-malloc.o)
 .vfp11_veneer  0x00272f54        0x0 /usr/local/OAT/lib/gcc/arm-elf/4.3.2/../../../../arm-elf/lib/interwork/libc.a(lib_a-mallocr.o)
 .vfp11_veneer  0x00272f54        0x0 /usr/local/OAT/lib/gcc/arm-elf/4.3.2/../../../../arm-elf/lib/interwork/libc.a(lib_a-memcmp.o)
 .vfp11_veneer  0x00272f54        0x0 /usr/local/OAT/lib/gcc/arm-elf/4.3.2/../../../../arm-elf/lib/interwork/libc.a(lib_a-memcpy.o)
 .vfp11_veneer  0x00272f54        0x0 /usr/local/OAT/lib/gcc/arm-elf/4.3.2/../../../../arm-elf/lib/interwork/libc.a(lib_a-memset.o)
 .vfp11_veneer  0x00272f54        0x0 /usr/local/OAT/lib/gcc/arm-elf/4.3.2/../../../../arm-elf/lib/interwork/libc.a(lib_a-mlock.o)
 .vfp11_veneer  0x00272f54        0x0 /usr/local/OAT/lib/gcc/arm-elf/4.3.2/../../../../arm-elf/lib/interwork/libc.a(lib_a-printf.o)
 .vfp11_veneer  0x00272f54        0x0 /usr/local/OAT/lib/gcc/arm-elf/4.3.2/../../../../arm-elf/lib/interwork/libc.a(lib_a-realloc.o)
 .vfp11_veneer  0x00272f54        0x0 /usr/local/OAT/lib/gcc/arm-elf/4.3.2/../../../../arm-elf/lib/interwork/libc.a(lib_a-reallocr.o)
 .vfp11_veneer  0x00272f54        0x0 /usr/local/OAT/lib/gcc/arm-elf/4.3.2/../../../../arm-elf/lib/interwork/libc.a(lib_a-sbrkr.o)
 .vfp11_veneer  0x00272f54        0x0 /usr/local/OAT/lib/gcc/arm-elf/4.3.2/../../../../arm-elf/lib/interwork/libc.a(lib_a-sprintf.o)
 .vfp11_veneer  0x00272f54        0x0 /usr/local/OAT/lib/gcc/arm-elf/4.3.2/../../../../arm-elf/lib/interwork/libc.a(lib_a-sscanf.o)
 .vfp11_veneer  0x00272f54        0x0 /usr/local/OAT/lib/gcc/arm-elf/4.3.2/../../../../arm-elf/lib/interwork/libc.a(lib_a-strcat.o)
 .vfp11_veneer  0x00272f54        0x0 /usr/local/OAT/lib/gcc/arm-elf/4.3.2/../../../../arm-elf/lib/interwork/libc.a(lib_a-strchr.o)
 .vfp11_veneer  0x00272f54        0x0 /usr/local/OAT/lib/gcc/arm-elf/4.3.2/../../../../arm-elf/lib/interwork/libc.a(lib_a-strcmp.o)
 .vfp11_veneer  0x00272f54        0x0 /usr/local/OAT/lib/gcc/arm-elf/4.3.2/../../../../arm-elf/lib/interwork/libc.a(lib_a-strcpy.o)
 .vfp11_veneer  0x00272f54        0x0 /usr/local/OAT/lib/gcc/arm-elf/4.3.2/../../../../arm-elf/lib/interwork/libc.a(lib_a-strdup.o)
 .vfp11_veneer  0x00272f54        0x0 /usr/local/OAT/lib/gcc/arm-elf/4.3.2/../../../../arm-elf/lib/interwork/libc.a(lib_a-strdup_r.o)
 .vfp11_veneer  0x00272f54        0x0 /usr/local/OAT/lib/gcc/arm-elf/4.3.2/../../../../arm-elf/lib/interwork/libc.a(lib_a-strlen.o)
 .vfp11_veneer  0x00272f54        0x0 /usr/local/OAT/lib/gcc/arm-elf/4.3.2/../../../../arm-elf/lib/interwork/libc.a(lib_a-strncat.o)
 .vfp11_veneer  0x00272f54        0x0 /usr/local/OAT/lib/gcc/arm-elf/4.3.2/../../../../arm-elf/lib/interwork/libc.a(lib_a-strncmp.o)
 .vfp11_veneer  0x00272f54        0x0 /usr/local/OAT/lib/gcc/arm-elf/4.3.2/../../../../arm-elf/lib/interwork/libc.a(lib_a-strncpy.o)
 .vfp11_veneer  0x00272f54        0x0 /usr/local/OAT/lib/gcc/arm-elf/4.3.2/../../../../arm-elf/lib/interwork/libc.a(lib_a-strsep.o)
 .vfp11_veneer  0x00272f54        0x0 /usr/local/OAT/lib/gcc/arm-elf/4.3.2/../../../../arm-elf/lib/interwork/libc.a(lib_a-strstr.o)
 .vfp11_veneer  0x00272f54        0x0 /usr/local/OAT/lib/gcc/arm-elf/4.3.2/../../../../arm-elf/lib/interwork/libc.a(lib_a-strtok.o)
 .vfp11_veneer  0x00272f54        0x0 /usr/local/OAT/lib/gcc/arm-elf/4.3.2/../../../../arm-elf/lib/interwork/libc.a(lib_a-strtok_r.o)
 .vfp11_veneer  0x00272f54        0x0 /usr/local/OAT/lib/gcc/arm-elf/4.3.2/../../../../arm-elf/lib/interwork/libc.a(lib_a-strtol.o)
 .vfp11_veneer  0x00272f54        0x0 /usr/local/OAT/lib/gcc/arm-elf/4.3.2/../../../../arm-elf/lib/interwork/libc.a(lib_a-syscalls.o)
 .vfp11_veneer  0x00272f54        0x0 /usr/local/OAT/lib/gcc/arm-elf/4.3.2/../../../../arm-elf/lib/interwork/libc.a(lib_a-syswrite.o)
 .vfp11_veneer  0x00272f54        0x0 /usr/local/OAT/lib/gcc/arm-elf/4.3.2/../../../../arm-elf/lib/interwork/libc.a(lib_a-vasprintf.o)
 .vfp11_veneer  0x00272f54        0x0 /usr/local/OAT/lib/gcc/arm-elf/4.3.2/../../../../arm-elf/lib/interwork/libc.a(lib_a-vfprintf.o)
 .vfp11_veneer  0x00272f54        0x0 /usr/local/OAT/lib/gcc/arm-elf/4.3.2/../../../../arm-elf/lib/interwork/libc.a(lib_a-vfscanf.o)
 .vfp11_veneer  0x00272f54        0x0 /usr/local/OAT/lib/gcc/arm-elf/4.3.2/../../../../arm-elf/lib/interwork/libc.a(lib_a-vsprintf.o)
 .vfp11_veneer  0x00272f54        0x0 /usr/local/OAT/lib/gcc/arm-elf/4.3.2/../../../../arm-elf/lib/interwork/libc.a(lib_a-wsetup.o)
 .vfp11_veneer  0x00272f54        0x0 /usr/local/OAT/lib/gcc/arm-elf/4.3.2/../../../../arm-elf/lib/interwork/libc.a(lib_a-OAT_close.o)
 .vfp11_veneer  0x00272f54        0x0 /usr/local/OAT/lib/gcc/arm-elf/4.3.2/../../../../arm-elf/lib/interwork/libc.a(lib_a-OAT_fstat.o)
 .vfp11_veneer  0x00272f54        0x0 /usr/local/OAT/lib/gcc/arm-elf/4.3.2/../../../../arm-elf/lib/interwork/libc.a(lib_a-OAT_isatty.o)
 .vfp11_veneer  0x00272f54        0x0 /usr/local/OAT/lib/gcc/arm-elf/4.3.2/../../../../arm-elf/lib/interwork/libc.a(lib_a-OAT_kill.o)
 .vfp11_veneer  0x00272f54        0x0 /usr/local/OAT/lib/gcc/arm-elf/4.3.2/../../../../arm-elf/lib/interwork/libc.a(lib_a-OAT_lseek.o)
 .vfp11_veneer  0x00272f54        0x0 /usr/local/OAT/lib/gcc/arm-elf/4.3.2/../../../../arm-elf/lib/interwork/libc.a(lib_a-OAT_open.o)
 .vfp11_veneer  0x00272f54        0x0 /usr/local/OAT/lib/gcc/arm-elf/4.3.2/../../../../arm-elf/lib/interwork/libc.a(lib_a-OAT_read.o)
 .vfp11_veneer  0x00272f54        0x0 /usr/local/OAT/lib/gcc/arm-elf/4.3.2/../../../../arm-elf/lib/interwork/libc.a(lib_a-OAT_write.o)
 .vfp11_veneer  0x00272f54        0x0 /usr/local/OAT/lib/gcc/arm-elf/4.3.2/../../../../arm-elf/lib/interwork/libc.a(lib_a-dtoa.o)
 .vfp11_veneer  0x00272f54        0x0 /usr/local/OAT/lib/gcc/arm-elf/4.3.2/../../../../arm-elf/lib/interwork/libc.a(lib_a-fflush.o)
 .vfp11_veneer  0x00272f54        0x0 /usr/local/OAT/lib/gcc/arm-elf/4.3.2/../../../../arm-elf/lib/interwork/libc.a(lib_a-findfp.o)
 .vfp11_veneer  0x00272f54        0x0 /usr/local/OAT/lib/gcc/arm-elf/4.3.2/../../../../arm-elf/lib/interwork/libc.a(lib_a-fread.o)
 .vfp11_veneer  0x00272f54        0x0 /usr/local/OAT/lib/gcc/arm-elf/4.3.2/../../../../arm-elf/lib/interwork/libc.a(lib_a-freer.o)
 .vfp11_veneer  0x00272f54        0x0 /usr/local/OAT/lib/gcc/arm-elf/4.3.2/../../../../arm-elf/lib/interwork/libc.a(lib_a-fvwrite.o)
 .vfp11_veneer  0x00272f54        0x0 /usr/local/OAT/lib/gcc/arm-elf/4.3.2/../../../../arm-elf/lib/interwork/libc.a(lib_a-fwalk.o)
 .vfp11_veneer  0x00272f54        0x0 /usr/local/OAT/lib/gcc/arm-elf/4.3.2/../../../../arm-elf/lib/interwork/libc.a(lib_a-iswspace.o)
 .vfp11_veneer  0x00272f54        0x0 /usr/local/OAT/lib/gcc/arm-elf/4.3.2/../../../../arm-elf/lib/interwork/libc.a(lib_a-makebuf.o)
 .vfp11_veneer  0x00272f54        0x0 /usr/local/OAT/lib/gcc/arm-elf/4.3.2/../../../../arm-elf/lib/interwork/libc.a(lib_a-mbrtowc.o)
 .vfp11_veneer  0x00272f54        0x0 /usr/local/OAT/lib/gcc/arm-elf/4.3.2/../../../../arm-elf/lib/interwork/libc.a(lib_a-mbtowc_r.o)
 .vfp11_veneer  0x00272f54        0x0 /usr/local/OAT/lib/gcc/arm-elf/4.3.2/../../../../arm-elf/lib/interwork/libc.a(lib_a-memchr.o)
 .vfp11_veneer  0x00272f54        0x0 /usr/local/OAT/lib/gcc/arm-elf/4.3.2/../../../../arm-elf/lib/interwork/libc.a(lib_a-memmove.o)
 .vfp11_veneer  0x00272f54        0x0 /usr/local/OAT/lib/gcc/arm-elf/4.3.2/../../../../arm-elf/lib/interwork/libc.a(lib_a-mprec.o)
 .vfp11_veneer  0x00272f54        0x0 /usr/local/OAT/lib/gcc/arm-elf/4.3.2/../../../../arm-elf/lib/interwork/libc.a(lib_a-reent.o)
 .vfp11_veneer  0x00272f54        0x0 /usr/local/OAT/lib/gcc/arm-elf/4.3.2/../../../../arm-elf/lib/interwork/libc.a(lib_a-refill.o)
 .vfp11_veneer  0x00272f54        0x0 /usr/local/OAT/lib/gcc/arm-elf/4.3.2/../../../../arm-elf/lib/interwork/libc.a(lib_a-s_isinfd.o)
 .vfp11_veneer  0x00272f54        0x0 /usr/local/OAT/lib/gcc/arm-elf/4.3.2/../../../../arm-elf/lib/interwork/libc.a(lib_a-sccl.o)
 .vfp11_veneer  0x00272f54        0x0 /usr/local/OAT/lib/gcc/arm-elf/4.3.2/../../../../arm-elf/lib/interwork/libc.a(lib_a-sf_nan.o)
 .vfp11_veneer  0x00272f54        0x0 /usr/local/OAT/lib/gcc/arm-elf/4.3.2/../../../../arm-elf/lib/interwork/libc.a(lib_a-stdio.o)
 .vfp11_veneer  0x00272f54        0x0 /usr/local/OAT/lib/gcc/arm-elf/4.3.2/../../../../arm-elf/lib/interwork/libc.a(lib_a-strtod.o)
 .vfp11_veneer  0x00272f54        0x0 /usr/local/OAT/lib/gcc/arm-elf/4.3.2/../../../../arm-elf/lib/interwork/libc.a(lib_a-strtoul.o)
 .vfp11_veneer  0x00272f54        0x0 /usr/local/OAT/lib/gcc/arm-elf/4.3.2/../../../../arm-elf/lib/interwork/libc.a(lib_a-ungetc.o)
 .vfp11_veneer  0x00272f54        0x0 /usr/local/OAT/lib/gcc/arm-elf/4.3.2/../../../../arm-elf/lib/interwork/libc.a(lib_a-writer.o)
 .vfp11_veneer  0x00272f54        0x0 /usr/local/OAT/lib/gcc/arm-elf/4.3.2/../../../../arm-elf/lib/interwork/libc.a(lib_a-callocr.o)
 .vfp11_veneer  0x00272f54        0x0 /usr/local/OAT/lib/gcc/arm-elf/4.3.2/../../../../arm-elf/lib/interwork/libc.a(lib_a-closer.o)
 .vfp11_veneer  0x00272f54        0x0 /usr/local/OAT/lib/gcc/arm-elf/4.3.2/../../../../arm-elf/lib/interwork/libc.a(lib_a-fclose.o)
 .vfp11_veneer  0x00272f54        0x0 /usr/local/OAT/lib/gcc/arm-elf/4.3.2/../../../../arm-elf/lib/interwork/libc.a(lib_a-fstatr.o)
 .vfp11_veneer  0x00272f54        0x0 /usr/local/OAT/lib/gcc/arm-elf/4.3.2/../../../../arm-elf/lib/interwork/libc.a(lib_a-gdtoa-gethex.o)
 .vfp11_veneer  0x00272f54        0x0 /usr/local/OAT/lib/gcc/arm-elf/4.3.2/../../../../arm-elf/lib/interwork/libc.a(lib_a-gdtoa-hexnan.o)
 .vfp11_veneer  0x00272f54        0x0 /usr/local/OAT/lib/gcc/arm-elf/4.3.2/../../../../arm-elf/lib/interwork/libc.a(lib_a-lseekr.o)
 .vfp11_veneer  0x00272f54        0x0 /usr/local/OAT/lib/gcc/arm-elf/4.3.2/../../../../arm-elf/lib/interwork/libc.a(lib_a-readr.o)
 .vfp11_veneer  0x00272f54        0x0 /usr/local/OAT/lib/gcc/arm-elf/4.3.2/interwork/libgcc.a(_truncdfsf2.o)

.data           0x180c0000      0xf44 load address 0x00272f54
                0x180c0000                PROVIDE (Image$$APP_DATA$$Base, .)
                0x180c0000                PROVIDE (Image$$RW$$Base, .)
 *(.data)
 .data          0x180c0000       0x1c src/gpioTest.o
 .data          0x180c001c        0x8 src/adc.o
                0x180c001c                g_EngineStatus
 .data          0x180c0024        0x0 src/FlashTest.o
 .data          0x180c0024       0x18 src/wyhook_HAL.o
                0x180c0030                wyhook_BoardName_1
                0x180c0024                wyhook_ClientName
                0x180c0038                wyhook_SoftwareVersion
                0x180c0034                wyhook_HardwareVersion
                0x180c002c                wyhook_BoardName_0
                0x180c0028                wyhook_ProjectName
 .data          0x180c003c        0x0 src/XactUtilities.o
 .data          0x180c003c        0x0 src/SimOperations.o
 .data          0x180c003c        0x0 src/status.o
 .data          0x180c003c        0x8 src/WaypointControl.o
 .data          0x180c0044        0x0 src/alarm_suppress.o
 .data          0x180c0044        0x2 src/GPSCtrl.o
 *fill*         0x180c0046        0x2 00
 .data          0x180c0048      0x1a4 src/anolclient.o
 .data          0x180c01ec       0x2c src/GpsInterface.o
                0x180c01ec                NNMEAGGAString
                0x180c0204                NNMEAGSVString
                0x180c01fc                NNMEARMCString
                0x180c01f4                NNMEAVTGString
 .data          0x180c0218       0x1c src/LED.o
 .data          0x180c0234      0x1b4 src/TempoCasesTask.o
                0x180c0234                alert_bits_minutes
 .data          0x180c03e8        0x2 src/PowerCtrl.o
                0x180c03e8                TimedWakeupTrackingReq
 *fill*         0x180c03ea        0x2 00
 .data          0x180c03ec        0x8 src/i2c_accelerometer.o
                0x180c03ec                I2C_ACCEL_ADDR_STR
 .data          0x180c03f4        0x0 src/wyhook_Application.o
 .data          0x180c03f4        0x8 src/fence.o
 .data          0x180c03fc       0x10 src/Accelerometer.o
                0x180c03fc                cs_handle
                0x180c0408                AccelFastIdleReq
                0x180c0409                AccelTrackingReq
                0x180c0400                test_handle
                0x180c040a                AccelBreadCrumbTrackingReq
                0x180c0404                msgHandle
 .data          0x180c040c        0x0 src/ota_at.o
 .data          0x180c040c        0xc src/XactTests.o
 .data          0x180c0418        0x0 src/wyhook_Message.o
 .data          0x180c0418        0x0 src/ConfigSettings.o
 .data          0x180c0418        0x0 src/InternalFlash.o
 .data          0x180c0418        0x0 src/haversine.o
 .data          0x180c0418        0x0 src/CallBackMethods.o
 .data          0x180c0418        0x0 src/Timers.o
 .data          0x180c0418       0x10 src/VibrationMotor.o
                0x180c041c                MotorGPIOHandle
                0x180c0420                VibrateDone
                0x180c0418                VibrateFastIdleReq
 .data          0x180c0428        0x4 src/button.o
                0x180c0428                g_InputButtonHandle
 .data          0x180c042c        0x0 src/DOTAOperation.o
 .data          0x180c042c        0x0 src/gpioconfig.o
 .data          0x180c042c        0x0 src/adl_main.o
 .data          0x180c042c        0x0 src/dogwalk.o
 .data          0x180c042c       0x94 src/COMMR572.o
                0x180c042d                ETX
                0x180c042c                STX
                0x180c042e                ACK
                0x180c0430                commr572_cmnd
 .data          0x180c04c0        0x0 src/USB.o
 .data          0x180c04c0       0x30 src/i2c.o
                0x180c04d4                busMutex
                0x180c04c0                portSetting
                0x180c04dc                pendHandle
                0x180c04d8                i2cHandle
 .data          0x180c04f0       0x10 src/ublox.o
                0x180c04f0                GPS_CONFIG_STRING
 .data          0x180c0500        0x1 src/GPRS.o
 *fill*         0x180c0501        0x3 00
 .data          0x180c0504        0x8 src/SMShandling.o
 .data          0x180c050c        0x0 src/Traces.o
 .data          0x180c050c        0x0 src/airplane_mode.o
 .data          0x180c050c        0x0 src/CommandHandlerXACT.o
 .data          0x180c050c        0xc src/protocol.o
                0x180c0510                GPIO_5_Handle
                0x180c050c                PacketRXFastIdleReq
                0x180c050d                PREV_Mode
                0x180c0514                GPIO_7_Handle
 .data          0x180c0518        0xb src/diagnose.o
 .data          0x180c0523        0x0 flash_src/atmel_flashDriver.o
 .data          0x180c0523        0x0 /usr/local/OAT/lib/gcc/arm-elf/4.3.2/../../../../arm-elf/lib/interwork/libm.a(lib_a-s_cos.o)
 .data          0x180c0523        0x0 /usr/local/OAT/lib/gcc/arm-elf/4.3.2/../../../../arm-elf/lib/interwork/libm.a(lib_a-s_sin.o)
 .data          0x180c0523        0x0 /usr/local/OAT/lib/gcc/arm-elf/4.3.2/../../../../arm-elf/lib/interwork/libm.a(lib_a-w_atan2.o)
 .data          0x180c0523        0x0 /usr/local/OAT/lib/gcc/arm-elf/4.3.2/../../../../arm-elf/lib/interwork/libm.a(lib_a-w_sqrt.o)
 .data          0x180c0523        0x0 /usr/local/OAT/lib/gcc/arm-elf/4.3.2/../../../../arm-elf/lib/interwork/libm.a(lib_a-e_atan2.o)
 .data          0x180c0523        0x0 /usr/local/OAT/lib/gcc/arm-elf/4.3.2/../../../../arm-elf/lib/interwork/libm.a(lib_a-e_rem_pio2.o)
 .data          0x180c0523        0x0 /usr/local/OAT/lib/gcc/arm-elf/4.3.2/../../../../arm-elf/lib/interwork/libm.a(lib_a-e_sqrt.o)
 .data          0x180c0523        0x0 /usr/local/OAT/lib/gcc/arm-elf/4.3.2/../../../../arm-elf/lib/interwork/libm.a(lib_a-k_cos.o)
 .data          0x180c0523        0x0 /usr/local/OAT/lib/gcc/arm-elf/4.3.2/../../../../arm-elf/lib/interwork/libm.a(lib_a-k_rem_pio2.o)
 .data          0x180c0523        0x0 /usr/local/OAT/lib/gcc/arm-elf/4.3.2/../../../../arm-elf/lib/interwork/libm.a(lib_a-k_sin.o)
 .data          0x180c0523        0x0 /usr/local/OAT/lib/gcc/arm-elf/4.3.2/../../../../arm-elf/lib/interwork/libm.a(lib_a-s_atan.o)
 .data          0x180c0523        0x0 /usr/local/OAT/lib/gcc/arm-elf/4.3.2/../../../../arm-elf/lib/interwork/libm.a(lib_a-s_fabs.o)
 .data          0x180c0523        0x0 /usr/local/OAT/lib/gcc/arm-elf/4.3.2/../../../../arm-elf/lib/interwork/libm.a(lib_a-s_floor.o)
 .data          0x180c0523        0x0 /usr/local/OAT/lib/gcc/arm-elf/4.3.2/../../../../arm-elf/lib/interwork/libm.a(lib_a-s_isnand.o)
 *fill*         0x180c0523        0x1 00
 .data          0x180c0524        0x4 /usr/local/OAT/lib/gcc/arm-elf/4.3.2/../../../../arm-elf/lib/interwork/libm.a(lib_a-s_lib_ver.o)
                0x180c0524                __fdlib_version
 .data          0x180c0528        0x0 /usr/local/OAT/lib/gcc/arm-elf/4.3.2/../../../../arm-elf/lib/interwork/libm.a(lib_a-s_matherr.o)
 .data          0x180c0528        0x0 /usr/local/OAT/lib/gcc/arm-elf/4.3.2/../../../../arm-elf/lib/interwork/libm.a(lib_a-s_scalbn.o)
 .data          0x180c0528        0x0 /usr/local/OAT/lib/gcc/arm-elf/4.3.2/../../../../arm-elf/lib/interwork/libm.a(lib_a-s_copysign.o)
 .data          0x180c0528        0x0 mos_header.o
 .data          0x180c0528        0x0 /cygdrive/c/OpenAT/OS/6.21.02/ADL/gcc_wmadl_6.21.02.0.0.lib(mos_ftr.o)
 .data          0x180c0528        0x0 /cygdrive/c/OpenAT/OS/6.21.02/ADL/gcc_wmadl_6.21.02.0.0.lib(opec_lst.o)
 .data          0x180c0528        0x0 /cygdrive/c/OpenAT/OS/6.21.02/ADL/gcc_wmadl_6.21.02.0.0.lib(opec_std.o)
 .data          0x180c0528        0x1 /cygdrive/c/OpenAT/OS/6.21.02/ADL/gcc_wmadl_6.21.02.0.0.lib(adl_ad.o)
 .data          0x180c0529        0x0 /cygdrive/c/OpenAT/OS/6.21.02/ADL/gcc_wmadl_6.21.02.0.0.lib(adl_adc.o)
 .data          0x180c0529        0x0 /cygdrive/c/OpenAT/OS/6.21.02/ADL/gcc_wmadl_6.21.02.0.0.lib(adl_AppliInit.o)
 .data          0x180c0529        0x0 /cygdrive/c/OpenAT/OS/6.21.02/ADL/gcc_wmadl_6.21.02.0.0.lib(adl_audio.o)
 .data          0x180c0529        0x0 /cygdrive/c/OpenAT/OS/6.21.02/ADL/gcc_wmadl_6.21.02.0.0.lib(adl_bus.o)
 *fill*         0x180c0529        0x3 00
 .data          0x180c052c       0x14 /cygdrive/c/OpenAT/OS/6.21.02/ADL/gcc_wmadl_6.21.02.0.0.lib(adl_call.o)
                0x180c0530                _ADL_CALL_STR_ATH
                0x180c0534                _ADL_CALL_STR_ATA
                0x180c052c                _ADL_CALL_STR_ATD
 .data          0x180c0540        0x8 /cygdrive/c/OpenAT/OS/6.21.02/ADL/gcc_wmadl_6.21.02.0.0.lib(adl_CmdHandler.o)
                0x180c0540                ParaListFuncTbl
 .data          0x180c0548      0x15c /cygdrive/c/OpenAT/OS/6.21.02/ADL/gcc_wmadl_6.21.02.0.0.lib(adl_CmdProcessor.o)
                0x180c0550                adlint_cpCommandTable
                0x180c0548                adlint_cpFlashHandle2
                0x180c054c                adlint_cpFlashHandle
 .data          0x180c06a4        0x1 /cygdrive/c/OpenAT/OS/6.21.02/ADL/gcc_wmadl_6.21.02.0.0.lib(adl_CmdStackHandler.o)
 .data          0x180c06a5        0x0 /cygdrive/c/OpenAT/OS/6.21.02/ADL/gcc_wmadl_6.21.02.0.0.lib(adl_ctx.o)
 .data          0x180c06a5        0x0 /cygdrive/c/OpenAT/OS/6.21.02/ADL/gcc_wmadl_6.21.02.0.0.lib(adl_defaut_buildtime.o)
 .data          0x180c06a5        0x0 /cygdrive/c/OpenAT/OS/6.21.02/ADL/gcc_wmadl_6.21.02.0.0.lib(adl_defaut_extend.o)
 .data          0x180c06a5        0x0 /cygdrive/c/OpenAT/OS/6.21.02/ADL/gcc_wmadl_6.21.02.0.0.lib(adl_defaut_selist.o)
 .data          0x180c06a5        0x0 /cygdrive/c/OpenAT/OS/6.21.02/ADL/gcc_wmadl_6.21.02.0.0.lib(adl_defaut_timeslicing.o)
 *fill*         0x180c06a5        0x3 00
 .data          0x180c06a8        0x8 /cygdrive/c/OpenAT/OS/6.21.02/ADL/gcc_wmadl_6.21.02.0.0.lib(adl_error.o)
 .data          0x180c06b0        0x0 /cygdrive/c/OpenAT/OS/6.21.02/ADL/gcc_wmadl_6.21.02.0.0.lib(adl_EventMachine.o)
 .data          0x180c06b0        0x0 /cygdrive/c/OpenAT/OS/6.21.02/ADL/gcc_wmadl_6.21.02.0.0.lib(adl_extint.o)
 .data          0x180c06b0        0x0 /cygdrive/c/OpenAT/OS/6.21.02/ADL/gcc_wmadl_6.21.02.0.0.lib(adl_extint_deprecated.o)
 .data          0x180c06b0        0x0 /cygdrive/c/OpenAT/OS/6.21.02/ADL/gcc_wmadl_6.21.02.0.0.lib(adl_fcm.o)
 .data          0x180c06b0        0xc /cygdrive/c/OpenAT/OS/6.21.02/ADL/gcc_wmadl_6.21.02.0.0.lib(adl_flash.o)
 .data          0x180c06bc        0x0 /cygdrive/c/OpenAT/OS/6.21.02/ADL/gcc_wmadl_6.21.02.0.0.lib(adl_gpio.o)
 .data          0x180c06bc       0x14 /cygdrive/c/OpenAT/OS/6.21.02/ADL/gcc_wmadl_6.21.02.0.0.lib(adl_gprs.o)
 .data          0x180c06d0        0x0 /cygdrive/c/OpenAT/OS/6.21.02/ADL/gcc_wmadl_6.21.02.0.0.lib(adl_irq.o)
 .data          0x180c06d0        0x0 /cygdrive/c/OpenAT/OS/6.21.02/ADL/gcc_wmadl_6.21.02.0.0.lib(adl_memory.o)
 .data          0x180c06d0        0x0 /cygdrive/c/OpenAT/OS/6.21.02/ADL/gcc_wmadl_6.21.02.0.0.lib(adl_msg.o)
 .data          0x180c06d0        0x0 /cygdrive/c/OpenAT/OS/6.21.02/ADL/gcc_wmadl_6.21.02.0.0.lib(adl_port.o)
 .data          0x180c06d0        0x0 /cygdrive/c/OpenAT/OS/6.21.02/ADL/gcc_wmadl_6.21.02.0.0.lib(adl_reg.o)
 .data          0x180c06d0        0x1 /cygdrive/c/OpenAT/OS/6.21.02/ADL/gcc_wmadl_6.21.02.0.0.lib(adl_RspHandler.o)
 .data          0x180c06d1        0x0 /cygdrive/c/OpenAT/OS/6.21.02/ADL/gcc_wmadl_6.21.02.0.0.lib(adl_rtc.o)
 .data          0x180c06d1        0x0 /cygdrive/c/OpenAT/OS/6.21.02/ADL/gcc_wmadl_6.21.02.0.0.lib(adl_sem.o)
 .data          0x180c06d1        0x0 /cygdrive/c/OpenAT/OS/6.21.02/ADL/gcc_wmadl_6.21.02.0.0.lib(adl_serv.o)
 .data          0x180c06d1        0x2 /cygdrive/c/OpenAT/OS/6.21.02/ADL/gcc_wmadl_6.21.02.0.0.lib(adl_sim.o)
 *fill*         0x180c06d3        0x1 00
 .data          0x180c06d4       0x14 /cygdrive/c/OpenAT/OS/6.21.02/ADL/gcc_wmadl_6.21.02.0.0.lib(adl_sms.o)
                0x180c06d4                _ADL_SMS_STR_CMTI
 .data          0x180c06e8        0x0 /cygdrive/c/OpenAT/OS/6.21.02/ADL/gcc_wmadl_6.21.02.0.0.lib(adl_str.o)
 .data          0x180c06e8        0x0 /cygdrive/c/OpenAT/OS/6.21.02/ADL/gcc_wmadl_6.21.02.0.0.lib(adl_TimerHandler.o)
 .data          0x180c06e8        0x4 /cygdrive/c/OpenAT/OS/6.21.02/ADL/gcc_wmadl_6.21.02.0.0.lib(adl_traces.o)
 .data          0x180c06ec        0x0 /cygdrive/c/OpenAT/OS/6.21.02/ADL/gcc_wmadl_6.21.02.0.0.lib(adl_UnSoHandler.o)
 .data          0x180c06ec        0x0 /cygdrive/c/OpenAT/OS/6.21.02/ADL/gcc_wmadl_6.21.02.0.0.lib(adl_wd.o)
 .data          0x180c06ec        0x0 /cygdrive/c/OpenAT/Plug-ins/WIP/5.10.2020/WIP/gcc_wmwip_5.10.2020.lib(br_close.o)
 .data          0x180c06ec        0x0 /cygdrive/c/OpenAT/Plug-ins/WIP/5.10.2020/WIP/gcc_wmwip_5.10.2020.lib(br_getopts.o)
 .data          0x180c06ec        0x0 /cygdrive/c/OpenAT/Plug-ins/WIP/5.10.2020/WIP/gcc_wmwip_5.10.2020.lib(br_mgr_init.o)
 .data          0x180c06ec        0x0 /cygdrive/c/OpenAT/Plug-ins/WIP/5.10.2020/WIP/gcc_wmwip_5.10.2020.lib(br_open.o)
 .data          0x180c06ec        0x0 /cygdrive/c/OpenAT/Plug-ins/WIP/5.10.2020/WIP/gcc_wmwip_5.10.2020.lib(br_setopts.o)
 .data          0x180c06ec        0x0 /cygdrive/c/OpenAT/Plug-ins/WIP/5.10.2020/WIP/gcc_wmwip_5.10.2020.lib(br_start.o)
 .data          0x180c06ec        0x0 /cygdrive/c/OpenAT/Plug-ins/WIP/5.10.2020/WIP/gcc_wmwip_5.10.2020.lib(br_v24.o)
 .data          0x180c06ec        0x0 /cygdrive/c/OpenAT/Plug-ins/WIP/5.10.2020/WIP/gcc_wmwip_5.10.2020.lib(ch_channel.o)
 .data          0x180c06ec        0x0 /cygdrive/c/OpenAT/Plug-ins/WIP/5.10.2020/WIP/gcc_wmwip_5.10.2020.lib(ch_tcp_client.o)
 .data          0x180c06ec        0x0 /cygdrive/c/OpenAT/Plug-ins/WIP/5.10.2020/WIP/gcc_wmwip_5.10.2020.lib(ch_udp.o)
 .data          0x180c06ec        0x0 /cygdrive/c/OpenAT/Plug-ins/WIP/5.10.2020/WIP/gcc_wmwip_5.10.2020.lib(file.o)
 .data          0x180c06ec        0x0 /cygdrive/c/OpenAT/Plug-ins/WIP/5.10.2020/WIP/gcc_wmwip_5.10.2020.lib(ftp.o)
 .data          0x180c06ec        0x0 /cygdrive/c/OpenAT/Plug-ins/WIP/5.10.2020/WIP/gcc_wmwip_5.10.2020.lib(ftp_evh.o)
 .data          0x180c06ec        0x2 /cygdrive/c/OpenAT/Plug-ins/WIP/5.10.2020/WIP/gcc_wmwip_5.10.2020.lib(ftp_list.o)
 .data          0x180c06ee        0x0 /cygdrive/c/OpenAT/Plug-ins/WIP/5.10.2020/WIP/gcc_wmwip_5.10.2020.lib(ftr.o)
 .data          0x180c06ee        0x0 /cygdrive/c/OpenAT/Plug-ins/WIP/5.10.2020/WIP/gcc_wmwip_5.10.2020.lib(in_aton.o)
 .data          0x180c06ee        0x0 /cygdrive/c/OpenAT/Plug-ins/WIP/5.10.2020/WIP/gcc_wmwip_5.10.2020.lib(in_ntoa.o)
 .data          0x180c06ee        0x0 /cygdrive/c/OpenAT/Plug-ins/WIP/5.10.2020/WIP/gcc_wmwip_5.10.2020.lib(list_plugin_unix.o)
 .data          0x180c06ee        0x1 /cygdrive/c/OpenAT/Plug-ins/WIP/5.10.2020/WIP/gcc_wmwip_5.10.2020.lib(net_debug.o)
 .data          0x180c06ef        0x0 /cygdrive/c/OpenAT/Plug-ins/WIP/5.10.2020/WIP/gcc_wmwip_5.10.2020.lib(net_init.o)
 *fill*         0x180c06ef        0x1 00
 .data          0x180c06f0        0x4 /cygdrive/c/OpenAT/Plug-ins/WIP/5.10.2020/WIP/gcc_wmwip_5.10.2020.lib(net_initopts.o)
                0x180c06f0                wip_version
 .data          0x180c06f4        0x0 /cygdrive/c/OpenAT/Plug-ins/WIP/5.10.2020/WIP/gcc_wmwip_5.10.2020.lib(net_setopts.o)
 .data          0x180c06f4        0x0 /cygdrive/c/OpenAT/Plug-ins/WIP/5.10.2020/WIP/gcc_wmwip_5.10.2020.lib(net_sync.o)
 .data          0x180c06f4        0x0 /cygdrive/c/OpenAT/Plug-ins/WIP/5.10.2020/WIP/gcc_wmwip_5.10.2020.lib(queue.o)
 .data          0x180c06f4        0x0 /cygdrive/c/OpenAT/Plug-ins/WIP/5.10.2020/WIP/gcc_wmwip_5.10.2020.lib(readline.o)
 .data          0x180c06f4        0x0 /cygdrive/c/OpenAT/Plug-ins/WIP/5.10.2020/WIP/gcc_wmwip_5.10.2020.lib(wip_subLevelOpts.o)
 .data          0x180c06f4        0x0 /cygdrive/c/OpenAT/Plug-ins/WIP/5.10.2020/WIP/gcc_wmwip_5.10.2020.lib(wrapper.o)
 .data          0x180c06f4        0x0 /cygdrive/c/OpenAT/Plug-ins/WIP/5.10.2020/WIP/gcc_wmwip_5.10.2020.lib(wm_net_hton.o)
 .data          0x180c06f4        0x0 /cygdrive/c/OpenAT/Plug-ins/WIP/5.10.2020/WIP/gcc_wmwip_5.10.2020.lib(wm_net_in_aton.o)
 .data          0x180c06f4        0x0 /cygdrive/c/OpenAT/Plug-ins/WIP/5.10.2020/WIP/gcc_wmwip_5.10.2020.lib(wm_net_in_ntoa.o)
 .data          0x180c06f4        0x0 /cygdrive/c/OpenAT/Plug-ins/WIP/5.10.2020/WIP/gcc_wmwip_5.10.2020.lib(wm_net_wrapper.o)
 .data          0x180c06f4        0x0 /cygdrive/c/OpenAT/Plug-ins/WIP/5.10.2020/WIP/gcc_wmwip_5.10.2020.lib(rawprint.o)
 .data          0x180c06f4        0x0 /cygdrive/c/OpenAT/Plug-ins/WIP/5.10.2020/WIP/gcc_wmwip_5.10.2020.lib(br_eth.o)
 .data          0x180c06f4        0x0 /cygdrive/c/OpenAT/Plug-ins/WIP/5.10.2020/WIP/gcc_wmwip_5.10.2020.lib(br_gen_close.o)
 .data          0x180c06f4        0x0 /cygdrive/c/OpenAT/Plug-ins/WIP/5.10.2020/WIP/gcc_wmwip_5.10.2020.lib(br_gen_getopt.o)
 .data          0x180c06f4        0x0 /cygdrive/c/OpenAT/Plug-ins/WIP/5.10.2020/WIP/gcc_wmwip_5.10.2020.lib(br_gen_setopt.o)
 .data          0x180c06f4        0x0 /cygdrive/c/OpenAT/Plug-ins/WIP/5.10.2020/WIP/gcc_wmwip_5.10.2020.lib(br_gen_stop.o)
 .data          0x180c06f4        0x0 /cygdrive/c/OpenAT/Plug-ins/WIP/5.10.2020/WIP/gcc_wmwip_5.10.2020.lib(br_gprs.o)
 .data          0x180c06f4        0x0 /cygdrive/c/OpenAT/Plug-ins/WIP/5.10.2020/WIP/gcc_wmwip_5.10.2020.lib(br_gsm.o)
 .data          0x180c06f4        0x0 /cygdrive/c/OpenAT/Plug-ins/WIP/5.10.2020/WIP/gcc_wmwip_5.10.2020.lib(br_mgr_debug.o)
 .data          0x180c06f4        0x0 /cygdrive/c/OpenAT/Plug-ins/WIP/5.10.2020/WIP/gcc_wmwip_5.10.2020.lib(br_ppp_getopt.o)
 .data          0x180c06f4        0x0 /cygdrive/c/OpenAT/Plug-ins/WIP/5.10.2020/WIP/gcc_wmwip_5.10.2020.lib(br_ppp_init.o)
 .data          0x180c06f4        0x0 /cygdrive/c/OpenAT/Plug-ins/WIP/5.10.2020/WIP/gcc_wmwip_5.10.2020.lib(br_ppp_setopt.o)
 .data          0x180c06f4        0x0 /cygdrive/c/OpenAT/Plug-ins/WIP/5.10.2020/WIP/gcc_wmwip_5.10.2020.lib(br_ppp_start.o)
 .data          0x180c06f4        0x0 /cygdrive/c/OpenAT/Plug-ins/WIP/5.10.2020/WIP/gcc_wmwip_5.10.2020.lib(br_ppp_stop.o)
 .data          0x180c06f4        0x0 /cygdrive/c/OpenAT/Plug-ins/WIP/5.10.2020/WIP/gcc_wmwip_5.10.2020.lib(ch_class.o)
 .data          0x180c06f4        0x0 /cygdrive/c/OpenAT/Plug-ins/WIP/5.10.2020/WIP/gcc_wmwip_5.10.2020.lib(ch_tcp_server.o)
 .data          0x180c06f4        0x0 /usr/local/OAT/lib/gcc/arm-elf/4.3.2/interwork/libgcc.a(_udivsi3.o)
 .data          0x180c06f4        0x0 /usr/local/OAT/lib/gcc/arm-elf/4.3.2/interwork/libgcc.a(_divsi3.o)
 .data          0x180c06f4        0x0 /usr/local/OAT/lib/gcc/arm-elf/4.3.2/interwork/libgcc.a(_umodsi3.o)
 .data          0x180c06f4        0x0 /usr/local/OAT/lib/gcc/arm-elf/4.3.2/interwork/libgcc.a(_dvmd_tls.o)
 .data          0x180c06f4        0x0 /usr/local/OAT/lib/gcc/arm-elf/4.3.2/interwork/libgcc.a(_addsubdf3.o)
 .data          0x180c06f4        0x0 /usr/local/OAT/lib/gcc/arm-elf/4.3.2/interwork/libgcc.a(_muldivdf3.o)
 .data          0x180c06f4        0x0 /usr/local/OAT/lib/gcc/arm-elf/4.3.2/interwork/libgcc.a(_cmpdf2.o)
 .data          0x180c06f4        0x0 /usr/local/OAT/lib/gcc/arm-elf/4.3.2/interwork/libgcc.a(_fixdfsi.o)
 .data          0x180c06f4        0x0 /usr/local/OAT/lib/gcc/arm-elf/4.3.2/interwork/libgcc.a(_fixunsdfsi.o)
 .data          0x180c06f4        0x0 /usr/local/OAT/lib/gcc/arm-elf/4.3.2/interwork/libgcc.a(_addsubsf3.o)
 .data          0x180c06f4        0x0 /usr/local/OAT/lib/gcc/arm-elf/4.3.2/interwork/libgcc.a(_muldivsf3.o)
 .data          0x180c06f4        0x0 /usr/local/OAT/lib/gcc/arm-elf/4.3.2/interwork/libgcc.a(_cmpsf2.o)
 .data          0x180c06f4        0x0 /usr/local/OAT/lib/gcc/arm-elf/4.3.2/interwork/libgcc.a(_fixunssfsi.o)
 .data          0x180c06f4        0x0 /usr/local/OAT/lib/gcc/arm-elf/4.3.2/../../../../arm-elf/lib/interwork/libc.a(lib_a-asprintf.o)
 .data          0x180c06f4        0x0 /usr/local/OAT/lib/gcc/arm-elf/4.3.2/../../../../arm-elf/lib/interwork/libc.a(lib_a-atoi.o)
 .data          0x180c06f4        0x4 /usr/local/OAT/lib/gcc/arm-elf/4.3.2/../../../../arm-elf/lib/interwork/libc.a(lib_a-ctype_.o)
                0x180c06f4                __ctype_ptr
 .data          0x180c06f8        0x0 /usr/local/OAT/lib/gcc/arm-elf/4.3.2/../../../../arm-elf/lib/interwork/libc.a(lib_a-errno.o)
 .data          0x180c06f8      0x404 /usr/local/OAT/lib/gcc/arm-elf/4.3.2/../../../../arm-elf/lib/interwork/libc.a(lib_a-impure.o)
                0x180c06f8                _impure_ptr
 .data          0x180c0afc       0x10 /usr/local/OAT/lib/gcc/arm-elf/4.3.2/../../../../arm-elf/lib/interwork/libc.a(lib_a-locale.o)
                0x180c0afc                __mb_cur_max
                0x180c0b00                __lc_ctype
 .data          0x180c0b0c        0x0 /usr/local/OAT/lib/gcc/arm-elf/4.3.2/../../../../arm-elf/lib/interwork/libc.a(lib_a-malloc.o)
 .data          0x180c0b0c      0x410 /usr/local/OAT/lib/gcc/arm-elf/4.3.2/../../../../arm-elf/lib/interwork/libc.a(lib_a-mallocr.o)
                0x180c0f18                __malloc_sbrk_base
                0x180c0b0c                __malloc_av_
                0x180c0f14                __malloc_trim_threshold
 .data          0x180c0f1c        0x0 /usr/local/OAT/lib/gcc/arm-elf/4.3.2/../../../../arm-elf/lib/interwork/libc.a(lib_a-memcmp.o)
 .data          0x180c0f1c        0x0 /usr/local/OAT/lib/gcc/arm-elf/4.3.2/../../../../arm-elf/lib/interwork/libc.a(lib_a-memcpy.o)
 .data          0x180c0f1c        0x0 /usr/local/OAT/lib/gcc/arm-elf/4.3.2/../../../../arm-elf/lib/interwork/libc.a(lib_a-memset.o)
 .data          0x180c0f1c        0x0 /usr/local/OAT/lib/gcc/arm-elf/4.3.2/../../../../arm-elf/lib/interwork/libc.a(lib_a-mlock.o)
 .data          0x180c0f1c        0x0 /usr/local/OAT/lib/gcc/arm-elf/4.3.2/../../../../arm-elf/lib/interwork/libc.a(lib_a-printf.o)
 .data          0x180c0f1c        0x0 /usr/local/OAT/lib/gcc/arm-elf/4.3.2/../../../../arm-elf/lib/interwork/libc.a(lib_a-realloc.o)
 .data          0x180c0f1c        0x0 /usr/local/OAT/lib/gcc/arm-elf/4.3.2/../../../../arm-elf/lib/interwork/libc.a(lib_a-reallocr.o)
 .data          0x180c0f1c        0x0 /usr/local/OAT/lib/gcc/arm-elf/4.3.2/../../../../arm-elf/lib/interwork/libc.a(lib_a-sbrkr.o)
 .data          0x180c0f1c        0x0 /usr/local/OAT/lib/gcc/arm-elf/4.3.2/../../../../arm-elf/lib/interwork/libc.a(lib_a-sprintf.o)
 .data          0x180c0f1c        0x0 /usr/local/OAT/lib/gcc/arm-elf/4.3.2/../../../../arm-elf/lib/interwork/libc.a(lib_a-sscanf.o)
 .data          0x180c0f1c        0x0 /usr/local/OAT/lib/gcc/arm-elf/4.3.2/../../../../arm-elf/lib/interwork/libc.a(lib_a-strcat.o)
 .data          0x180c0f1c        0x0 /usr/local/OAT/lib/gcc/arm-elf/4.3.2/../../../../arm-elf/lib/interwork/libc.a(lib_a-strchr.o)
 .data          0x180c0f1c        0x0 /usr/local/OAT/lib/gcc/arm-elf/4.3.2/../../../../arm-elf/lib/interwork/libc.a(lib_a-strcmp.o)
 .data          0x180c0f1c        0x0 /usr/local/OAT/lib/gcc/arm-elf/4.3.2/../../../../arm-elf/lib/interwork/libc.a(lib_a-strcpy.o)
 .data          0x180c0f1c        0x0 /usr/local/OAT/lib/gcc/arm-elf/4.3.2/../../../../arm-elf/lib/interwork/libc.a(lib_a-strdup.o)
 .data          0x180c0f1c        0x0 /usr/local/OAT/lib/gcc/arm-elf/4.3.2/../../../../arm-elf/lib/interwork/libc.a(lib_a-strdup_r.o)
 .data          0x180c0f1c        0x0 /usr/local/OAT/lib/gcc/arm-elf/4.3.2/../../../../arm-elf/lib/interwork/libc.a(lib_a-strlen.o)
 .data          0x180c0f1c        0x0 /usr/local/OAT/lib/gcc/arm-elf/4.3.2/../../../../arm-elf/lib/interwork/libc.a(lib_a-strncat.o)
 .data          0x180c0f1c        0x0 /usr/local/OAT/lib/gcc/arm-elf/4.3.2/../../../../arm-elf/lib/interwork/libc.a(lib_a-strncmp.o)
 .data          0x180c0f1c        0x0 /usr/local/OAT/lib/gcc/arm-elf/4.3.2/../../../../arm-elf/lib/interwork/libc.a(lib_a-strncpy.o)
 .data          0x180c0f1c        0x0 /usr/local/OAT/lib/gcc/arm-elf/4.3.2/../../../../arm-elf/lib/interwork/libc.a(lib_a-strsep.o)
 .data          0x180c0f1c        0x0 /usr/local/OAT/lib/gcc/arm-elf/4.3.2/../../../../arm-elf/lib/interwork/libc.a(lib_a-strstr.o)
 .data          0x180c0f1c        0x0 /usr/local/OAT/lib/gcc/arm-elf/4.3.2/../../../../arm-elf/lib/interwork/libc.a(lib_a-strtok.o)
 .data          0x180c0f1c        0x0 /usr/local/OAT/lib/gcc/arm-elf/4.3.2/../../../../arm-elf/lib/interwork/libc.a(lib_a-strtok_r.o)
 .data          0x180c0f1c        0x0 /usr/local/OAT/lib/gcc/arm-elf/4.3.2/../../../../arm-elf/lib/interwork/libc.a(lib_a-strtol.o)
 .data          0x180c0f1c        0x0 /usr/local/OAT/lib/gcc/arm-elf/4.3.2/../../../../arm-elf/lib/interwork/libc.a(lib_a-syscalls.o)
 .data          0x180c0f1c        0x0 /usr/local/OAT/lib/gcc/arm-elf/4.3.2/../../../../arm-elf/lib/interwork/libc.a(lib_a-syswrite.o)
 .data          0x180c0f1c        0x0 /usr/local/OAT/lib/gcc/arm-elf/4.3.2/../../../../arm-elf/lib/interwork/libc.a(lib_a-vasprintf.o)
 .data          0x180c0f1c        0x0 /usr/local/OAT/lib/gcc/arm-elf/4.3.2/../../../../arm-elf/lib/interwork/libc.a(lib_a-vfprintf.o)
 .data          0x180c0f1c        0x0 /usr/local/OAT/lib/gcc/arm-elf/4.3.2/../../../../arm-elf/lib/interwork/libc.a(lib_a-vfscanf.o)
 .data          0x180c0f1c        0x0 /usr/local/OAT/lib/gcc/arm-elf/4.3.2/../../../../arm-elf/lib/interwork/libc.a(lib_a-vsprintf.o)
 .data          0x180c0f1c        0x0 /usr/local/OAT/lib/gcc/arm-elf/4.3.2/../../../../arm-elf/lib/interwork/libc.a(lib_a-wsetup.o)
 .data          0x180c0f1c        0x0 /usr/local/OAT/lib/gcc/arm-elf/4.3.2/../../../../arm-elf/lib/interwork/libc.a(lib_a-OAT_close.o)
 .data          0x180c0f1c        0x0 /usr/local/OAT/lib/gcc/arm-elf/4.3.2/../../../../arm-elf/lib/interwork/libc.a(lib_a-OAT_fstat.o)
 .data          0x180c0f1c        0x0 /usr/local/OAT/lib/gcc/arm-elf/4.3.2/../../../../arm-elf/lib/interwork/libc.a(lib_a-OAT_isatty.o)
 .data          0x180c0f1c        0x0 /usr/local/OAT/lib/gcc/arm-elf/4.3.2/../../../../arm-elf/lib/interwork/libc.a(lib_a-OAT_kill.o)
 .data          0x180c0f1c        0x0 /usr/local/OAT/lib/gcc/arm-elf/4.3.2/../../../../arm-elf/lib/interwork/libc.a(lib_a-OAT_lseek.o)
 .data          0x180c0f1c        0x0 /usr/local/OAT/lib/gcc/arm-elf/4.3.2/../../../../arm-elf/lib/interwork/libc.a(lib_a-OAT_open.o)
 .data          0x180c0f1c        0x0 /usr/local/OAT/lib/gcc/arm-elf/4.3.2/../../../../arm-elf/lib/interwork/libc.a(lib_a-OAT_read.o)
 .data          0x180c0f1c        0x0 /usr/local/OAT/lib/gcc/arm-elf/4.3.2/../../../../arm-elf/lib/interwork/libc.a(lib_a-OAT_write.o)
 .data          0x180c0f1c        0x0 /usr/local/OAT/lib/gcc/arm-elf/4.3.2/../../../../arm-elf/lib/interwork/libc.a(lib_a-dtoa.o)
 .data          0x180c0f1c        0x0 /usr/local/OAT/lib/gcc/arm-elf/4.3.2/../../../../arm-elf/lib/interwork/libc.a(lib_a-fflush.o)
 .data          0x180c0f1c        0x0 /usr/local/OAT/lib/gcc/arm-elf/4.3.2/../../../../arm-elf/lib/interwork/libc.a(lib_a-findfp.o)
 .data          0x180c0f1c        0x0 /usr/local/OAT/lib/gcc/arm-elf/4.3.2/../../../../arm-elf/lib/interwork/libc.a(lib_a-fread.o)
 .data          0x180c0f1c        0x0 /usr/local/OAT/lib/gcc/arm-elf/4.3.2/../../../../arm-elf/lib/interwork/libc.a(lib_a-freer.o)
 .data          0x180c0f1c        0x0 /usr/local/OAT/lib/gcc/arm-elf/4.3.2/../../../../arm-elf/lib/interwork/libc.a(lib_a-fvwrite.o)
 .data          0x180c0f1c        0x0 /usr/local/OAT/lib/gcc/arm-elf/4.3.2/../../../../arm-elf/lib/interwork/libc.a(lib_a-fwalk.o)
 .data          0x180c0f1c        0x0 /usr/local/OAT/lib/gcc/arm-elf/4.3.2/../../../../arm-elf/lib/interwork/libc.a(lib_a-iswspace.o)
 .data          0x180c0f1c        0x0 /usr/local/OAT/lib/gcc/arm-elf/4.3.2/../../../../arm-elf/lib/interwork/libc.a(lib_a-makebuf.o)
 .data          0x180c0f1c        0x0 /usr/local/OAT/lib/gcc/arm-elf/4.3.2/../../../../arm-elf/lib/interwork/libc.a(lib_a-mbrtowc.o)
 .data          0x180c0f1c        0x0 /usr/local/OAT/lib/gcc/arm-elf/4.3.2/../../../../arm-elf/lib/interwork/libc.a(lib_a-mbtowc_r.o)
 .data          0x180c0f1c        0x0 /usr/local/OAT/lib/gcc/arm-elf/4.3.2/../../../../arm-elf/lib/interwork/libc.a(lib_a-memchr.o)
 .data          0x180c0f1c        0x0 /usr/local/OAT/lib/gcc/arm-elf/4.3.2/../../../../arm-elf/lib/interwork/libc.a(lib_a-memmove.o)
 .data          0x180c0f1c        0x0 /usr/local/OAT/lib/gcc/arm-elf/4.3.2/../../../../arm-elf/lib/interwork/libc.a(lib_a-mprec.o)
 .data          0x180c0f1c        0x0 /usr/local/OAT/lib/gcc/arm-elf/4.3.2/../../../../arm-elf/lib/interwork/libc.a(lib_a-reent.o)
 .data          0x180c0f1c        0x0 /usr/local/OAT/lib/gcc/arm-elf/4.3.2/../../../../arm-elf/lib/interwork/libc.a(lib_a-refill.o)
 .data          0x180c0f1c        0x0 /usr/local/OAT/lib/gcc/arm-elf/4.3.2/../../../../arm-elf/lib/interwork/libc.a(lib_a-s_isinfd.o)
 .data          0x180c0f1c        0x0 /usr/local/OAT/lib/gcc/arm-elf/4.3.2/../../../../arm-elf/lib/interwork/libc.a(lib_a-sccl.o)
 .data          0x180c0f1c        0x0 /usr/local/OAT/lib/gcc/arm-elf/4.3.2/../../../../arm-elf/lib/interwork/libc.a(lib_a-sf_nan.o)
 .data          0x180c0f1c        0x0 /usr/local/OAT/lib/gcc/arm-elf/4.3.2/../../../../arm-elf/lib/interwork/libc.a(lib_a-stdio.o)
 .data          0x180c0f1c       0x28 /usr/local/OAT/lib/gcc/arm-elf/4.3.2/../../../../arm-elf/lib/interwork/libc.a(lib_a-strtod.o)
 .data          0x180c0f44        0x0 /usr/local/OAT/lib/gcc/arm-elf/4.3.2/../../../../arm-elf/lib/interwork/libc.a(lib_a-strtoul.o)
 .data          0x180c0f44        0x0 /usr/local/OAT/lib/gcc/arm-elf/4.3.2/../../../../arm-elf/lib/interwork/libc.a(lib_a-ungetc.o)
 .data          0x180c0f44        0x0 /usr/local/OAT/lib/gcc/arm-elf/4.3.2/../../../../arm-elf/lib/interwork/libc.a(lib_a-writer.o)
 .data          0x180c0f44        0x0 /usr/local/OAT/lib/gcc/arm-elf/4.3.2/../../../../arm-elf/lib/interwork/libc.a(lib_a-callocr.o)
 .data          0x180c0f44        0x0 /usr/local/OAT/lib/gcc/arm-elf/4.3.2/../../../../arm-elf/lib/interwork/libc.a(lib_a-closer.o)
 .data          0x180c0f44        0x0 /usr/local/OAT/lib/gcc/arm-elf/4.3.2/../../../../arm-elf/lib/interwork/libc.a(lib_a-fclose.o)
 .data          0x180c0f44        0x0 /usr/local/OAT/lib/gcc/arm-elf/4.3.2/../../../../arm-elf/lib/interwork/libc.a(lib_a-fstatr.o)
 .data          0x180c0f44        0x0 /usr/local/OAT/lib/gcc/arm-elf/4.3.2/../../../../arm-elf/lib/interwork/libc.a(lib_a-gdtoa-gethex.o)
 .data          0x180c0f44        0x0 /usr/local/OAT/lib/gcc/arm-elf/4.3.2/../../../../arm-elf/lib/interwork/libc.a(lib_a-gdtoa-hexnan.o)
 .data          0x180c0f44        0x0 /usr/local/OAT/lib/gcc/arm-elf/4.3.2/../../../../arm-elf/lib/interwork/libc.a(lib_a-lseekr.o)
 .data          0x180c0f44        0x0 /usr/local/OAT/lib/gcc/arm-elf/4.3.2/../../../../arm-elf/lib/interwork/libc.a(lib_a-readr.o)
 .data          0x180c0f44        0x0 /usr/local/OAT/lib/gcc/arm-elf/4.3.2/interwork/libgcc.a(_truncdfsf2.o)
                0x180c0f44                PROVIDE (Image$$APP_DATA$$Limit, .)
                0x180c0f44                PROVIDE (Image$$RW$$Limit, .)
                0x00000f44                PROVIDE (Image$$APP_DATA$$Length, SIZEOF (.data))
                0x00000f44                PROVIDE (Image$$ER_RW$$Length, SIZEOF (.data))
                0x180c0f44                _edata = .

.bss            0x180c0f44     0x8c84
                0x180c0f44                __bss_start__ = .
                0x180c0f44                PROVIDE (Image$$APP_BSS$$Base, .)
                0x180c0f44                PROVIDE (Image$$ZI$$Base, .)
 *(.bss)
 .bss           0x180c0f44       0x44 src/gpioTest.o
                0x180c0f44                IgnAlarmGenerated
 .bss           0x180c0f88       0x14 src/adc.o
                0x180c0f88                battery_timer
                0x180c0f8c                Analog_timer
                0x180c0f90                g_TotalRunTime
 .bss           0x180c0f9c        0x0 src/FlashTest.o
 .bss           0x180c0f9c        0x0 src/wyhook_HAL.o
 .bss           0x180c0f9c        0x0 src/XactUtilities.o
 .bss           0x180c0f9c        0x8 src/SimOperations.o
                0x180c0f9c                g_sim_full_init_stat
 .bss           0x180c0fa4        0x0 src/status.o
 .bss           0x180c0fa4      0x258 src/WaypointControl.o
 .bss           0x180c11fc       0x20 src/alarm_suppress.o
 .bss           0x180c121c       0x28 src/GPSCtrl.o
                0x180c121e                enable_ota38
                0x180c121c                GPSWaitTimeout
                0x180c121d                TrackingMode
 .bss           0x180c1244     0x11d0 src/anolclient.o
 .bss           0x180c2414       0x3c src/GpsInterface.o
                0x180c2414                g_GPSTestMode
 .bss           0x180c2450       0x50 src/LED.o
 .bss           0x180c24a0       0x10 src/TempoCasesTask.o
                0x180c24a0                g_battalarm_status
                0x180c24a1                g_uart_ready
                0x180c24a9                g_atmelState
                0x180c24a4                g_atmel_schedule
                0x180c24a8                g_new_alert
                0x180c24a2                g_atmel_ready
 .bss           0x180c24b0       0x2c src/PowerCtrl.o
                0x180c24b4                g_AppearPowerDown
                0x180c24b0                g_ShutDownReq
 .bss           0x180c24dc       0x1c src/i2c_accelerometer.o
 .bss           0x180c24f8        0x0 src/wyhook_Application.o
 .bss           0x180c24f8       0x38 src/fence.o
                0x180c24f8                g_in_safe_fence
 .bss           0x180c2530       0x60 src/Accelerometer.o
                0x180c2534                extintConfig
                0x180c253c                accel_error_state
                0x180c2530                InteruptProc
 .bss           0x180c2590       0xcc src/ota_at.o
 .bss           0x180c265c       0x38 src/XactTests.o
 .bss           0x180c2694        0x8 src/wyhook_Message.o
 .bss           0x180c269c        0xc src/ConfigSettings.o
 .bss           0x180c26a8      0x1bc src/InternalFlash.o
 .bss           0x180c2864        0x0 src/haversine.o
 .bss           0x180c2864        0x1 src/CallBackMethods.o
 *fill*         0x180c2865        0x3 00
 .bss           0x180c2868       0x24 src/Timers.o
 .bss           0x180c288c        0x8 src/VibrationMotor.o
 .bss           0x180c2894       0x10 src/button.o
                0x180c2894                sw_button_ovrd
 .bss           0x180c28a4      0x424 src/DOTAOperation.o
                0x180c28a4                gFileBuffer
                0x180c28b0                gFileCellReady
                0x180c28a8                gFileSize
                0x180c28ac                gFileSizeDownloaded
 .bss           0x180c2cc8        0x0 src/gpioconfig.o
 .bss           0x180c2cc8        0x8 src/adl_main.o
 .bss           0x180c2cd0        0x2 src/dogwalk.o
                0x180c2cd1                parkmode
                0x180c2cd0                walkmode
 .bss           0x180c2cd2        0x0 src/COMMR572.o
 *fill*         0x180c2cd2        0x2 00
 .bss           0x180c2cd4      0x21c src/USB.o
                0x180c2cd8                gUSBApplicationUpdateFlag
                0x180c2cd4                g_DebugEnable
                0x180c2cd5                g_USBFlowCmdState
                0x180c2cdc                g_wyhook_mode
 .bss           0x180c2ef0       0x14 src/i2c.o
                0x180c2ef0                gI2CSignalFlag
                0x180c2efc                appBusLowIrqHandle
                0x180c2f00                appBusHighIrqHandle
                0x180c2ef4                AccessConfig
 .bss           0x180c2f04       0x70 src/ublox.o
 .bss           0x180c2f74     0x2858 src/GPRS.o
                0x180c2f80                g_wip_transmit_size
                0x180c2f7c                g_wip_transmit_trig
                0x180c2f84                g_DOTAOK
                0x180c2f78                NetworkError
                0x180c2f74                g_DOTAUpdateMode
 .bss           0x180c57cc       0x40 src/SMShandling.o
                0x180c57cc                WaitOn
                0x180c57d0                current_waypoint
                0x180c57d8                g_NeedSOSAck
                0x180c57d4                waypointPktNum
 .bss           0x180c580c        0x0 src/Traces.o
 .bss           0x180c580c        0x1 src/airplane_mode.o
 *fill*         0x180c580d        0x3 00
 .bss           0x180c5810        0x4 src/CommandHandlerXACT.o
                0x180c5810                ForceRoamMode
 .bss           0x180c5814       0xa0 src/protocol.o
                0x180c5814                last_config_send_ack
 .bss           0x180c58b4        0xc src/diagnose.o
 .bss           0x180c58c0       0x20 flash_src/atmel_flashDriver.o
                0x180c58c4                BuffersPage
                0x180c58dc                SPI_Error
                0x180c58cc                SectorSize
                0x180c58d0                SectorCount
                0x180c58d8                ExtraPageDataStart
                0x180c58c0                SPI_InitFlags
                0x180c58d4                SectorPerPage
 .bss           0x180c58e0        0x0 /usr/local/OAT/lib/gcc/arm-elf/4.3.2/../../../../arm-elf/lib/interwork/libm.a(lib_a-s_cos.o)
 .bss           0x180c58e0        0x0 /usr/local/OAT/lib/gcc/arm-elf/4.3.2/../../../../arm-elf/lib/interwork/libm.a(lib_a-s_sin.o)
 .bss           0x180c58e0        0x0 /usr/local/OAT/lib/gcc/arm-elf/4.3.2/../../../../arm-elf/lib/interwork/libm.a(lib_a-w_atan2.o)
 .bss           0x180c58e0        0x0 /usr/local/OAT/lib/gcc/arm-elf/4.3.2/../../../../arm-elf/lib/interwork/libm.a(lib_a-w_sqrt.o)
 .bss           0x180c58e0        0x0 /usr/local/OAT/lib/gcc/arm-elf/4.3.2/../../../../arm-elf/lib/interwork/libm.a(lib_a-e_atan2.o)
 .bss           0x180c58e0        0x0 /usr/local/OAT/lib/gcc/arm-elf/4.3.2/../../../../arm-elf/lib/interwork/libm.a(lib_a-e_rem_pio2.o)
 .bss           0x180c58e0        0x0 /usr/local/OAT/lib/gcc/arm-elf/4.3.2/../../../../arm-elf/lib/interwork/libm.a(lib_a-e_sqrt.o)
 .bss           0x180c58e0        0x0 /usr/local/OAT/lib/gcc/arm-elf/4.3.2/../../../../arm-elf/lib/interwork/libm.a(lib_a-k_cos.o)
 .bss           0x180c58e0        0x0 /usr/local/OAT/lib/gcc/arm-elf/4.3.2/../../../../arm-elf/lib/interwork/libm.a(lib_a-k_rem_pio2.o)
 .bss           0x180c58e0        0x0 /usr/local/OAT/lib/gcc/arm-elf/4.3.2/../../../../arm-elf/lib/interwork/libm.a(lib_a-k_sin.o)
 .bss           0x180c58e0        0x0 /usr/local/OAT/lib/gcc/arm-elf/4.3.2/../../../../arm-elf/lib/interwork/libm.a(lib_a-s_atan.o)
 .bss           0x180c58e0        0x0 /usr/local/OAT/lib/gcc/arm-elf/4.3.2/../../../../arm-elf/lib/interwork/libm.a(lib_a-s_fabs.o)
 .bss           0x180c58e0        0x0 /usr/local/OAT/lib/gcc/arm-elf/4.3.2/../../../../arm-elf/lib/interwork/libm.a(lib_a-s_floor.o)
 .bss           0x180c58e0        0x0 /usr/local/OAT/lib/gcc/arm-elf/4.3.2/../../../../arm-elf/lib/interwork/libm.a(lib_a-s_isnand.o)
 .bss           0x180c58e0        0x0 /usr/local/OAT/lib/gcc/arm-elf/4.3.2/../../../../arm-elf/lib/interwork/libm.a(lib_a-s_lib_ver.o)
 .bss           0x180c58e0        0x0 /usr/local/OAT/lib/gcc/arm-elf/4.3.2/../../../../arm-elf/lib/interwork/libm.a(lib_a-s_matherr.o)
 .bss           0x180c58e0        0x0 /usr/local/OAT/lib/gcc/arm-elf/4.3.2/../../../../arm-elf/lib/interwork/libm.a(lib_a-s_scalbn.o)
 .bss           0x180c58e0        0x0 /usr/local/OAT/lib/gcc/arm-elf/4.3.2/../../../../arm-elf/lib/interwork/libm.a(lib_a-s_copysign.o)
 .bss           0x180c58e0        0x0 mos_header.o
 .bss           0x180c58e0        0x4 /cygdrive/c/OpenAT/OS/6.21.02/ADL/gcc_wmadl_6.21.02.0.0.lib(mos_ftr.o)
 .bss           0x180c58e4        0x0 /cygdrive/c/OpenAT/OS/6.21.02/ADL/gcc_wmadl_6.21.02.0.0.lib(opec_lst.o)
 .bss           0x180c58e4        0x0 /cygdrive/c/OpenAT/OS/6.21.02/ADL/gcc_wmadl_6.21.02.0.0.lib(opec_std.o)
 .bss           0x180c58e4       0x20 /cygdrive/c/OpenAT/OS/6.21.02/ADL/gcc_wmadl_6.21.02.0.0.lib(adl_ad.o)
 .bss           0x180c5904        0xc /cygdrive/c/OpenAT/OS/6.21.02/ADL/gcc_wmadl_6.21.02.0.0.lib(adl_adc.o)
 .bss           0x180c5910        0xc /cygdrive/c/OpenAT/OS/6.21.02/ADL/gcc_wmadl_6.21.02.0.0.lib(adl_AppliInit.o)
 .bss           0x180c591c       0x2c /cygdrive/c/OpenAT/OS/6.21.02/ADL/gcc_wmadl_6.21.02.0.0.lib(adl_audio.o)
 .bss           0x180c5948        0x4 /cygdrive/c/OpenAT/OS/6.21.02/ADL/gcc_wmadl_6.21.02.0.0.lib(adl_bus.o)
 .bss           0x180c594c        0x8 /cygdrive/c/OpenAT/OS/6.21.02/ADL/gcc_wmadl_6.21.02.0.0.lib(adl_call.o)
 .bss           0x180c5954        0xc /cygdrive/c/OpenAT/OS/6.21.02/ADL/gcc_wmadl_6.21.02.0.0.lib(adl_CmdHandler.o)
 .bss           0x180c5960        0x8 /cygdrive/c/OpenAT/OS/6.21.02/ADL/gcc_wmadl_6.21.02.0.0.lib(adl_CmdProcessor.o)
 .bss           0x180c5968        0xc /cygdrive/c/OpenAT/OS/6.21.02/ADL/gcc_wmadl_6.21.02.0.0.lib(adl_CmdStackHandler.o)
 .bss           0x180c5974        0x8 /cygdrive/c/OpenAT/OS/6.21.02/ADL/gcc_wmadl_6.21.02.0.0.lib(adl_ctx.o)
 .bss           0x180c597c        0x4 /cygdrive/c/OpenAT/OS/6.21.02/ADL/gcc_wmadl_6.21.02.0.0.lib(adl_defaut_buildtime.o)
                0x180c597c                mos_headerBuildTime
 .bss           0x180c5980        0x0 /cygdrive/c/OpenAT/OS/6.21.02/ADL/gcc_wmadl_6.21.02.0.0.lib(adl_defaut_extend.o)
 .bss           0x180c5980        0x4 /cygdrive/c/OpenAT/OS/6.21.02/ADL/gcc_wmadl_6.21.02.0.0.lib(adl_defaut_selist.o)
                0x180c5980                mos_headerSEList
 .bss           0x180c5984        0x0 /cygdrive/c/OpenAT/OS/6.21.02/ADL/gcc_wmadl_6.21.02.0.0.lib(adl_defaut_timeslicing.o)
 .bss           0x180c5984       0x10 /cygdrive/c/OpenAT/OS/6.21.02/ADL/gcc_wmadl_6.21.02.0.0.lib(adl_error.o)
 .bss           0x180c5994        0x0 /cygdrive/c/OpenAT/OS/6.21.02/ADL/gcc_wmadl_6.21.02.0.0.lib(adl_EventMachine.o)
 .bss           0x180c5994       0x1c /cygdrive/c/OpenAT/OS/6.21.02/ADL/gcc_wmadl_6.21.02.0.0.lib(adl_extint.o)
 .bss           0x180c59b0        0x0 /cygdrive/c/OpenAT/OS/6.21.02/ADL/gcc_wmadl_6.21.02.0.0.lib(adl_extint_deprecated.o)
 .bss           0x180c59b0       0x14 /cygdrive/c/OpenAT/OS/6.21.02/ADL/gcc_wmadl_6.21.02.0.0.lib(adl_fcm.o)
 .bss           0x180c59c4        0xc /cygdrive/c/OpenAT/OS/6.21.02/ADL/gcc_wmadl_6.21.02.0.0.lib(adl_flash.o)
 .bss           0x180c59d0        0xc /cygdrive/c/OpenAT/OS/6.21.02/ADL/gcc_wmadl_6.21.02.0.0.lib(adl_gpio.o)
 .bss           0x180c59dc       0x24 /cygdrive/c/OpenAT/OS/6.21.02/ADL/gcc_wmadl_6.21.02.0.0.lib(adl_gprs.o)
 .bss           0x180c5a00       0x14 /cygdrive/c/OpenAT/OS/6.21.02/ADL/gcc_wmadl_6.21.02.0.0.lib(adl_irq.o)
 .bss           0x180c5a14       0x14 /cygdrive/c/OpenAT/OS/6.21.02/ADL/gcc_wmadl_6.21.02.0.0.lib(adl_memory.o)
 .bss           0x180c5a28       0x10 /cygdrive/c/OpenAT/OS/6.21.02/ADL/gcc_wmadl_6.21.02.0.0.lib(adl_msg.o)
 .bss           0x180c5a38       0x14 /cygdrive/c/OpenAT/OS/6.21.02/ADL/gcc_wmadl_6.21.02.0.0.lib(adl_port.o)
 .bss           0x180c5a4c       0x10 /cygdrive/c/OpenAT/OS/6.21.02/ADL/gcc_wmadl_6.21.02.0.0.lib(adl_reg.o)
 .bss           0x180c5a5c        0x1 /cygdrive/c/OpenAT/OS/6.21.02/ADL/gcc_wmadl_6.21.02.0.0.lib(adl_RspHandler.o)
                0x180c5a5c                ADL_NI_TOBE_USED
 *fill*         0x180c5a5d        0x3 00
 .bss           0x180c5a60        0xc /cygdrive/c/OpenAT/OS/6.21.02/ADL/gcc_wmadl_6.21.02.0.0.lib(adl_rtc.o)
 .bss           0x180c5a6c        0x8 /cygdrive/c/OpenAT/OS/6.21.02/ADL/gcc_wmadl_6.21.02.0.0.lib(adl_sem.o)
 .bss           0x180c5a74       0x10 /cygdrive/c/OpenAT/OS/6.21.02/ADL/gcc_wmadl_6.21.02.0.0.lib(adl_serv.o)
 .bss           0x180c5a84       0x18 /cygdrive/c/OpenAT/OS/6.21.02/ADL/gcc_wmadl_6.21.02.0.0.lib(adl_sim.o)
 .bss           0x180c5a9c       0x24 /cygdrive/c/OpenAT/OS/6.21.02/ADL/gcc_wmadl_6.21.02.0.0.lib(adl_sms.o)
 .bss           0x180c5ac0        0x0 /cygdrive/c/OpenAT/OS/6.21.02/ADL/gcc_wmadl_6.21.02.0.0.lib(adl_str.o)
 .bss           0x180c5ac0        0xc /cygdrive/c/OpenAT/OS/6.21.02/ADL/gcc_wmadl_6.21.02.0.0.lib(adl_TimerHandler.o)
 .bss           0x180c5acc        0xc /cygdrive/c/OpenAT/OS/6.21.02/ADL/gcc_wmadl_6.21.02.0.0.lib(adl_traces.o)
 .bss           0x180c5ad8        0x4 /cygdrive/c/OpenAT/OS/6.21.02/ADL/gcc_wmadl_6.21.02.0.0.lib(adl_UnSoHandler.o)
 .bss           0x180c5adc        0x4 /cygdrive/c/OpenAT/OS/6.21.02/ADL/gcc_wmadl_6.21.02.0.0.lib(adl_wd.o)
 .bss           0x180c5ae0        0x0 /cygdrive/c/OpenAT/Plug-ins/WIP/5.10.2020/WIP/gcc_wmwip_5.10.2020.lib(br_close.o)
 .bss           0x180c5ae0        0x0 /cygdrive/c/OpenAT/Plug-ins/WIP/5.10.2020/WIP/gcc_wmwip_5.10.2020.lib(br_getopts.o)
 .bss           0x180c5ae0        0x0 /cygdrive/c/OpenAT/Plug-ins/WIP/5.10.2020/WIP/gcc_wmwip_5.10.2020.lib(br_mgr_init.o)
 .bss           0x180c5ae0        0x0 /cygdrive/c/OpenAT/Plug-ins/WIP/5.10.2020/WIP/gcc_wmwip_5.10.2020.lib(br_open.o)
 .bss           0x180c5ae0        0x0 /cygdrive/c/OpenAT/Plug-ins/WIP/5.10.2020/WIP/gcc_wmwip_5.10.2020.lib(br_setopts.o)
 .bss           0x180c5ae0        0x0 /cygdrive/c/OpenAT/Plug-ins/WIP/5.10.2020/WIP/gcc_wmwip_5.10.2020.lib(br_start.o)
 .bss           0x180c5ae0        0x0 /cygdrive/c/OpenAT/Plug-ins/WIP/5.10.2020/WIP/gcc_wmwip_5.10.2020.lib(br_v24.o)
 .bss           0x180c5ae0        0x1 /cygdrive/c/OpenAT/Plug-ins/WIP/5.10.2020/WIP/gcc_wmwip_5.10.2020.lib(ch_channel.o)
                0x180c5ae0                wip_logEvents
 *fill*         0x180c5ae1        0x3 00
 .bss           0x180c5ae4        0x4 /cygdrive/c/OpenAT/Plug-ins/WIP/5.10.2020/WIP/gcc_wmwip_5.10.2020.lib(ch_tcp_client.o)
 .bss           0x180c5ae8        0x4 /cygdrive/c/OpenAT/Plug-ins/WIP/5.10.2020/WIP/gcc_wmwip_5.10.2020.lib(ch_udp.o)
 .bss           0x180c5aec        0x0 /cygdrive/c/OpenAT/Plug-ins/WIP/5.10.2020/WIP/gcc_wmwip_5.10.2020.lib(file.o)
 .bss           0x180c5aec        0x8 /cygdrive/c/OpenAT/Plug-ins/WIP/5.10.2020/WIP/gcc_wmwip_5.10.2020.lib(ftp.o)
                0x180c5aec                wipint_ftp_timer_table_len
 .bss           0x180c5af4        0x0 /cygdrive/c/OpenAT/Plug-ins/WIP/5.10.2020/WIP/gcc_wmwip_5.10.2020.lib(ftp_evh.o)
 .bss           0x180c5af4        0x4 /cygdrive/c/OpenAT/Plug-ins/WIP/5.10.2020/WIP/gcc_wmwip_5.10.2020.lib(ftp_list.o)
 .bss           0x180c5af8        0x0 /cygdrive/c/OpenAT/Plug-ins/WIP/5.10.2020/WIP/gcc_wmwip_5.10.2020.lib(ftr.o)
 .bss           0x180c5af8        0x0 /cygdrive/c/OpenAT/Plug-ins/WIP/5.10.2020/WIP/gcc_wmwip_5.10.2020.lib(in_aton.o)
 .bss           0x180c5af8        0x0 /cygdrive/c/OpenAT/Plug-ins/WIP/5.10.2020/WIP/gcc_wmwip_5.10.2020.lib(in_ntoa.o)
 .bss           0x180c5af8        0x0 /cygdrive/c/OpenAT/Plug-ins/WIP/5.10.2020/WIP/gcc_wmwip_5.10.2020.lib(list_plugin_unix.o)
 .bss           0x180c5af8       0x8c /cygdrive/c/OpenAT/Plug-ins/WIP/5.10.2020/WIP/gcc_wmwip_5.10.2020.lib(net_debug.o)
 .bss           0x180c5b84        0x0 /cygdrive/c/OpenAT/Plug-ins/WIP/5.10.2020/WIP/gcc_wmwip_5.10.2020.lib(net_init.o)
 .bss           0x180c5b84       0x98 /cygdrive/c/OpenAT/Plug-ins/WIP/5.10.2020/WIP/gcc_wmwip_5.10.2020.lib(net_initopts.o)
                0x180c5b88                wip_version_net
                0x180c5b84                wip_version_ssl
 .bss           0x180c5c1c        0x0 /cygdrive/c/OpenAT/Plug-ins/WIP/5.10.2020/WIP/gcc_wmwip_5.10.2020.lib(net_setopts.o)
 .bss           0x180c5c1c        0x0 /cygdrive/c/OpenAT/Plug-ins/WIP/5.10.2020/WIP/gcc_wmwip_5.10.2020.lib(net_sync.o)
 .bss           0x180c5c1c        0x0 /cygdrive/c/OpenAT/Plug-ins/WIP/5.10.2020/WIP/gcc_wmwip_5.10.2020.lib(queue.o)
 .bss           0x180c5c1c        0x0 /cygdrive/c/OpenAT/Plug-ins/WIP/5.10.2020/WIP/gcc_wmwip_5.10.2020.lib(readline.o)
 .bss           0x180c5c1c        0x0 /cygdrive/c/OpenAT/Plug-ins/WIP/5.10.2020/WIP/gcc_wmwip_5.10.2020.lib(wip_subLevelOpts.o)
 .bss           0x180c5c1c        0x4 /cygdrive/c/OpenAT/Plug-ins/WIP/5.10.2020/WIP/gcc_wmwip_5.10.2020.lib(wrapper.o)
 .bss           0x180c5c20        0x0 /cygdrive/c/OpenAT/Plug-ins/WIP/5.10.2020/WIP/gcc_wmwip_5.10.2020.lib(wm_net_hton.o)
 .bss           0x180c5c20        0x0 /cygdrive/c/OpenAT/Plug-ins/WIP/5.10.2020/WIP/gcc_wmwip_5.10.2020.lib(wm_net_in_aton.o)
 .bss           0x180c5c20        0x0 /cygdrive/c/OpenAT/Plug-ins/WIP/5.10.2020/WIP/gcc_wmwip_5.10.2020.lib(wm_net_in_ntoa.o)
 .bss           0x180c5c20      0x1d0 /cygdrive/c/OpenAT/Plug-ins/WIP/5.10.2020/WIP/gcc_wmwip_5.10.2020.lib(wm_net_wrapper.o)
 .bss           0x180c5df0        0x0 /cygdrive/c/OpenAT/Plug-ins/WIP/5.10.2020/WIP/gcc_wmwip_5.10.2020.lib(rawprint.o)
 .bss           0x180c5df0        0x0 /cygdrive/c/OpenAT/Plug-ins/WIP/5.10.2020/WIP/gcc_wmwip_5.10.2020.lib(br_eth.o)
 .bss           0x180c5df0        0x0 /cygdrive/c/OpenAT/Plug-ins/WIP/5.10.2020/WIP/gcc_wmwip_5.10.2020.lib(br_gen_close.o)
 .bss           0x180c5df0        0x0 /cygdrive/c/OpenAT/Plug-ins/WIP/5.10.2020/WIP/gcc_wmwip_5.10.2020.lib(br_gen_getopt.o)
 .bss           0x180c5df0        0x0 /cygdrive/c/OpenAT/Plug-ins/WIP/5.10.2020/WIP/gcc_wmwip_5.10.2020.lib(br_gen_setopt.o)
 .bss           0x180c5df0        0x0 /cygdrive/c/OpenAT/Plug-ins/WIP/5.10.2020/WIP/gcc_wmwip_5.10.2020.lib(br_gen_stop.o)
 .bss           0x180c5df0        0x4 /cygdrive/c/OpenAT/Plug-ins/WIP/5.10.2020/WIP/gcc_wmwip_5.10.2020.lib(br_gprs.o)
 .bss           0x180c5df4        0x4 /cygdrive/c/OpenAT/Plug-ins/WIP/5.10.2020/WIP/gcc_wmwip_5.10.2020.lib(br_gsm.o)
 .bss           0x180c5df8        0x0 /cygdrive/c/OpenAT/Plug-ins/WIP/5.10.2020/WIP/gcc_wmwip_5.10.2020.lib(br_mgr_debug.o)
 .bss           0x180c5df8        0x0 /cygdrive/c/OpenAT/Plug-ins/WIP/5.10.2020/WIP/gcc_wmwip_5.10.2020.lib(br_ppp_getopt.o)
 .bss           0x180c5df8        0x0 /cygdrive/c/OpenAT/Plug-ins/WIP/5.10.2020/WIP/gcc_wmwip_5.10.2020.lib(br_ppp_init.o)
 .bss           0x180c5df8        0x0 /cygdrive/c/OpenAT/Plug-ins/WIP/5.10.2020/WIP/gcc_wmwip_5.10.2020.lib(br_ppp_setopt.o)
 .bss           0x180c5df8        0x0 /cygdrive/c/OpenAT/Plug-ins/WIP/5.10.2020/WIP/gcc_wmwip_5.10.2020.lib(br_ppp_start.o)
 .bss           0x180c5df8        0x0 /cygdrive/c/OpenAT/Plug-ins/WIP/5.10.2020/WIP/gcc_wmwip_5.10.2020.lib(br_ppp_stop.o)
 .bss           0x180c5df8        0x0 /cygdrive/c/OpenAT/Plug-ins/WIP/5.10.2020/WIP/gcc_wmwip_5.10.2020.lib(ch_class.o)
 .bss           0x180c5df8        0x4 /cygdrive/c/OpenAT/Plug-ins/WIP/5.10.2020/WIP/gcc_wmwip_5.10.2020.lib(ch_tcp_server.o)
 .bss           0x180c5dfc        0x0 /usr/local/OAT/lib/gcc/arm-elf/4.3.2/interwork/libgcc.a(_udivsi3.o)
 .bss           0x180c5dfc        0x0 /usr/local/OAT/lib/gcc/arm-elf/4.3.2/interwork/libgcc.a(_divsi3.o)
 .bss           0x180c5dfc        0x0 /usr/local/OAT/lib/gcc/arm-elf/4.3.2/interwork/libgcc.a(_umodsi3.o)
 .bss           0x180c5dfc        0x0 /usr/local/OAT/lib/gcc/arm-elf/4.3.2/interwork/libgcc.a(_dvmd_tls.o)
 .bss           0x180c5dfc        0x0 /usr/local/OAT/lib/gcc/arm-elf/4.3.2/interwork/libgcc.a(_addsubdf3.o)
 .bss           0x180c5dfc        0x0 /usr/local/OAT/lib/gcc/arm-elf/4.3.2/interwork/libgcc.a(_muldivdf3.o)
 .bss           0x180c5dfc        0x0 /usr/local/OAT/lib/gcc/arm-elf/4.3.2/interwork/libgcc.a(_cmpdf2.o)
 .bss           0x180c5dfc        0x0 /usr/local/OAT/lib/gcc/arm-elf/4.3.2/interwork/libgcc.a(_fixdfsi.o)
 .bss           0x180c5dfc        0x0 /usr/local/OAT/lib/gcc/arm-elf/4.3.2/interwork/libgcc.a(_fixunsdfsi.o)
 .bss           0x180c5dfc        0x0 /usr/local/OAT/lib/gcc/arm-elf/4.3.2/interwork/libgcc.a(_addsubsf3.o)
 .bss           0x180c5dfc        0x0 /usr/local/OAT/lib/gcc/arm-elf/4.3.2/interwork/libgcc.a(_muldivsf3.o)
 .bss           0x180c5dfc        0x0 /usr/local/OAT/lib/gcc/arm-elf/4.3.2/interwork/libgcc.a(_cmpsf2.o)
 .bss           0x180c5dfc        0x0 /usr/local/OAT/lib/gcc/arm-elf/4.3.2/interwork/libgcc.a(_fixunssfsi.o)
 .bss           0x180c5dfc        0x0 /usr/local/OAT/lib/gcc/arm-elf/4.3.2/../../../../arm-elf/lib/interwork/libc.a(lib_a-asprintf.o)
 .bss           0x180c5dfc        0x0 /usr/local/OAT/lib/gcc/arm-elf/4.3.2/../../../../arm-elf/lib/interwork/libc.a(lib_a-atoi.o)
 .bss           0x180c5dfc        0x0 /usr/local/OAT/lib/gcc/arm-elf/4.3.2/../../../../arm-elf/lib/interwork/libc.a(lib_a-ctype_.o)
 .bss           0x180c5dfc        0x0 /usr/local/OAT/lib/gcc/arm-elf/4.3.2/../../../../arm-elf/lib/interwork/libc.a(lib_a-errno.o)
 .bss           0x180c5dfc        0x0 /usr/local/OAT/lib/gcc/arm-elf/4.3.2/../../../../arm-elf/lib/interwork/libc.a(lib_a-impure.o)
 .bss           0x180c5dfc        0xc /usr/local/OAT/lib/gcc/arm-elf/4.3.2/../../../../arm-elf/lib/interwork/libc.a(lib_a-locale.o)
                0x180c5dfc                __nlocale_changed
                0x180c5e00                __mlocale_changed
                0x180c5e04                _PathLocale
 .bss           0x180c5e08        0x0 /usr/local/OAT/lib/gcc/arm-elf/4.3.2/../../../../arm-elf/lib/interwork/libc.a(lib_a-malloc.o)
 .bss           0x180c5e08       0x34 /usr/local/OAT/lib/gcc/arm-elf/4.3.2/../../../../arm-elf/lib/interwork/libc.a(lib_a-mallocr.o)
                0x180c5e08                __malloc_top_pad
                0x180c5e0c                __malloc_max_sbrked_mem
                0x180c5e14                __malloc_current_mallinfo
                0x180c5e10                __malloc_max_total_mem
 .bss           0x180c5e3c        0x0 /usr/local/OAT/lib/gcc/arm-elf/4.3.2/../../../../arm-elf/lib/interwork/libc.a(lib_a-memcmp.o)
 .bss           0x180c5e3c        0x0 /usr/local/OAT/lib/gcc/arm-elf/4.3.2/../../../../arm-elf/lib/interwork/libc.a(lib_a-memcpy.o)
 .bss           0x180c5e3c        0x0 /usr/local/OAT/lib/gcc/arm-elf/4.3.2/../../../../arm-elf/lib/interwork/libc.a(lib_a-memset.o)
 .bss           0x180c5e3c        0x0 /usr/local/OAT/lib/gcc/arm-elf/4.3.2/../../../../arm-elf/lib/interwork/libc.a(lib_a-mlock.o)
 .bss           0x180c5e3c        0x0 /usr/local/OAT/lib/gcc/arm-elf/4.3.2/../../../../arm-elf/lib/interwork/libc.a(lib_a-printf.o)
 .bss           0x180c5e3c        0x0 /usr/local/OAT/lib/gcc/arm-elf/4.3.2/../../../../arm-elf/lib/interwork/libc.a(lib_a-realloc.o)
 .bss           0x180c5e3c        0x0 /usr/local/OAT/lib/gcc/arm-elf/4.3.2/../../../../arm-elf/lib/interwork/libc.a(lib_a-reallocr.o)
 .bss           0x180c5e3c        0x0 /usr/local/OAT/lib/gcc/arm-elf/4.3.2/../../../../arm-elf/lib/interwork/libc.a(lib_a-sbrkr.o)
 .bss           0x180c5e3c        0x0 /usr/local/OAT/lib/gcc/arm-elf/4.3.2/../../../../arm-elf/lib/interwork/libc.a(lib_a-sprintf.o)
 .bss           0x180c5e3c        0x0 /usr/local/OAT/lib/gcc/arm-elf/4.3.2/../../../../arm-elf/lib/interwork/libc.a(lib_a-sscanf.o)
 .bss           0x180c5e3c        0x0 /usr/local/OAT/lib/gcc/arm-elf/4.3.2/../../../../arm-elf/lib/interwork/libc.a(lib_a-strcat.o)
 .bss           0x180c5e3c        0x0 /usr/local/OAT/lib/gcc/arm-elf/4.3.2/../../../../arm-elf/lib/interwork/libc.a(lib_a-strchr.o)
 .bss           0x180c5e3c        0x0 /usr/local/OAT/lib/gcc/arm-elf/4.3.2/../../../../arm-elf/lib/interwork/libc.a(lib_a-strcmp.o)
 .bss           0x180c5e3c        0x0 /usr/local/OAT/lib/gcc/arm-elf/4.3.2/../../../../arm-elf/lib/interwork/libc.a(lib_a-strcpy.o)
 .bss           0x180c5e3c        0x0 /usr/local/OAT/lib/gcc/arm-elf/4.3.2/../../../../arm-elf/lib/interwork/libc.a(lib_a-strdup.o)
 .bss           0x180c5e3c        0x0 /usr/local/OAT/lib/gcc/arm-elf/4.3.2/../../../../arm-elf/lib/interwork/libc.a(lib_a-strdup_r.o)
 .bss           0x180c5e3c        0x0 /usr/local/OAT/lib/gcc/arm-elf/4.3.2/../../../../arm-elf/lib/interwork/libc.a(lib_a-strlen.o)
 .bss           0x180c5e3c        0x0 /usr/local/OAT/lib/gcc/arm-elf/4.3.2/../../../../arm-elf/lib/interwork/libc.a(lib_a-strncat.o)
 .bss           0x180c5e3c        0x0 /usr/local/OAT/lib/gcc/arm-elf/4.3.2/../../../../arm-elf/lib/interwork/libc.a(lib_a-strncmp.o)
 .bss           0x180c5e3c        0x0 /usr/local/OAT/lib/gcc/arm-elf/4.3.2/../../../../arm-elf/lib/interwork/libc.a(lib_a-strncpy.o)
 .bss           0x180c5e3c        0x0 /usr/local/OAT/lib/gcc/arm-elf/4.3.2/../../../../arm-elf/lib/interwork/libc.a(lib_a-strsep.o)
 .bss           0x180c5e3c        0x0 /usr/local/OAT/lib/gcc/arm-elf/4.3.2/../../../../arm-elf/lib/interwork/libc.a(lib_a-strstr.o)
 .bss           0x180c5e3c        0x0 /usr/local/OAT/lib/gcc/arm-elf/4.3.2/../../../../arm-elf/lib/interwork/libc.a(lib_a-strtok.o)
 .bss           0x180c5e3c        0x0 /usr/local/OAT/lib/gcc/arm-elf/4.3.2/../../../../arm-elf/lib/interwork/libc.a(lib_a-strtok_r.o)
 .bss           0x180c5e3c        0x0 /usr/local/OAT/lib/gcc/arm-elf/4.3.2/../../../../arm-elf/lib/interwork/libc.a(lib_a-strtol.o)
 .bss           0x180c5e3c       0xb0 /usr/local/OAT/lib/gcc/arm-elf/4.3.2/../../../../arm-elf/lib/interwork/libc.a(lib_a-syscalls.o)
 .bss           0x180c5eec        0x0 /usr/local/OAT/lib/gcc/arm-elf/4.3.2/../../../../arm-elf/lib/interwork/libc.a(lib_a-syswrite.o)
 .bss           0x180c5eec        0x0 /usr/local/OAT/lib/gcc/arm-elf/4.3.2/../../../../arm-elf/lib/interwork/libc.a(lib_a-vasprintf.o)
 .bss           0x180c5eec        0x0 /usr/local/OAT/lib/gcc/arm-elf/4.3.2/../../../../arm-elf/lib/interwork/libc.a(lib_a-vfprintf.o)
 .bss           0x180c5eec        0x0 /usr/local/OAT/lib/gcc/arm-elf/4.3.2/../../../../arm-elf/lib/interwork/libc.a(lib_a-vfscanf.o)
 .bss           0x180c5eec        0x0 /usr/local/OAT/lib/gcc/arm-elf/4.3.2/../../../../arm-elf/lib/interwork/libc.a(lib_a-vsprintf.o)
 .bss           0x180c5eec        0x0 /usr/local/OAT/lib/gcc/arm-elf/4.3.2/../../../../arm-elf/lib/interwork/libc.a(lib_a-wsetup.o)
 .bss           0x180c5eec        0x0 /usr/local/OAT/lib/gcc/arm-elf/4.3.2/../../../../arm-elf/lib/interwork/libc.a(lib_a-OAT_close.o)
 .bss           0x180c5eec        0x0 /usr/local/OAT/lib/gcc/arm-elf/4.3.2/../../../../arm-elf/lib/interwork/libc.a(lib_a-OAT_fstat.o)
 .bss           0x180c5eec        0x0 /usr/local/OAT/lib/gcc/arm-elf/4.3.2/../../../../arm-elf/lib/interwork/libc.a(lib_a-OAT_isatty.o)
 .bss           0x180c5eec        0x0 /usr/local/OAT/lib/gcc/arm-elf/4.3.2/../../../../arm-elf/lib/interwork/libc.a(lib_a-OAT_kill.o)
 .bss           0x180c5eec        0x0 /usr/local/OAT/lib/gcc/arm-elf/4.3.2/../../../../arm-elf/lib/interwork/libc.a(lib_a-OAT_lseek.o)
 .bss           0x180c5eec        0x0 /usr/local/OAT/lib/gcc/arm-elf/4.3.2/../../../../arm-elf/lib/interwork/libc.a(lib_a-OAT_open.o)
 .bss           0x180c5eec        0x0 /usr/local/OAT/lib/gcc/arm-elf/4.3.2/../../../../arm-elf/lib/interwork/libc.a(lib_a-OAT_read.o)
 .bss           0x180c5eec        0x0 /usr/local/OAT/lib/gcc/arm-elf/4.3.2/../../../../arm-elf/lib/interwork/libc.a(lib_a-OAT_write.o)
 .bss           0x180c5eec        0x0 /usr/local/OAT/lib/gcc/arm-elf/4.3.2/../../../../arm-elf/lib/interwork/libc.a(lib_a-dtoa.o)
 .bss           0x180c5eec        0x0 /usr/local/OAT/lib/gcc/arm-elf/4.3.2/../../../../arm-elf/lib/interwork/libc.a(lib_a-fflush.o)
 .bss           0x180c5eec        0x0 /usr/local/OAT/lib/gcc/arm-elf/4.3.2/../../../../arm-elf/lib/interwork/libc.a(lib_a-findfp.o)
 .bss           0x180c5eec        0x0 /usr/local/OAT/lib/gcc/arm-elf/4.3.2/../../../../arm-elf/lib/interwork/libc.a(lib_a-fread.o)
 .bss           0x180c5eec        0x0 /usr/local/OAT/lib/gcc/arm-elf/4.3.2/../../../../arm-elf/lib/interwork/libc.a(lib_a-freer.o)
 .bss           0x180c5eec        0x0 /usr/local/OAT/lib/gcc/arm-elf/4.3.2/../../../../arm-elf/lib/interwork/libc.a(lib_a-fvwrite.o)
 .bss           0x180c5eec        0x0 /usr/local/OAT/lib/gcc/arm-elf/4.3.2/../../../../arm-elf/lib/interwork/libc.a(lib_a-fwalk.o)
 .bss           0x180c5eec        0x0 /usr/local/OAT/lib/gcc/arm-elf/4.3.2/../../../../arm-elf/lib/interwork/libc.a(lib_a-iswspace.o)
 .bss           0x180c5eec        0x0 /usr/local/OAT/lib/gcc/arm-elf/4.3.2/../../../../arm-elf/lib/interwork/libc.a(lib_a-makebuf.o)
 .bss           0x180c5eec        0x0 /usr/local/OAT/lib/gcc/arm-elf/4.3.2/../../../../arm-elf/lib/interwork/libc.a(lib_a-mbrtowc.o)
 .bss           0x180c5eec        0x0 /usr/local/OAT/lib/gcc/arm-elf/4.3.2/../../../../arm-elf/lib/interwork/libc.a(lib_a-mbtowc_r.o)
 .bss           0x180c5eec        0x0 /usr/local/OAT/lib/gcc/arm-elf/4.3.2/../../../../arm-elf/lib/interwork/libc.a(lib_a-memchr.o)
 .bss           0x180c5eec        0x0 /usr/local/OAT/lib/gcc/arm-elf/4.3.2/../../../../arm-elf/lib/interwork/libc.a(lib_a-memmove.o)
 .bss           0x180c5eec        0x0 /usr/local/OAT/lib/gcc/arm-elf/4.3.2/../../../../arm-elf/lib/interwork/libc.a(lib_a-mprec.o)
 .bss           0x180c5eec        0x0 /usr/local/OAT/lib/gcc/arm-elf/4.3.2/../../../../arm-elf/lib/interwork/libc.a(lib_a-reent.o)
 .bss           0x180c5eec        0x0 /usr/local/OAT/lib/gcc/arm-elf/4.3.2/../../../../arm-elf/lib/interwork/libc.a(lib_a-refill.o)
 .bss           0x180c5eec        0x0 /usr/local/OAT/lib/gcc/arm-elf/4.3.2/../../../../arm-elf/lib/interwork/libc.a(lib_a-s_isinfd.o)
 .bss           0x180c5eec        0x0 /usr/local/OAT/lib/gcc/arm-elf/4.3.2/../../../../arm-elf/lib/interwork/libc.a(lib_a-sccl.o)
 .bss           0x180c5eec        0x0 /usr/local/OAT/lib/gcc/arm-elf/4.3.2/../../../../arm-elf/lib/interwork/libc.a(lib_a-sf_nan.o)
 .bss           0x180c5eec        0x0 /usr/local/OAT/lib/gcc/arm-elf/4.3.2/../../../../arm-elf/lib/interwork/libc.a(lib_a-stdio.o)
 .bss           0x180c5eec        0x0 /usr/local/OAT/lib/gcc/arm-elf/4.3.2/../../../../arm-elf/lib/interwork/libc.a(lib_a-strtod.o)
 .bss           0x180c5eec        0x0 /usr/local/OAT/lib/gcc/arm-elf/4.3.2/../../../../arm-elf/lib/interwork/libc.a(lib_a-strtoul.o)
 .bss           0x180c5eec        0x0 /usr/local/OAT/lib/gcc/arm-elf/4.3.2/../../../../arm-elf/lib/interwork/libc.a(lib_a-ungetc.o)
 .bss           0x180c5eec        0x0 /usr/local/OAT/lib/gcc/arm-elf/4.3.2/../../../../arm-elf/lib/interwork/libc.a(lib_a-writer.o)
 .bss           0x180c5eec        0x0 /usr/local/OAT/lib/gcc/arm-elf/4.3.2/../../../../arm-elf/lib/interwork/libc.a(lib_a-callocr.o)
 .bss           0x180c5eec        0x0 /usr/local/OAT/lib/gcc/arm-elf/4.3.2/../../../../arm-elf/lib/interwork/libc.a(lib_a-closer.o)
 .bss           0x180c5eec        0x0 /usr/local/OAT/lib/gcc/arm-elf/4.3.2/../../../../arm-elf/lib/interwork/libc.a(lib_a-fclose.o)
 .bss           0x180c5eec        0x0 /usr/local/OAT/lib/gcc/arm-elf/4.3.2/../../../../arm-elf/lib/interwork/libc.a(lib_a-fstatr.o)
 .bss           0x180c5eec        0x0 /usr/local/OAT/lib/gcc/arm-elf/4.3.2/../../../../arm-elf/lib/interwork/libc.a(lib_a-gdtoa-gethex.o)
 .bss           0x180c5eec        0x0 /usr/local/OAT/lib/gcc/arm-elf/4.3.2/../../../../arm-elf/lib/interwork/libc.a(lib_a-gdtoa-hexnan.o)
 .bss           0x180c5eec        0x0 /usr/local/OAT/lib/gcc/arm-elf/4.3.2/../../../../arm-elf/lib/interwork/libc.a(lib_a-lseekr.o)
 .bss           0x180c5eec        0x0 /usr/local/OAT/lib/gcc/arm-elf/4.3.2/../../../../arm-elf/lib/interwork/libc.a(lib_a-readr.o)
 .bss           0x180c5eec        0x0 /usr/local/OAT/lib/gcc/arm-elf/4.3.2/interwork/libgcc.a(_truncdfsf2.o)
 *(COMMON)
 COMMON         0x180c5eec       0x3c src/adc.o
                0x180c5eec                EngineStartTime
                0x180c5f04                g_BatteryVltg
                0x180c5f08                g_AvgAnalogVltg
                0x180c5f0c                EngineStopTime
                0x180c5f24                g_BoardTemp
 COMMON         0x180c5f28       0x20 src/status.o
                0x180c5f28                g_status
 COMMON         0x180c5f48       0x3c src/GPSCtrl.o
                0x180c5f48                g_current_fix
                0x180c5f64                g_current_fix_32
                0x180c5f6c                g_VTGInfo
                0x180c5f74                g_GGAInfo
 COMMON         0x180c5f84      0x340 src/GpsInterface.o
                0x180c5f84                gps
                0x180c62b8                GPIOGPSHandle
                0x180c62bc                gVTGInfo
 COMMON         0x180c62c4      0x110 src/TempoCasesTask.o
                0x180c62c4                g_VoltagePct
                0x180c62c8                g_adCount
                0x180c62cc                g_fcm_Handle
                0x180c62d0                pTempoCasesTmrPtr
                0x180c62d4                g_alert
 COMMON         0x180c63d4      0x8c4 src/fence.o
                0x180c63d4                g_GeoFences
                0x180c6c6c                g_DogParkFence
 COMMON         0x180c6c98        0xc src/Accelerometer.o
                0x180c6c98                g_LowExtIrqHandle
                0x180c6c9c                ExtIntHandle
                0x180c6ca0                g_HighExtIrqHandle
 COMMON         0x180c6ca4      0xcd1 src/ota_at.o
                0x180c6ca4                OTA_Buffer
                0x180c7974                g_Pos
 COMMON         0x180c7975        0x1 src/XactTests.o
                0x180c7975                g_DogParkMode
 *fill*         0x180c7976        0x2 00
 COMMON         0x180c7978     0x1598 src/ConfigSettings.o
                0x180c7978                g_ModeConfig
                0x180c7984                g_AGPSData
                0x180c8d90                g_DiagConfig
                0x180c8e80                g_config
 COMMON         0x180c8f10        0x1 src/InternalFlash.o
                0x180c8f10                prev_SMSorGPRSMode
 *fill*         0x180c8f11        0x3 00
 COMMON         0x180c8f14        0x4 src/DOTAOperation.o
                0x180c8f14                gUSBTimeout
 COMMON         0x180c8f18      0x10f src/adl_main.o
                0x180c8f18                g_traceBuf
                0x180c9018                g_IMEI
 *fill*         0x180c9027        0x1 00
 COMMON         0x180c9028       0x10 src/USB.o
                0x180c9028                g_USBCommStruct
 COMMON         0x180c9038        0x4 src/i2c.o
                0x180c9038                AsyncReadCtxt
 COMMON         0x180c903c       0x11 src/ublox.o
                0x180c903c                gpsUblox
                0x180c904c                ubloxDataFcmHandle
 *fill*         0x180c904d        0x3 00
 COMMON         0x180c9050        0x4 src/GPRS.o
                0x180c9050                myBearer
 COMMON         0x180c9054      0x2df src/SMShandling.o
                0x180c9054                g_sms_tx_critical
                0x180c9104                waypoint_data
                0x180c9126                gx_rx
                0x180c9226                first_waypoint_data
                0x180c9248                tracking_interval_status
                0x180c9250                g_sms_tx
                0x180c9300                g_smsHandle
                0x180c9304                g_tx_status
                0x180c9324                SMS_PHN_NUM
 *fill*         0x180c9333        0x1 00
 COMMON         0x180c9334       0x7c src/CommandHandlerXACT.o
                0x180c9334                gVTGInfoTest
                0x180c933c                gGGAInfoTest
                0x180c934c                tmp_str
 COMMON         0x180c93b0      0x29c src/protocol.o
                0x180c93b0                g_rx
                0x180c94b0                g_DiagCmdOffset
                0x180c94b1                FTPAddress
                0x180c94c0                sms_waypoint_data
                0x180c954c                g_last_config
 COMMON         0x180c964c        0x8 flash_src/atmel_flashDriver.o
                0x180c964c                ActiveBuffer
                0x180c9650                spi1Handle
 COMMON         0x180c9654        0x4 mos_header.o
                0x180c9654                OpicWrapper
 COMMON         0x180c9658       0x3e /cygdrive/c/OpenAT/OS/6.21.02/ADL/gcc_wmadl_6.21.02.0.0.lib(adl_AppliInit.o)
                0x180c9658                adlint_dbgFcmFlow
                0x180c9659                adlint_cpLineBreak
                0x180c9660                adlint_rspIParam0
                0x180c9664                adlint_rspParam0
 *fill*         0x180c9696        0x2 00
 COMMON         0x180c9698        0x4 /cygdrive/c/OpenAT/OS/6.21.02/ADL/gcc_wmadl_6.21.02.0.0.lib(adl_call.o)
                0x180c9698                adlint_callAutoAnswerTimeOut
 COMMON         0x180c969c        0x4 /cygdrive/c/OpenAT/OS/6.21.02/ADL/gcc_wmadl_6.21.02.0.0.lib(adl_CmdHandler.o)
                0x180c969c                MyItfATCmdWrapperDescriptor
 COMMON         0x180c96a0        0x4 /cygdrive/c/OpenAT/OS/6.21.02/ADL/gcc_wmadl_6.21.02.0.0.lib(adl_sem.o)
                0x180c96a0                adlint_semWrapperItf
 COMMON         0x180c96a4       0x80 /cygdrive/c/OpenAT/Plug-ins/WIP/5.10.2020/WIP/gcc_wmwip_5.10.2020.lib(br_mgr_init.o)
                0x180c96a4                wipint_bearer_list
                0x180c96e4                wipint_bearer_toclose
 COMMON         0x180c9724      0x380 /cygdrive/c/OpenAT/Plug-ins/WIP/5.10.2020/WIP/gcc_wmwip_5.10.2020.lib(ch_channel.o)
                0x180c9724                wipint_event_queue
                0x180c98e4                wipint_closing_queue
 COMMON         0x180c9aa4       0x20 /cygdrive/c/OpenAT/Plug-ins/WIP/5.10.2020/WIP/gcc_wmwip_5.10.2020.lib(ftp.o)
                0x180c9aa4                wipint_ftp_timer_table
 COMMON         0x180c9ac4        0x4 /usr/local/OAT/lib/gcc/arm-elf/4.3.2/../../../../arm-elf/lib/interwork/libc.a(lib_a-reent.o)
                0x180c9ac4                errno
 COMMON         0x180c9ac8      0x100 /usr/local/OAT/lib/gcc/arm-elf/4.3.2/../../../../arm-elf/lib/interwork/libc.a(lib_a-gdtoa-gethex.o)
                0x180c9ac8                __hexdig
                0x180c9bc8                PROVIDE (Image$$APP_BSS$$Limit, .)
                0x180c9bc8                PROVIDE (Image$$ZI$$Limit, .)
                0x00008c84                PROVIDE (Image$$APP_BSS$$ZI$$Length, SIZEOF (.bss))
                0x00008c84                PROVIDE (Image$$ER_ZI$$ZI$$Length, SIZEOF (.bss))
                0x180c9bc8                _ebss = .
                0x180c9bc8                __bss_end__ = .

.uninit         0x180c9bc8        0x0
                0x180c9bc8                PROVIDE (Image$$APP_UNINIT$$Base, .)
 *(UNINIT)
                0x180c9bc8                PROVIDE (Image$$APP_UNINIT$$Limit, .)
                0x180c9bc8                PROVIDE (end, .)
                0x00000000                PROVIDE (Image$$APP_UNINIT$$ZI$$Length, SIZEOF (.uninit))
                0x180c9bc8                . = ALIGN (0x4)
START GROUP
LOAD /usr/local/OAT/lib/gcc/arm-elf/4.3.2/../../../../arm-elf/lib/interwork/libm.a
LOAD /cygdrive/c/OpenAT/OS/6.21.02/ADL/gcc_wmadl_6.21.02.0.0.lib
LOAD /cygdrive/c/OpenAT/Plug-ins/WIP/5.10.2020/WIP/gcc_wmwip_5.10.2020.lib
END GROUP
START GROUP
LOAD /usr/local/OAT/lib/gcc/arm-elf/4.3.2/interwork/libgcc.a
LOAD /usr/local/OAT/lib/gcc/arm-elf/4.3.2/../../../../arm-elf/lib/interwork/libc.a
END GROUP
OUTPUT(XACT.elf elf32-littlearm)

.comment        0x00000000     0x1050
 .comment       0x00000000       0x12 src/gpioTest.o
 .comment       0x00000012       0x12 src/adc.o
 .comment       0x00000024       0x12 src/FlashTest.o
 .comment       0x00000036       0x12 src/wyhook_HAL.o
 .comment       0x00000048       0x12 src/XactUtilities.o
 .comment       0x0000005a       0x12 src/SimOperations.o
 .comment       0x0000006c       0x12 src/status.o
 .comment       0x0000007e       0x12 src/WaypointControl.o
 .comment       0x00000090       0x12 src/alarm_suppress.o
 .comment       0x000000a2       0x12 src/GPSCtrl.o
 .comment       0x000000b4       0x12 src/anolclient.o
 .comment       0x000000c6       0x12 src/GpsInterface.o
 .comment       0x000000d8       0x12 src/LED.o
 .comment       0x000000ea       0x12 src/TempoCasesTask.o
 .comment       0x000000fc       0x12 src/PowerCtrl.o
 .comment       0x0000010e       0x12 src/i2c_accelerometer.o
 .comment       0x00000120       0x12 src/wyhook_Application.o
 .comment       0x00000132       0x12 src/fence.o
 .comment       0x00000144       0x12 src/Accelerometer.o
 .comment       0x00000156       0x12 src/ota_at.o
 .comment       0x00000168       0x12 src/XactTests.o
 .comment       0x0000017a       0x12 src/wyhook_Message.o
 .comment       0x0000018c       0x12 src/ConfigSettings.o
 .comment       0x0000019e       0x12 src/InternalFlash.o
 .comment       0x000001b0       0x12 src/haversine.o
 .comment       0x000001c2       0x12 src/CallBackMethods.o
 .comment       0x000001d4       0x12 src/Timers.o
 .comment       0x000001e6       0x12 src/VibrationMotor.o
 .comment       0x000001f8       0x12 src/button.o
 .comment       0x0000020a       0x12 src/DOTAOperation.o
 .comment       0x0000021c       0x12 src/gpioconfig.o
 .comment       0x0000022e       0x12 src/adl_main.o
 .comment       0x00000240       0x12 src/dogwalk.o
 .comment       0x00000252       0x12 src/COMMR572.o
 .comment       0x00000264       0x12 src/USB.o
 .comment       0x00000276       0x12 src/i2c.o
 .comment       0x00000288       0x12 src/ublox.o
 .comment       0x0000029a       0x12 src/GPRS.o
 .comment       0x000002ac       0x12 src/SMShandling.o
 .comment       0x000002be       0x12 src/Traces.o
 .comment       0x000002d0       0x12 src/airplane_mode.o
 .comment       0x000002e2       0x12 src/CommandHandlerXACT.o
 .comment       0x000002f4       0x12 src/protocol.o
 .comment       0x00000306       0x12 src/diagnose.o
 .comment       0x00000318       0x12 flash_src/atmel_flashDriver.o
 .comment       0x0000032a       0x12 /usr/local/OAT/lib/gcc/arm-elf/4.3.2/../../../../arm-elf/lib/interwork/libm.a(lib_a-s_cos.o)
 .comment       0x0000033c       0x12 /usr/local/OAT/lib/gcc/arm-elf/4.3.2/../../../../arm-elf/lib/interwork/libm.a(lib_a-s_sin.o)
 .comment       0x0000034e       0x12 /usr/local/OAT/lib/gcc/arm-elf/4.3.2/../../../../arm-elf/lib/interwork/libm.a(lib_a-w_atan2.o)
 .comment       0x00000360       0x12 /usr/local/OAT/lib/gcc/arm-elf/4.3.2/../../../../arm-elf/lib/interwork/libm.a(lib_a-w_sqrt.o)
 .comment       0x00000372       0x12 /usr/local/OAT/lib/gcc/arm-elf/4.3.2/../../../../arm-elf/lib/interwork/libm.a(lib_a-e_atan2.o)
 .comment       0x00000384       0x12 /usr/local/OAT/lib/gcc/arm-elf/4.3.2/../../../../arm-elf/lib/interwork/libm.a(lib_a-e_rem_pio2.o)
 .comment       0x00000396       0x12 /usr/local/OAT/lib/gcc/arm-elf/4.3.2/../../../../arm-elf/lib/interwork/libm.a(lib_a-e_sqrt.o)
 .comment       0x000003a8       0x12 /usr/local/OAT/lib/gcc/arm-elf/4.3.2/../../../../arm-elf/lib/interwork/libm.a(lib_a-k_cos.o)
 .comment       0x000003ba       0x12 /usr/local/OAT/lib/gcc/arm-elf/4.3.2/../../../../arm-elf/lib/interwork/libm.a(lib_a-k_rem_pio2.o)
 .comment       0x000003cc       0x12 /usr/local/OAT/lib/gcc/arm-elf/4.3.2/../../../../arm-elf/lib/interwork/libm.a(lib_a-k_sin.o)
 .comment       0x000003de       0x12 /usr/local/OAT/lib/gcc/arm-elf/4.3.2/../../../../arm-elf/lib/interwork/libm.a(lib_a-s_atan.o)
 .comment       0x000003f0       0x12 /usr/local/OAT/lib/gcc/arm-elf/4.3.2/../../../../arm-elf/lib/interwork/libm.a(lib_a-s_fabs.o)
 .comment       0x00000402       0x12 /usr/local/OAT/lib/gcc/arm-elf/4.3.2/../../../../arm-elf/lib/interwork/libm.a(lib_a-s_floor.o)
 .comment       0x00000414       0x12 /usr/local/OAT/lib/gcc/arm-elf/4.3.2/../../../../arm-elf/lib/interwork/libm.a(lib_a-s_isnand.o)
 .comment       0x00000426       0x12 /usr/local/OAT/lib/gcc/arm-elf/4.3.2/../../../../arm-elf/lib/interwork/libm.a(lib_a-s_lib_ver.o)
 .comment       0x00000438       0x12 /usr/local/OAT/lib/gcc/arm-elf/4.3.2/../../../../arm-elf/lib/interwork/libm.a(lib_a-s_matherr.o)
 .comment       0x0000044a       0x12 /usr/local/OAT/lib/gcc/arm-elf/4.3.2/../../../../arm-elf/lib/interwork/libm.a(lib_a-s_scalbn.o)
 .comment       0x0000045c       0x12 /usr/local/OAT/lib/gcc/arm-elf/4.3.2/../../../../arm-elf/lib/interwork/libm.a(lib_a-s_copysign.o)
 .comment       0x0000046e       0x12 mos_header.o
 .comment       0x00000480       0x12 /cygdrive/c/OpenAT/OS/6.21.02/ADL/gcc_wmadl_6.21.02.0.0.lib(mos_ftr.o)
 .comment       0x00000492       0x12 /cygdrive/c/OpenAT/OS/6.21.02/ADL/gcc_wmadl_6.21.02.0.0.lib(opec_lst.o)
 .comment       0x000004a4       0x12 /cygdrive/c/OpenAT/OS/6.21.02/ADL/gcc_wmadl_6.21.02.0.0.lib(opec_std.o)
 .comment       0x000004b6       0x12 /cygdrive/c/OpenAT/OS/6.21.02/ADL/gcc_wmadl_6.21.02.0.0.lib(adl_ad.o)
 .comment       0x000004c8       0x12 /cygdrive/c/OpenAT/OS/6.21.02/ADL/gcc_wmadl_6.21.02.0.0.lib(adl_adc.o)
 .comment       0x000004da       0x12 /cygdrive/c/OpenAT/OS/6.21.02/ADL/gcc_wmadl_6.21.02.0.0.lib(adl_AppliInit.o)
 .comment       0x000004ec       0x12 /cygdrive/c/OpenAT/OS/6.21.02/ADL/gcc_wmadl_6.21.02.0.0.lib(adl_audio.o)
 .comment       0x000004fe       0x12 /cygdrive/c/OpenAT/OS/6.21.02/ADL/gcc_wmadl_6.21.02.0.0.lib(adl_bus.o)
 .comment       0x00000510       0x12 /cygdrive/c/OpenAT/OS/6.21.02/ADL/gcc_wmadl_6.21.02.0.0.lib(adl_call.o)
 .comment       0x00000522       0x12 /cygdrive/c/OpenAT/OS/6.21.02/ADL/gcc_wmadl_6.21.02.0.0.lib(adl_CmdHandler.o)
 .comment       0x00000534       0x12 /cygdrive/c/OpenAT/OS/6.21.02/ADL/gcc_wmadl_6.21.02.0.0.lib(adl_CmdProcessor.o)
 .comment       0x00000546       0x12 /cygdrive/c/OpenAT/OS/6.21.02/ADL/gcc_wmadl_6.21.02.0.0.lib(adl_CmdStackHandler.o)
 .comment       0x00000558       0x12 /cygdrive/c/OpenAT/OS/6.21.02/ADL/gcc_wmadl_6.21.02.0.0.lib(adl_ctx.o)
 .comment       0x0000056a       0x12 /cygdrive/c/OpenAT/OS/6.21.02/ADL/gcc_wmadl_6.21.02.0.0.lib(adl_defaut_buildtime.o)
 .comment       0x0000057c       0x12 /cygdrive/c/OpenAT/OS/6.21.02/ADL/gcc_wmadl_6.21.02.0.0.lib(adl_defaut_extend.o)
 .comment       0x0000058e       0x12 /cygdrive/c/OpenAT/OS/6.21.02/ADL/gcc_wmadl_6.21.02.0.0.lib(adl_defaut_selist.o)
 .comment       0x000005a0       0x12 /cygdrive/c/OpenAT/OS/6.21.02/ADL/gcc_wmadl_6.21.02.0.0.lib(adl_defaut_timeslicing.o)
 .comment       0x000005b2       0x12 /cygdrive/c/OpenAT/OS/6.21.02/ADL/gcc_wmadl_6.21.02.0.0.lib(adl_error.o)
 .comment       0x000005c4       0x12 /cygdrive/c/OpenAT/OS/6.21.02/ADL/gcc_wmadl_6.21.02.0.0.lib(adl_EventMachine.o)
 .comment       0x000005d6       0x12 /cygdrive/c/OpenAT/OS/6.21.02/ADL/gcc_wmadl_6.21.02.0.0.lib(adl_extint.o)
 .comment       0x000005e8       0x12 /cygdrive/c/OpenAT/OS/6.21.02/ADL/gcc_wmadl_6.21.02.0.0.lib(adl_extint_deprecated.o)
 .comment       0x000005fa       0x12 /cygdrive/c/OpenAT/OS/6.21.02/ADL/gcc_wmadl_6.21.02.0.0.lib(adl_fcm.o)
 .comment       0x0000060c       0x12 /cygdrive/c/OpenAT/OS/6.21.02/ADL/gcc_wmadl_6.21.02.0.0.lib(adl_flash.o)
 .comment       0x0000061e       0x12 /cygdrive/c/OpenAT/OS/6.21.02/ADL/gcc_wmadl_6.21.02.0.0.lib(adl_gpio.o)
 .comment       0x00000630       0x12 /cygdrive/c/OpenAT/OS/6.21.02/ADL/gcc_wmadl_6.21.02.0.0.lib(adl_gprs.o)
 .comment       0x00000642       0x12 /cygdrive/c/OpenAT/OS/6.21.02/ADL/gcc_wmadl_6.21.02.0.0.lib(adl_irq.o)
 .comment       0x00000654       0x12 /cygdrive/c/OpenAT/OS/6.21.02/ADL/gcc_wmadl_6.21.02.0.0.lib(adl_memory.o)
 .comment       0x00000666       0x12 /cygdrive/c/OpenAT/OS/6.21.02/ADL/gcc_wmadl_6.21.02.0.0.lib(adl_msg.o)
 .comment       0x00000678       0x12 /cygdrive/c/OpenAT/OS/6.21.02/ADL/gcc_wmadl_6.21.02.0.0.lib(adl_port.o)
 .comment       0x0000068a       0x12 /cygdrive/c/OpenAT/OS/6.21.02/ADL/gcc_wmadl_6.21.02.0.0.lib(adl_reg.o)
 .comment       0x0000069c       0x12 /cygdrive/c/OpenAT/OS/6.21.02/ADL/gcc_wmadl_6.21.02.0.0.lib(adl_RspHandler.o)
 .comment       0x000006ae       0x12 /cygdrive/c/OpenAT/OS/6.21.02/ADL/gcc_wmadl_6.21.02.0.0.lib(adl_rtc.o)
 .comment       0x000006c0       0x12 /cygdrive/c/OpenAT/OS/6.21.02/ADL/gcc_wmadl_6.21.02.0.0.lib(adl_sem.o)
 .comment       0x000006d2       0x12 /cygdrive/c/OpenAT/OS/6.21.02/ADL/gcc_wmadl_6.21.02.0.0.lib(adl_serv.o)
 .comment       0x000006e4       0x12 /cygdrive/c/OpenAT/OS/6.21.02/ADL/gcc_wmadl_6.21.02.0.0.lib(adl_sim.o)
 .comment       0x000006f6       0x12 /cygdrive/c/OpenAT/OS/6.21.02/ADL/gcc_wmadl_6.21.02.0.0.lib(adl_sms.o)
 .comment       0x00000708       0x12 /cygdrive/c/OpenAT/OS/6.21.02/ADL/gcc_wmadl_6.21.02.0.0.lib(adl_str.o)
 .comment       0x0000071a       0x12 /cygdrive/c/OpenAT/OS/6.21.02/ADL/gcc_wmadl_6.21.02.0.0.lib(adl_TimerHandler.o)
 .comment       0x0000072c       0x12 /cygdrive/c/OpenAT/OS/6.21.02/ADL/gcc_wmadl_6.21.02.0.0.lib(adl_traces.o)
 .comment       0x0000073e       0x12 /cygdrive/c/OpenAT/OS/6.21.02/ADL/gcc_wmadl_6.21.02.0.0.lib(adl_UnSoHandler.o)
 .comment       0x00000750       0x12 /cygdrive/c/OpenAT/OS/6.21.02/ADL/gcc_wmadl_6.21.02.0.0.lib(adl_wd.o)
 .comment       0x00000762       0x12 /cygdrive/c/OpenAT/Plug-ins/WIP/5.10.2020/WIP/gcc_wmwip_5.10.2020.lib(br_close.o)
 .comment       0x00000774       0x12 /cygdrive/c/OpenAT/Plug-ins/WIP/5.10.2020/WIP/gcc_wmwip_5.10.2020.lib(br_getopts.o)
 .comment       0x00000786       0x12 /cygdrive/c/OpenAT/Plug-ins/WIP/5.10.2020/WIP/gcc_wmwip_5.10.2020.lib(br_mgr_init.o)
 .comment       0x00000798       0x12 /cygdrive/c/OpenAT/Plug-ins/WIP/5.10.2020/WIP/gcc_wmwip_5.10.2020.lib(br_open.o)
 .comment       0x000007aa       0x12 /cygdrive/c/OpenAT/Plug-ins/WIP/5.10.2020/WIP/gcc_wmwip_5.10.2020.lib(br_setopts.o)
 .comment       0x000007bc       0x12 /cygdrive/c/OpenAT/Plug-ins/WIP/5.10.2020/WIP/gcc_wmwip_5.10.2020.lib(br_start.o)
 .comment       0x000007ce       0x12 /cygdrive/c/OpenAT/Plug-ins/WIP/5.10.2020/WIP/gcc_wmwip_5.10.2020.lib(br_v24.o)
 .comment       0x000007e0       0x12 /cygdrive/c/OpenAT/Plug-ins/WIP/5.10.2020/WIP/gcc_wmwip_5.10.2020.lib(ch_channel.o)
 .comment       0x000007f2       0x12 /cygdrive/c/OpenAT/Plug-ins/WIP/5.10.2020/WIP/gcc_wmwip_5.10.2020.lib(ch_tcp_client.o)
 .comment       0x00000804       0x12 /cygdrive/c/OpenAT/Plug-ins/WIP/5.10.2020/WIP/gcc_wmwip_5.10.2020.lib(ch_udp.o)
 .comment       0x00000816       0x12 /cygdrive/c/OpenAT/Plug-ins/WIP/5.10.2020/WIP/gcc_wmwip_5.10.2020.lib(file.o)
 .comment       0x00000828       0x12 /cygdrive/c/OpenAT/Plug-ins/WIP/5.10.2020/WIP/gcc_wmwip_5.10.2020.lib(ftp.o)
 .comment       0x0000083a       0x12 /cygdrive/c/OpenAT/Plug-ins/WIP/5.10.2020/WIP/gcc_wmwip_5.10.2020.lib(ftp_evh.o)
 .comment       0x0000084c       0x12 /cygdrive/c/OpenAT/Plug-ins/WIP/5.10.2020/WIP/gcc_wmwip_5.10.2020.lib(ftp_list.o)
 .comment       0x0000085e       0x12 /cygdrive/c/OpenAT/Plug-ins/WIP/5.10.2020/WIP/gcc_wmwip_5.10.2020.lib(ftr.o)
 .comment       0x00000870       0x12 /cygdrive/c/OpenAT/Plug-ins/WIP/5.10.2020/WIP/gcc_wmwip_5.10.2020.lib(in_aton.o)
 .comment       0x00000882       0x12 /cygdrive/c/OpenAT/Plug-ins/WIP/5.10.2020/WIP/gcc_wmwip_5.10.2020.lib(in_ntoa.o)
 .comment       0x00000894       0x12 /cygdrive/c/OpenAT/Plug-ins/WIP/5.10.2020/WIP/gcc_wmwip_5.10.2020.lib(list_plugin_unix.o)
 .comment       0x000008a6       0x12 /cygdrive/c/OpenAT/Plug-ins/WIP/5.10.2020/WIP/gcc_wmwip_5.10.2020.lib(net_debug.o)
 .comment       0x000008b8       0x12 /cygdrive/c/OpenAT/Plug-ins/WIP/5.10.2020/WIP/gcc_wmwip_5.10.2020.lib(net_init.o)
 .comment       0x000008ca       0x12 /cygdrive/c/OpenAT/Plug-ins/WIP/5.10.2020/WIP/gcc_wmwip_5.10.2020.lib(net_initopts.o)
 .comment       0x000008dc       0x12 /cygdrive/c/OpenAT/Plug-ins/WIP/5.10.2020/WIP/gcc_wmwip_5.10.2020.lib(net_setopts.o)
 .comment       0x000008ee       0x12 /cygdrive/c/OpenAT/Plug-ins/WIP/5.10.2020/WIP/gcc_wmwip_5.10.2020.lib(net_sync.o)
 .comment       0x00000900       0x12 /cygdrive/c/OpenAT/Plug-ins/WIP/5.10.2020/WIP/gcc_wmwip_5.10.2020.lib(queue.o)
 .comment       0x00000912       0x12 /cygdrive/c/OpenAT/Plug-ins/WIP/5.10.2020/WIP/gcc_wmwip_5.10.2020.lib(readline.o)
 .comment       0x00000924       0x12 /cygdrive/c/OpenAT/Plug-ins/WIP/5.10.2020/WIP/gcc_wmwip_5.10.2020.lib(wip_subLevelOpts.o)
 .comment       0x00000936       0x12 /cygdrive/c/OpenAT/Plug-ins/WIP/5.10.2020/WIP/gcc_wmwip_5.10.2020.lib(wrapper.o)
 .comment       0x00000948       0x12 /cygdrive/c/OpenAT/Plug-ins/WIP/5.10.2020/WIP/gcc_wmwip_5.10.2020.lib(wm_net_hton.o)
 .comment       0x0000095a       0x12 /cygdrive/c/OpenAT/Plug-ins/WIP/5.10.2020/WIP/gcc_wmwip_5.10.2020.lib(wm_net_in_aton.o)
 .comment       0x0000096c       0x12 /cygdrive/c/OpenAT/Plug-ins/WIP/5.10.2020/WIP/gcc_wmwip_5.10.2020.lib(wm_net_in_ntoa.o)
 .comment       0x0000097e       0x12 /cygdrive/c/OpenAT/Plug-ins/WIP/5.10.2020/WIP/gcc_wmwip_5.10.2020.lib(wm_net_wrapper.o)
 .comment       0x00000990       0x12 /cygdrive/c/OpenAT/Plug-ins/WIP/5.10.2020/WIP/gcc_wmwip_5.10.2020.lib(rawprint.o)
 .comment       0x000009a2       0x12 /cygdrive/c/OpenAT/Plug-ins/WIP/5.10.2020/WIP/gcc_wmwip_5.10.2020.lib(br_eth.o)
 .comment       0x000009b4       0x12 /cygdrive/c/OpenAT/Plug-ins/WIP/5.10.2020/WIP/gcc_wmwip_5.10.2020.lib(br_gen_close.o)
 .comment       0x000009c6       0x12 /cygdrive/c/OpenAT/Plug-ins/WIP/5.10.2020/WIP/gcc_wmwip_5.10.2020.lib(br_gen_getopt.o)
 .comment       0x000009d8       0x12 /cygdrive/c/OpenAT/Plug-ins/WIP/5.10.2020/WIP/gcc_wmwip_5.10.2020.lib(br_gen_setopt.o)
 .comment       0x000009ea       0x12 /cygdrive/c/OpenAT/Plug-ins/WIP/5.10.2020/WIP/gcc_wmwip_5.10.2020.lib(br_gen_stop.o)
 .comment       0x000009fc       0x12 /cygdrive/c/OpenAT/Plug-ins/WIP/5.10.2020/WIP/gcc_wmwip_5.10.2020.lib(br_gprs.o)
 .comment       0x00000a0e       0x12 /cygdrive/c/OpenAT/Plug-ins/WIP/5.10.2020/WIP/gcc_wmwip_5.10.2020.lib(br_gsm.o)
 .comment       0x00000a20       0x12 /cygdrive/c/OpenAT/Plug-ins/WIP/5.10.2020/WIP/gcc_wmwip_5.10.2020.lib(br_mgr_debug.o)
 .comment       0x00000a32       0x12 /cygdrive/c/OpenAT/Plug-ins/WIP/5.10.2020/WIP/gcc_wmwip_5.10.2020.lib(br_ppp_getopt.o)
 .comment       0x00000a44       0x12 /cygdrive/c/OpenAT/Plug-ins/WIP/5.10.2020/WIP/gcc_wmwip_5.10.2020.lib(br_ppp_init.o)
 .comment       0x00000a56       0x12 /cygdrive/c/OpenAT/Plug-ins/WIP/5.10.2020/WIP/gcc_wmwip_5.10.2020.lib(br_ppp_setopt.o)
 .comment       0x00000a68       0x12 /cygdrive/c/OpenAT/Plug-ins/WIP/5.10.2020/WIP/gcc_wmwip_5.10.2020.lib(br_ppp_start.o)
 .comment       0x00000a7a       0x12 /cygdrive/c/OpenAT/Plug-ins/WIP/5.10.2020/WIP/gcc_wmwip_5.10.2020.lib(br_ppp_stop.o)
 .comment       0x00000a8c       0x12 /cygdrive/c/OpenAT/Plug-ins/WIP/5.10.2020/WIP/gcc_wmwip_5.10.2020.lib(ch_class.o)
 .comment       0x00000a9e       0x12 /cygdrive/c/OpenAT/Plug-ins/WIP/5.10.2020/WIP/gcc_wmwip_5.10.2020.lib(ch_tcp_server.o)
 .comment       0x00000ab0       0x12 /usr/local/OAT/lib/gcc/arm-elf/4.3.2/../../../../arm-elf/lib/interwork/libc.a(lib_a-asprintf.o)
 .comment       0x00000ac2       0x12 /usr/local/OAT/lib/gcc/arm-elf/4.3.2/../../../../arm-elf/lib/interwork/libc.a(lib_a-atoi.o)
 .comment       0x00000ad4       0x12 /usr/local/OAT/lib/gcc/arm-elf/4.3.2/../../../../arm-elf/lib/interwork/libc.a(lib_a-ctype_.o)
 .comment       0x00000ae6       0x12 /usr/local/OAT/lib/gcc/arm-elf/4.3.2/../../../../arm-elf/lib/interwork/libc.a(lib_a-errno.o)
 .comment       0x00000af8       0x12 /usr/local/OAT/lib/gcc/arm-elf/4.3.2/../../../../arm-elf/lib/interwork/libc.a(lib_a-impure.o)
 .comment       0x00000b0a       0x12 /usr/local/OAT/lib/gcc/arm-elf/4.3.2/../../../../arm-elf/lib/interwork/libc.a(lib_a-locale.o)
 .comment       0x00000b1c       0x12 /usr/local/OAT/lib/gcc/arm-elf/4.3.2/../../../../arm-elf/lib/interwork/libc.a(lib_a-malloc.o)
 .comment       0x00000b2e       0x12 /usr/local/OAT/lib/gcc/arm-elf/4.3.2/../../../../arm-elf/lib/interwork/libc.a(lib_a-mallocr.o)
 .comment       0x00000b40       0x12 /usr/local/OAT/lib/gcc/arm-elf/4.3.2/../../../../arm-elf/lib/interwork/libc.a(lib_a-memcmp.o)
 .comment       0x00000b52       0x12 /usr/local/OAT/lib/gcc/arm-elf/4.3.2/../../../../arm-elf/lib/interwork/libc.a(lib_a-memcpy.o)
 .comment       0x00000b64       0x12 /usr/local/OAT/lib/gcc/arm-elf/4.3.2/../../../../arm-elf/lib/interwork/libc.a(lib_a-memset.o)
 .comment       0x00000b76       0x12 /usr/local/OAT/lib/gcc/arm-elf/4.3.2/../../../../arm-elf/lib/interwork/libc.a(lib_a-mlock.o)
 .comment       0x00000b88       0x12 /usr/local/OAT/lib/gcc/arm-elf/4.3.2/../../../../arm-elf/lib/interwork/libc.a(lib_a-printf.o)
 .comment       0x00000b9a       0x12 /usr/local/OAT/lib/gcc/arm-elf/4.3.2/../../../../arm-elf/lib/interwork/libc.a(lib_a-realloc.o)
 .comment       0x00000bac       0x12 /usr/local/OAT/lib/gcc/arm-elf/4.3.2/../../../../arm-elf/lib/interwork/libc.a(lib_a-reallocr.o)
 .comment       0x00000bbe       0x12 /usr/local/OAT/lib/gcc/arm-elf/4.3.2/../../../../arm-elf/lib/interwork/libc.a(lib_a-sbrkr.o)
 .comment       0x00000bd0       0x12 /usr/local/OAT/lib/gcc/arm-elf/4.3.2/../../../../arm-elf/lib/interwork/libc.a(lib_a-sprintf.o)
 .comment       0x00000be2       0x12 /usr/local/OAT/lib/gcc/arm-elf/4.3.2/../../../../arm-elf/lib/interwork/libc.a(lib_a-sscanf.o)
 .comment       0x00000bf4       0x12 /usr/local/OAT/lib/gcc/arm-elf/4.3.2/../../../../arm-elf/lib/interwork/libc.a(lib_a-strcat.o)
 .comment       0x00000c06       0x12 /usr/local/OAT/lib/gcc/arm-elf/4.3.2/../../../../arm-elf/lib/interwork/libc.a(lib_a-strchr.o)
 .comment       0x00000c18       0x12 /usr/local/OAT/lib/gcc/arm-elf/4.3.2/../../../../arm-elf/lib/interwork/libc.a(lib_a-strcmp.o)
 .comment       0x00000c2a       0x12 /usr/local/OAT/lib/gcc/arm-elf/4.3.2/../../../../arm-elf/lib/interwork/libc.a(lib_a-strcpy.o)
 .comment       0x00000c3c       0x12 /usr/local/OAT/lib/gcc/arm-elf/4.3.2/../../../../arm-elf/lib/interwork/libc.a(lib_a-strdup.o)
 .comment       0x00000c4e       0x12 /usr/local/OAT/lib/gcc/arm-elf/4.3.2/../../../../arm-elf/lib/interwork/libc.a(lib_a-strdup_r.o)
 .comment       0x00000c60       0x12 /usr/local/OAT/lib/gcc/arm-elf/4.3.2/../../../../arm-elf/lib/interwork/libc.a(lib_a-strlen.o)
 .comment       0x00000c72       0x12 /usr/local/OAT/lib/gcc/arm-elf/4.3.2/../../../../arm-elf/lib/interwork/libc.a(lib_a-strncat.o)
 .comment       0x00000c84       0x12 /usr/local/OAT/lib/gcc/arm-elf/4.3.2/../../../../arm-elf/lib/interwork/libc.a(lib_a-strncmp.o)
 .comment       0x00000c96       0x12 /usr/local/OAT/lib/gcc/arm-elf/4.3.2/../../../../arm-elf/lib/interwork/libc.a(lib_a-strncpy.o)
 .comment       0x00000ca8       0x12 /usr/local/OAT/lib/gcc/arm-elf/4.3.2/../../../../arm-elf/lib/interwork/libc.a(lib_a-strsep.o)
 .comment       0x00000cba       0x12 /usr/local/OAT/lib/gcc/arm-elf/4.3.2/../../../../arm-elf/lib/interwork/libc.a(lib_a-strstr.o)
 .comment       0x00000ccc       0x12 /usr/local/OAT/lib/gcc/arm-elf/4.3.2/../../../../arm-elf/lib/interwork/libc.a(lib_a-strtok.o)
 .comment       0x00000cde       0x12 /usr/local/OAT/lib/gcc/arm-elf/4.3.2/../../../../arm-elf/lib/interwork/libc.a(lib_a-strtok_r.o)
 .comment       0x00000cf0       0x12 /usr/local/OAT/lib/gcc/arm-elf/4.3.2/../../../../arm-elf/lib/interwork/libc.a(lib_a-strtol.o)
 .comment       0x00000d02       0x12 /usr/local/OAT/lib/gcc/arm-elf/4.3.2/../../../../arm-elf/lib/interwork/libc.a(lib_a-syscalls.o)
 .comment       0x00000d14       0x12 /usr/local/OAT/lib/gcc/arm-elf/4.3.2/../../../../arm-elf/lib/interwork/libc.a(lib_a-syswrite.o)
 .comment       0x00000d26       0x12 /usr/local/OAT/lib/gcc/arm-elf/4.3.2/../../../../arm-elf/lib/interwork/libc.a(lib_a-vasprintf.o)
 .comment       0x00000d38       0x12 /usr/local/OAT/lib/gcc/arm-elf/4.3.2/../../../../arm-elf/lib/interwork/libc.a(lib_a-vfprintf.o)
 .comment       0x00000d4a       0x12 /usr/local/OAT/lib/gcc/arm-elf/4.3.2/../../../../arm-elf/lib/interwork/libc.a(lib_a-vfscanf.o)
 .comment       0x00000d5c       0x12 /usr/local/OAT/lib/gcc/arm-elf/4.3.2/../../../../arm-elf/lib/interwork/libc.a(lib_a-vsprintf.o)
 .comment       0x00000d6e       0x12 /usr/local/OAT/lib/gcc/arm-elf/4.3.2/../../../../arm-elf/lib/interwork/libc.a(lib_a-wsetup.o)
 .comment       0x00000d80       0x12 /usr/local/OAT/lib/gcc/arm-elf/4.3.2/../../../../arm-elf/lib/interwork/libc.a(lib_a-OAT_close.o)
 .comment       0x00000d92       0x12 /usr/local/OAT/lib/gcc/arm-elf/4.3.2/../../../../arm-elf/lib/interwork/libc.a(lib_a-OAT_fstat.o)
 .comment       0x00000da4       0x12 /usr/local/OAT/lib/gcc/arm-elf/4.3.2/../../../../arm-elf/lib/interwork/libc.a(lib_a-OAT_isatty.o)
 .comment       0x00000db6       0x12 /usr/local/OAT/lib/gcc/arm-elf/4.3.2/../../../../arm-elf/lib/interwork/libc.a(lib_a-OAT_kill.o)
 .comment       0x00000dc8       0x12 /usr/local/OAT/lib/gcc/arm-elf/4.3.2/../../../../arm-elf/lib/interwork/libc.a(lib_a-OAT_lseek.o)
 .comment       0x00000dda       0x12 /usr/local/OAT/lib/gcc/arm-elf/4.3.2/../../../../arm-elf/lib/interwork/libc.a(lib_a-OAT_open.o)
 .comment       0x00000dec       0x12 /usr/local/OAT/lib/gcc/arm-elf/4.3.2/../../../../arm-elf/lib/interwork/libc.a(lib_a-OAT_read.o)
 .comment       0x00000dfe       0x12 /usr/local/OAT/lib/gcc/arm-elf/4.3.2/../../../../arm-elf/lib/interwork/libc.a(lib_a-OAT_write.o)
 .comment       0x00000e10       0x12 /usr/local/OAT/lib/gcc/arm-elf/4.3.2/../../../../arm-elf/lib/interwork/libc.a(lib_a-dtoa.o)
 .comment       0x00000e22       0x12 /usr/local/OAT/lib/gcc/arm-elf/4.3.2/../../../../arm-elf/lib/interwork/libc.a(lib_a-fflush.o)
 .comment       0x00000e34       0x12 /usr/local/OAT/lib/gcc/arm-elf/4.3.2/../../../../arm-elf/lib/interwork/libc.a(lib_a-findfp.o)
 .comment       0x00000e46       0x12 /usr/local/OAT/lib/gcc/arm-elf/4.3.2/../../../../arm-elf/lib/interwork/libc.a(lib_a-fread.o)
 .comment       0x00000e58       0x12 /usr/local/OAT/lib/gcc/arm-elf/4.3.2/../../../../arm-elf/lib/interwork/libc.a(lib_a-freer.o)
 .comment       0x00000e6a       0x12 /usr/local/OAT/lib/gcc/arm-elf/4.3.2/../../../../arm-elf/lib/interwork/libc.a(lib_a-fvwrite.o)
 .comment       0x00000e7c       0x12 /usr/local/OAT/lib/gcc/arm-elf/4.3.2/../../../../arm-elf/lib/interwork/libc.a(lib_a-fwalk.o)
 .comment       0x00000e8e       0x12 /usr/local/OAT/lib/gcc/arm-elf/4.3.2/../../../../arm-elf/lib/interwork/libc.a(lib_a-iswspace.o)
 .comment       0x00000ea0       0x12 /usr/local/OAT/lib/gcc/arm-elf/4.3.2/../../../../arm-elf/lib/interwork/libc.a(lib_a-makebuf.o)
 .comment       0x00000eb2       0x12 /usr/local/OAT/lib/gcc/arm-elf/4.3.2/../../../../arm-elf/lib/interwork/libc.a(lib_a-mbrtowc.o)
 .comment       0x00000ec4       0x12 /usr/local/OAT/lib/gcc/arm-elf/4.3.2/../../../../arm-elf/lib/interwork/libc.a(lib_a-mbtowc_r.o)
 .comment       0x00000ed6       0x12 /usr/local/OAT/lib/gcc/arm-elf/4.3.2/../../../../arm-elf/lib/interwork/libc.a(lib_a-memchr.o)
 .comment       0x00000ee8       0x12 /usr/local/OAT/lib/gcc/arm-elf/4.3.2/../../../../arm-elf/lib/interwork/libc.a(lib_a-memmove.o)
 .comment       0x00000efa       0x12 /usr/local/OAT/lib/gcc/arm-elf/4.3.2/../../../../arm-elf/lib/interwork/libc.a(lib_a-mprec.o)
 .comment       0x00000f0c       0x12 /usr/local/OAT/lib/gcc/arm-elf/4.3.2/../../../../arm-elf/lib/interwork/libc.a(lib_a-reent.o)
 .comment       0x00000f1e       0x12 /usr/local/OAT/lib/gcc/arm-elf/4.3.2/../../../../arm-elf/lib/interwork/libc.a(lib_a-refill.o)
 .comment       0x00000f30       0x12 /usr/local/OAT/lib/gcc/arm-elf/4.3.2/../../../../arm-elf/lib/interwork/libc.a(lib_a-s_isinfd.o)
 .comment       0x00000f42       0x12 /usr/local/OAT/lib/gcc/arm-elf/4.3.2/../../../../arm-elf/lib/interwork/libc.a(lib_a-sccl.o)
 .comment       0x00000f54       0x12 /usr/local/OAT/lib/gcc/arm-elf/4.3.2/../../../../arm-elf/lib/interwork/libc.a(lib_a-sf_nan.o)
 .comment       0x00000f66       0x12 /usr/local/OAT/lib/gcc/arm-elf/4.3.2/../../../../arm-elf/lib/interwork/libc.a(lib_a-stdio.o)
 .comment       0x00000f78       0x12 /usr/local/OAT/lib/gcc/arm-elf/4.3.2/../../../../arm-elf/lib/interwork/libc.a(lib_a-strtod.o)
 .comment       0x00000f8a       0x12 /usr/local/OAT/lib/gcc/arm-elf/4.3.2/../../../../arm-elf/lib/interwork/libc.a(lib_a-strtoul.o)
 .comment       0x00000f9c       0x12 /usr/local/OAT/lib/gcc/arm-elf/4.3.2/../../../../arm-elf/lib/interwork/libc.a(lib_a-ungetc.o)
 .comment       0x00000fae       0x12 /usr/local/OAT/lib/gcc/arm-elf/4.3.2/../../../../arm-elf/lib/interwork/libc.a(lib_a-writer.o)
 .comment       0x00000fc0       0x12 /usr/local/OAT/lib/gcc/arm-elf/4.3.2/../../../../arm-elf/lib/interwork/libc.a(lib_a-callocr.o)
 .comment       0x00000fd2       0x12 /usr/local/OAT/lib/gcc/arm-elf/4.3.2/../../../../arm-elf/lib/interwork/libc.a(lib_a-closer.o)
 .comment       0x00000fe4       0x12 /usr/local/OAT/lib/gcc/arm-elf/4.3.2/../../../../arm-elf/lib/interwork/libc.a(lib_a-fclose.o)
 .comment       0x00000ff6       0x12 /usr/local/OAT/lib/gcc/arm-elf/4.3.2/../../../../arm-elf/lib/interwork/libc.a(lib_a-fstatr.o)
 .comment       0x00001008       0x12 /usr/local/OAT/lib/gcc/arm-elf/4.3.2/../../../../arm-elf/lib/interwork/libc.a(lib_a-gdtoa-gethex.o)
 .comment       0x0000101a       0x12 /usr/local/OAT/lib/gcc/arm-elf/4.3.2/../../../../arm-elf/lib/interwork/libc.a(lib_a-gdtoa-hexnan.o)
 .comment       0x0000102c       0x12 /usr/local/OAT/lib/gcc/arm-elf/4.3.2/../../../../arm-elf/lib/interwork/libc.a(lib_a-lseekr.o)
 .comment       0x0000103e       0x12 /usr/local/OAT/lib/gcc/arm-elf/4.3.2/../../../../arm-elf/lib/interwork/libc.a(lib_a-readr.o)

.ARM.attributes
                0x00000000       0x10
 .ARM.attributes
                0x00000000       0x10 src/gpioTest.o
 .ARM.attributes
                0x00000010       0x10 src/adc.o
 .ARM.attributes
                0x00000020       0x10 src/FlashTest.o
 .ARM.attributes
                0x00000030       0x10 src/wyhook_HAL.o
 .ARM.attributes
                0x00000040       0x10 src/XactUtilities.o
 .ARM.attributes
                0x00000050       0x10 src/SimOperations.o
 .ARM.attributes
                0x00000060       0x10 src/status.o
 .ARM.attributes
                0x00000070       0x10 src/WaypointControl.o
 .ARM.attributes
                0x00000080       0x10 src/alarm_suppress.o
 .ARM.attributes
                0x00000090       0x10 src/GPSCtrl.o
 .ARM.attributes
                0x000000a0       0x10 src/anolclient.o
 .ARM.attributes
                0x000000b0       0x10 src/GpsInterface.o
 .ARM.attributes
                0x000000c0       0x10 src/LED.o
 .ARM.attributes
                0x000000d0       0x10 src/TempoCasesTask.o
 .ARM.attributes
                0x000000e0       0x10 src/PowerCtrl.o
 .ARM.attributes
                0x000000f0       0x10 src/i2c_accelerometer.o
 .ARM.attributes
                0x00000100       0x10 src/wyhook_Application.o
 .ARM.attributes
                0x00000110       0x10 src/fence.o
 .ARM.attributes
                0x00000120       0x10 src/Accelerometer.o
 .ARM.attributes
                0x00000130       0x10 src/ota_at.o
 .ARM.attributes
                0x00000140       0x10 src/XactTests.o
 .ARM.attributes
                0x00000150       0x10 src/wyhook_Message.o
 .ARM.attributes
                0x00000160       0x10 src/ConfigSettings.o
 .ARM.attributes
                0x00000170       0x10 src/InternalFlash.o
 .ARM.attributes
                0x00000180       0x10 src/haversine.o
 .ARM.attributes
                0x00000190       0x10 src/CallBackMethods.o
 .ARM.attributes
                0x000001a0       0x10 src/Timers.o
 .ARM.attributes
                0x000001b0       0x10 src/VibrationMotor.o
 .ARM.attributes
                0x000001c0       0x10 src/button.o
 .ARM.attributes
                0x000001d0       0x10 src/DOTAOperation.o
 .ARM.attributes
                0x000001e0       0x10 src/gpioconfig.o
 .ARM.attributes
                0x000001f0       0x10 src/adl_main.o
 .ARM.attributes
                0x00000200       0x10 src/dogwalk.o
 .ARM.attributes
                0x00000210       0x10 src/COMMR572.o
 .ARM.attributes
                0x00000220       0x10 src/USB.o
 .ARM.attributes
                0x00000230       0x10 src/i2c.o
 .ARM.attributes
                0x00000240       0x10 src/ublox.o
 .ARM.attributes
                0x00000250       0x10 src/GPRS.o
 .ARM.attributes
                0x00000260       0x10 src/SMShandling.o
 .ARM.attributes
                0x00000270       0x10 src/Traces.o
 .ARM.attributes
                0x00000280       0x10 src/airplane_mode.o
 .ARM.attributes
                0x00000290       0x10 src/CommandHandlerXACT.o
 .ARM.attributes
                0x000002a0       0x10 src/protocol.o
 .ARM.attributes
                0x000002b0       0x10 src/diagnose.o
 .ARM.attributes
                0x000002c0       0x10 flash_src/atmel_flashDriver.o
 .ARM.attributes
                0x000002d0       0x10 /usr/local/OAT/lib/gcc/arm-elf/4.3.2/../../../../arm-elf/lib/interwork/libm.a(lib_a-s_cos.o)
 .ARM.attributes
                0x000002e0       0x10 /usr/local/OAT/lib/gcc/arm-elf/4.3.2/../../../../arm-elf/lib/interwork/libm.a(lib_a-s_sin.o)
 .ARM.attributes
                0x000002f0       0x10 /usr/local/OAT/lib/gcc/arm-elf/4.3.2/../../../../arm-elf/lib/interwork/libm.a(lib_a-w_atan2.o)
 .ARM.attributes
                0x00000300       0x10 /usr/local/OAT/lib/gcc/arm-elf/4.3.2/../../../../arm-elf/lib/interwork/libm.a(lib_a-w_sqrt.o)
 .ARM.attributes
                0x00000310       0x10 /usr/local/OAT/lib/gcc/arm-elf/4.3.2/../../../../arm-elf/lib/interwork/libm.a(lib_a-e_atan2.o)
 .ARM.attributes
                0x00000320       0x10 /usr/local/OAT/lib/gcc/arm-elf/4.3.2/../../../../arm-elf/lib/interwork/libm.a(lib_a-e_rem_pio2.o)
 .ARM.attributes
                0x00000330       0x10 /usr/local/OAT/lib/gcc/arm-elf/4.3.2/../../../../arm-elf/lib/interwork/libm.a(lib_a-e_sqrt.o)
 .ARM.attributes
                0x00000340       0x10 /usr/local/OAT/lib/gcc/arm-elf/4.3.2/../../../../arm-elf/lib/interwork/libm.a(lib_a-k_cos.o)
 .ARM.attributes
                0x00000350       0x10 /usr/local/OAT/lib/gcc/arm-elf/4.3.2/../../../../arm-elf/lib/interwork/libm.a(lib_a-k_rem_pio2.o)
 .ARM.attributes
                0x00000360       0x10 /usr/local/OAT/lib/gcc/arm-elf/4.3.2/../../../../arm-elf/lib/interwork/libm.a(lib_a-k_sin.o)
 .ARM.attributes
                0x00000370       0x10 /usr/local/OAT/lib/gcc/arm-elf/4.3.2/../../../../arm-elf/lib/interwork/libm.a(lib_a-s_atan.o)
 .ARM.attributes
                0x00000380       0x10 /usr/local/OAT/lib/gcc/arm-elf/4.3.2/../../../../arm-elf/lib/interwork/libm.a(lib_a-s_fabs.o)
 .ARM.attributes
                0x00000390       0x10 /usr/local/OAT/lib/gcc/arm-elf/4.3.2/../../../../arm-elf/lib/interwork/libm.a(lib_a-s_floor.o)
 .ARM.attributes
                0x000003a0       0x10 /usr/local/OAT/lib/gcc/arm-elf/4.3.2/../../../../arm-elf/lib/interwork/libm.a(lib_a-s_isnand.o)
 .ARM.attributes
                0x000003b0       0x10 /usr/local/OAT/lib/gcc/arm-elf/4.3.2/../../../../arm-elf/lib/interwork/libm.a(lib_a-s_lib_ver.o)
 .ARM.attributes
                0x000003c0       0x10 /usr/local/OAT/lib/gcc/arm-elf/4.3.2/../../../../arm-elf/lib/interwork/libm.a(lib_a-s_matherr.o)
 .ARM.attributes
                0x000003d0       0x10 /usr/local/OAT/lib/gcc/arm-elf/4.3.2/../../../../arm-elf/lib/interwork/libm.a(lib_a-s_scalbn.o)
 .ARM.attributes
                0x000003e0       0x10 /usr/local/OAT/lib/gcc/arm-elf/4.3.2/../../../../arm-elf/lib/interwork/libm.a(lib_a-s_copysign.o)
 .ARM.attributes
                0x000003f0       0x10 /usr/local/OAT/lib/gcc/arm-elf/4.3.2/interwork/libgcc.a(_udivsi3.o)
 .ARM.attributes
                0x00000400       0x10 /usr/local/OAT/lib/gcc/arm-elf/4.3.2/interwork/libgcc.a(_divsi3.o)
 .ARM.attributes
                0x00000410       0x10 /usr/local/OAT/lib/gcc/arm-elf/4.3.2/interwork/libgcc.a(_umodsi3.o)
 .ARM.attributes
                0x00000420       0x10 /usr/local/OAT/lib/gcc/arm-elf/4.3.2/interwork/libgcc.a(_dvmd_tls.o)
 .ARM.attributes
                0x00000430       0x10 /usr/local/OAT/lib/gcc/arm-elf/4.3.2/interwork/libgcc.a(_addsubdf3.o)
 .ARM.attributes
                0x00000440       0x10 /usr/local/OAT/lib/gcc/arm-elf/4.3.2/interwork/libgcc.a(_muldivdf3.o)
 .ARM.attributes
                0x00000450       0x10 /usr/local/OAT/lib/gcc/arm-elf/4.3.2/interwork/libgcc.a(_cmpdf2.o)
 .ARM.attributes
                0x00000460       0x10 /usr/local/OAT/lib/gcc/arm-elf/4.3.2/interwork/libgcc.a(_fixdfsi.o)
 .ARM.attributes
                0x00000470       0x10 /usr/local/OAT/lib/gcc/arm-elf/4.3.2/interwork/libgcc.a(_fixunsdfsi.o)
 .ARM.attributes
                0x00000480       0x10 /usr/local/OAT/lib/gcc/arm-elf/4.3.2/interwork/libgcc.a(_addsubsf3.o)
 .ARM.attributes
                0x00000490       0x10 /usr/local/OAT/lib/gcc/arm-elf/4.3.2/interwork/libgcc.a(_muldivsf3.o)
 .ARM.attributes
                0x000004a0       0x10 /usr/local/OAT/lib/gcc/arm-elf/4.3.2/interwork/libgcc.a(_cmpsf2.o)
 .ARM.attributes
                0x000004b0       0x10 /usr/local/OAT/lib/gcc/arm-elf/4.3.2/interwork/libgcc.a(_fixunssfsi.o)
 .ARM.attributes
                0x000004c0       0x10 /usr/local/OAT/lib/gcc/arm-elf/4.3.2/../../../../arm-elf/lib/interwork/libc.a(lib_a-asprintf.o)
 .ARM.attributes
                0x000004d0       0x10 /usr/local/OAT/lib/gcc/arm-elf/4.3.2/../../../../arm-elf/lib/interwork/libc.a(lib_a-atoi.o)
 .ARM.attributes
                0x000004e0       0x10 /usr/local/OAT/lib/gcc/arm-elf/4.3.2/../../../../arm-elf/lib/interwork/libc.a(lib_a-ctype_.o)
 .ARM.attributes
                0x000004f0       0x10 /usr/local/OAT/lib/gcc/arm-elf/4.3.2/../../../../arm-elf/lib/interwork/libc.a(lib_a-errno.o)
 .ARM.attributes
                0x00000500       0x10 /usr/local/OAT/lib/gcc/arm-elf/4.3.2/../../../../arm-elf/lib/interwork/libc.a(lib_a-impure.o)
 .ARM.attributes
                0x00000510       0x10 /usr/local/OAT/lib/gcc/arm-elf/4.3.2/../../../../arm-elf/lib/interwork/libc.a(lib_a-locale.o)
 .ARM.attributes
                0x00000520       0x10 /usr/local/OAT/lib/gcc/arm-elf/4.3.2/../../../../arm-elf/lib/interwork/libc.a(lib_a-malloc.o)
 .ARM.attributes
                0x00000530       0x10 /usr/local/OAT/lib/gcc/arm-elf/4.3.2/../../../../arm-elf/lib/interwork/libc.a(lib_a-mallocr.o)
 .ARM.attributes
                0x00000540       0x10 /usr/local/OAT/lib/gcc/arm-elf/4.3.2/../../../../arm-elf/lib/interwork/libc.a(lib_a-memcmp.o)
 .ARM.attributes
                0x00000550       0x10 /usr/local/OAT/lib/gcc/arm-elf/4.3.2/../../../../arm-elf/lib/interwork/libc.a(lib_a-memcpy.o)
 .ARM.attributes
                0x00000560       0x10 /usr/local/OAT/lib/gcc/arm-elf/4.3.2/../../../../arm-elf/lib/interwork/libc.a(lib_a-memset.o)
 .ARM.attributes
                0x00000570       0x10 /usr/local/OAT/lib/gcc/arm-elf/4.3.2/../../../../arm-elf/lib/interwork/libc.a(lib_a-mlock.o)
 .ARM.attributes
                0x00000580       0x10 /usr/local/OAT/lib/gcc/arm-elf/4.3.2/../../../../arm-elf/lib/interwork/libc.a(lib_a-printf.o)
 .ARM.attributes
                0x00000590       0x10 /usr/local/OAT/lib/gcc/arm-elf/4.3.2/../../../../arm-elf/lib/interwork/libc.a(lib_a-realloc.o)
 .ARM.attributes
                0x000005a0       0x10 /usr/local/OAT/lib/gcc/arm-elf/4.3.2/../../../../arm-elf/lib/interwork/libc.a(lib_a-reallocr.o)
 .ARM.attributes
                0x000005b0       0x10 /usr/local/OAT/lib/gcc/arm-elf/4.3.2/../../../../arm-elf/lib/interwork/libc.a(lib_a-sbrkr.o)
 .ARM.attributes
                0x000005c0       0x10 /usr/local/OAT/lib/gcc/arm-elf/4.3.2/../../../../arm-elf/lib/interwork/libc.a(lib_a-sprintf.o)
 .ARM.attributes
                0x000005d0       0x10 /usr/local/OAT/lib/gcc/arm-elf/4.3.2/../../../../arm-elf/lib/interwork/libc.a(lib_a-sscanf.o)
 .ARM.attributes
                0x000005e0       0x10 /usr/local/OAT/lib/gcc/arm-elf/4.3.2/../../../../arm-elf/lib/interwork/libc.a(lib_a-strcat.o)
 .ARM.attributes
                0x000005f0       0x10 /usr/local/OAT/lib/gcc/arm-elf/4.3.2/../../../../arm-elf/lib/interwork/libc.a(lib_a-strchr.o)
 .ARM.attributes
                0x00000600       0x10 /usr/local/OAT/lib/gcc/arm-elf/4.3.2/../../../../arm-elf/lib/interwork/libc.a(lib_a-strcmp.o)
 .ARM.attributes
                0x00000610       0x10 /usr/local/OAT/lib/gcc/arm-elf/4.3.2/../../../../arm-elf/lib/interwork/libc.a(lib_a-strcpy.o)
 .ARM.attributes
                0x00000620       0x10 /usr/local/OAT/lib/gcc/arm-elf/4.3.2/../../../../arm-elf/lib/interwork/libc.a(lib_a-strdup.o)
 .ARM.attributes
                0x00000630       0x10 /usr/local/OAT/lib/gcc/arm-elf/4.3.2/../../../../arm-elf/lib/interwork/libc.a(lib_a-strdup_r.o)
 .ARM.attributes
                0x00000640       0x10 /usr/local/OAT/lib/gcc/arm-elf/4.3.2/../../../../arm-elf/lib/interwork/libc.a(lib_a-strlen.o)
 .ARM.attributes
                0x00000650       0x10 /usr/local/OAT/lib/gcc/arm-elf/4.3.2/../../../../arm-elf/lib/interwork/libc.a(lib_a-strncat.o)
 .ARM.attributes
                0x00000660       0x10 /usr/local/OAT/lib/gcc/arm-elf/4.3.2/../../../../arm-elf/lib/interwork/libc.a(lib_a-strncmp.o)
 .ARM.attributes
                0x00000670       0x10 /usr/local/OAT/lib/gcc/arm-elf/4.3.2/../../../../arm-elf/lib/interwork/libc.a(lib_a-strncpy.o)
 .ARM.attributes
                0x00000680       0x10 /usr/local/OAT/lib/gcc/arm-elf/4.3.2/../../../../arm-elf/lib/interwork/libc.a(lib_a-strsep.o)
 .ARM.attributes
                0x00000690       0x10 /usr/local/OAT/lib/gcc/arm-elf/4.3.2/../../../../arm-elf/lib/interwork/libc.a(lib_a-strstr.o)
 .ARM.attributes
                0x000006a0       0x10 /usr/local/OAT/lib/gcc/arm-elf/4.3.2/../../../../arm-elf/lib/interwork/libc.a(lib_a-strtok.o)
 .ARM.attributes
                0x000006b0       0x10 /usr/local/OAT/lib/gcc/arm-elf/4.3.2/../../../../arm-elf/lib/interwork/libc.a(lib_a-strtok_r.o)
 .ARM.attributes
                0x000006c0       0x10 /usr/local/OAT/lib/gcc/arm-elf/4.3.2/../../../../arm-elf/lib/interwork/libc.a(lib_a-strtol.o)
 .ARM.attributes
                0x000006d0       0x10 /usr/local/OAT/lib/gcc/arm-elf/4.3.2/../../../../arm-elf/lib/interwork/libc.a(lib_a-syscalls.o)
 .ARM.attributes
                0x000006e0       0x10 /usr/local/OAT/lib/gcc/arm-elf/4.3.2/../../../../arm-elf/lib/interwork/libc.a(lib_a-syswrite.o)
 .ARM.attributes
                0x000006f0       0x10 /usr/local/OAT/lib/gcc/arm-elf/4.3.2/../../../../arm-elf/lib/interwork/libc.a(lib_a-vasprintf.o)
 .ARM.attributes
                0x00000700       0x10 /usr/local/OAT/lib/gcc/arm-elf/4.3.2/../../../../arm-elf/lib/interwork/libc.a(lib_a-vfprintf.o)
 .ARM.attributes
                0x00000710       0x10 /usr/local/OAT/lib/gcc/arm-elf/4.3.2/../../../../arm-elf/lib/interwork/libc.a(lib_a-vfscanf.o)
 .ARM.attributes
                0x00000720       0x10 /usr/local/OAT/lib/gcc/arm-elf/4.3.2/../../../../arm-elf/lib/interwork/libc.a(lib_a-vsprintf.o)
 .ARM.attributes
                0x00000730       0x10 /usr/local/OAT/lib/gcc/arm-elf/4.3.2/../../../../arm-elf/lib/interwork/libc.a(lib_a-wsetup.o)
 .ARM.attributes
                0x00000740       0x10 /usr/local/OAT/lib/gcc/arm-elf/4.3.2/../../../../arm-elf/lib/interwork/libc.a(lib_a-OAT_close.o)
 .ARM.attributes
                0x00000750       0x10 /usr/local/OAT/lib/gcc/arm-elf/4.3.2/../../../../arm-elf/lib/interwork/libc.a(lib_a-OAT_fstat.o)
 .ARM.attributes
                0x00000760       0x10 /usr/local/OAT/lib/gcc/arm-elf/4.3.2/../../../../arm-elf/lib/interwork/libc.a(lib_a-OAT_isatty.o)
 .ARM.attributes
                0x00000770       0x10 /usr/local/OAT/lib/gcc/arm-elf/4.3.2/../../../../arm-elf/lib/interwork/libc.a(lib_a-OAT_kill.o)
 .ARM.attributes
                0x00000780       0x10 /usr/local/OAT/lib/gcc/arm-elf/4.3.2/../../../../arm-elf/lib/interwork/libc.a(lib_a-OAT_lseek.o)
 .ARM.attributes
                0x00000790       0x10 /usr/local/OAT/lib/gcc/arm-elf/4.3.2/../../../../arm-elf/lib/interwork/libc.a(lib_a-OAT_open.o)
 .ARM.attributes
                0x000007a0       0x10 /usr/local/OAT/lib/gcc/arm-elf/4.3.2/../../../../arm-elf/lib/interwork/libc.a(lib_a-OAT_read.o)
 .ARM.attributes
                0x000007b0       0x10 /usr/local/OAT/lib/gcc/arm-elf/4.3.2/../../../../arm-elf/lib/interwork/libc.a(lib_a-OAT_write.o)
 .ARM.attributes
                0x000007c0       0x10 /usr/local/OAT/lib/gcc/arm-elf/4.3.2/../../../../arm-elf/lib/interwork/libc.a(lib_a-dtoa.o)
 .ARM.attributes
                0x000007d0       0x10 /usr/local/OAT/lib/gcc/arm-elf/4.3.2/../../../../arm-elf/lib/interwork/libc.a(lib_a-fflush.o)
 .ARM.attributes
                0x000007e0       0x10 /usr/local/OAT/lib/gcc/arm-elf/4.3.2/../../../../arm-elf/lib/interwork/libc.a(lib_a-findfp.o)
 .ARM.attributes
                0x000007f0       0x10 /usr/local/OAT/lib/gcc/arm-elf/4.3.2/../../../../arm-elf/lib/interwork/libc.a(lib_a-fread.o)
 .ARM.attributes
                0x00000800       0x10 /usr/local/OAT/lib/gcc/arm-elf/4.3.2/../../../../arm-elf/lib/interwork/libc.a(lib_a-freer.o)
 .ARM.attributes
                0x00000810       0x10 /usr/local/OAT/lib/gcc/arm-elf/4.3.2/../../../../arm-elf/lib/interwork/libc.a(lib_a-fvwrite.o)
 .ARM.attributes
                0x00000820       0x10 /usr/local/OAT/lib/gcc/arm-elf/4.3.2/../../../../arm-elf/lib/interwork/libc.a(lib_a-fwalk.o)
 .ARM.attributes
                0x00000830       0x10 /usr/local/OAT/lib/gcc/arm-elf/4.3.2/../../../../arm-elf/lib/interwork/libc.a(lib_a-iswspace.o)
 .ARM.attributes
                0x00000840       0x10 /usr/local/OAT/lib/gcc/arm-elf/4.3.2/../../../../arm-elf/lib/interwork/libc.a(lib_a-makebuf.o)
 .ARM.attributes
                0x00000850       0x10 /usr/local/OAT/lib/gcc/arm-elf/4.3.2/../../../../arm-elf/lib/interwork/libc.a(lib_a-mbrtowc.o)
 .ARM.attributes
                0x00000860       0x10 /usr/local/OAT/lib/gcc/arm-elf/4.3.2/../../../../arm-elf/lib/interwork/libc.a(lib_a-mbtowc_r.o)
 .ARM.attributes
                0x00000870       0x10 /usr/local/OAT/lib/gcc/arm-elf/4.3.2/../../../../arm-elf/lib/interwork/libc.a(lib_a-memchr.o)
 .ARM.attributes
                0x00000880       0x10 /usr/local/OAT/lib/gcc/arm-elf/4.3.2/../../../../arm-elf/lib/interwork/libc.a(lib_a-memmove.o)
 .ARM.attributes
                0x00000890       0x10 /usr/local/OAT/lib/gcc/arm-elf/4.3.2/../../../../arm-elf/lib/interwork/libc.a(lib_a-mprec.o)
 .ARM.attributes
                0x000008a0       0x10 /usr/local/OAT/lib/gcc/arm-elf/4.3.2/../../../../arm-elf/lib/interwork/libc.a(lib_a-reent.o)
 .ARM.attributes
                0x000008b0       0x10 /usr/local/OAT/lib/gcc/arm-elf/4.3.2/../../../../arm-elf/lib/interwork/libc.a(lib_a-refill.o)
 .ARM.attributes
                0x000008c0       0x10 /usr/local/OAT/lib/gcc/arm-elf/4.3.2/../../../../arm-elf/lib/interwork/libc.a(lib_a-s_isinfd.o)
 .ARM.attributes
                0x000008d0       0x10 /usr/local/OAT/lib/gcc/arm-elf/4.3.2/../../../../arm-elf/lib/interwork/libc.a(lib_a-sccl.o)
 .ARM.attributes
                0x000008e0       0x10 /usr/local/OAT/lib/gcc/arm-elf/4.3.2/../../../../arm-elf/lib/interwork/libc.a(lib_a-sf_nan.o)
 .ARM.attributes
                0x000008f0       0x10 /usr/local/OAT/lib/gcc/arm-elf/4.3.2/../../../../arm-elf/lib/interwork/libc.a(lib_a-stdio.o)
 .ARM.attributes
                0x00000900       0x10 /usr/local/OAT/lib/gcc/arm-elf/4.3.2/../../../../arm-elf/lib/interwork/libc.a(lib_a-strtod.o)
 .ARM.attributes
                0x00000910       0x10 /usr/local/OAT/lib/gcc/arm-elf/4.3.2/../../../../arm-elf/lib/interwork/libc.a(lib_a-strtoul.o)
 .ARM.attributes
                0x00000920       0x10 /usr/local/OAT/lib/gcc/arm-elf/4.3.2/../../../../arm-elf/lib/interwork/libc.a(lib_a-ungetc.o)
 .ARM.attributes
                0x00000930       0x10 /usr/local/OAT/lib/gcc/arm-elf/4.3.2/../../../../arm-elf/lib/interwork/libc.a(lib_a-writer.o)
 .ARM.attributes
                0x00000940       0x10 /usr/local/OAT/lib/gcc/arm-elf/4.3.2/../../../../arm-elf/lib/interwork/libc.a(lib_a-callocr.o)
 .ARM.attributes
                0x00000950       0x10 /usr/local/OAT/lib/gcc/arm-elf/4.3.2/../../../../arm-elf/lib/interwork/libc.a(lib_a-closer.o)
 .ARM.attributes
                0x00000960       0x10 /usr/local/OAT/lib/gcc/arm-elf/4.3.2/../../../../arm-elf/lib/interwork/libc.a(lib_a-fclose.o)
 .ARM.attributes
                0x00000970       0x10 /usr/local/OAT/lib/gcc/arm-elf/4.3.2/../../../../arm-elf/lib/interwork/libc.a(lib_a-fstatr.o)
 .ARM.attributes
                0x00000980       0x10 /usr/local/OAT/lib/gcc/arm-elf/4.3.2/../../../../arm-elf/lib/interwork/libc.a(lib_a-gdtoa-gethex.o)
 .ARM.attributes
                0x00000990       0x10 /usr/local/OAT/lib/gcc/arm-elf/4.3.2/../../../../arm-elf/lib/interwork/libc.a(lib_a-gdtoa-hexnan.o)
 .ARM.attributes
                0x000009a0       0x10 /usr/local/OAT/lib/gcc/arm-elf/4.3.2/../../../../arm-elf/lib/interwork/libc.a(lib_a-lseekr.o)
 .ARM.attributes
                0x000009b0       0x10 /usr/local/OAT/lib/gcc/arm-elf/4.3.2/../../../../arm-elf/lib/interwork/libc.a(lib_a-readr.o)
 .ARM.attributes
                0x000009c0       0x10 /usr/local/OAT/lib/gcc/arm-elf/4.3.2/interwork/libgcc.a(_truncdfsf2.o)

.debug_abbrev   0x00000000    0x11fc4
 .debug_abbrev  0x00000000       0xa3 /usr/local/OAT/lib/gcc/arm-elf/4.3.2/../../../../arm-elf/lib/interwork/libm.a(lib_a-s_cos.o)
 .debug_abbrev  0x000000a3       0xa3 /usr/local/OAT/lib/gcc/arm-elf/4.3.2/../../../../arm-elf/lib/interwork/libm.a(lib_a-s_sin.o)
 .debug_abbrev  0x00000146       0x59 /usr/local/OAT/lib/gcc/arm-elf/4.3.2/../../../../arm-elf/lib/interwork/libm.a(lib_a-w_atan2.o)
 .debug_abbrev  0x0000019f       0xee /usr/local/OAT/lib/gcc/arm-elf/4.3.2/../../../../arm-elf/lib/interwork/libm.a(lib_a-w_sqrt.o)
 .debug_abbrev  0x0000028d      0x11c /usr/local/OAT/lib/gcc/arm-elf/4.3.2/../../../../arm-elf/lib/interwork/libm.a(lib_a-e_atan2.o)
 .debug_abbrev  0x000003a9      0x156 /usr/local/OAT/lib/gcc/arm-elf/4.3.2/../../../../arm-elf/lib/interwork/libm.a(lib_a-e_rem_pio2.o)
 .debug_abbrev  0x000004ff      0x11a /usr/local/OAT/lib/gcc/arm-elf/4.3.2/../../../../arm-elf/lib/interwork/libm.a(lib_a-e_sqrt.o)
 .debug_abbrev  0x00000619      0x10f /usr/local/OAT/lib/gcc/arm-elf/4.3.2/../../../../arm-elf/lib/interwork/libm.a(lib_a-k_cos.o)
 .debug_abbrev  0x00000728      0x10b /usr/local/OAT/lib/gcc/arm-elf/4.3.2/../../../../arm-elf/lib/interwork/libm.a(lib_a-k_rem_pio2.o)
 .debug_abbrev  0x00000833       0xf5 /usr/local/OAT/lib/gcc/arm-elf/4.3.2/../../../../arm-elf/lib/interwork/libm.a(lib_a-k_sin.o)
 .debug_abbrev  0x00000928      0x11f /usr/local/OAT/lib/gcc/arm-elf/4.3.2/../../../../arm-elf/lib/interwork/libm.a(lib_a-s_atan.o)
 .debug_abbrev  0x00000a47       0xd5 /usr/local/OAT/lib/gcc/arm-elf/4.3.2/../../../../arm-elf/lib/interwork/libm.a(lib_a-s_fabs.o)
 .debug_abbrev  0x00000b1c      0x10f /usr/local/OAT/lib/gcc/arm-elf/4.3.2/../../../../arm-elf/lib/interwork/libm.a(lib_a-s_floor.o)
 .debug_abbrev  0x00000c2b       0xce /usr/local/OAT/lib/gcc/arm-elf/4.3.2/../../../../arm-elf/lib/interwork/libm.a(lib_a-s_isnand.o)
 .debug_abbrev  0x00000cf9       0x5c /usr/local/OAT/lib/gcc/arm-elf/4.3.2/../../../../arm-elf/lib/interwork/libm.a(lib_a-s_lib_ver.o)
 .debug_abbrev  0x00000d55       0x9e /usr/local/OAT/lib/gcc/arm-elf/4.3.2/../../../../arm-elf/lib/interwork/libm.a(lib_a-s_matherr.o)
 .debug_abbrev  0x00000df3      0x116 /usr/local/OAT/lib/gcc/arm-elf/4.3.2/../../../../arm-elf/lib/interwork/libm.a(lib_a-s_scalbn.o)
 .debug_abbrev  0x00000f09       0xe6 /usr/local/OAT/lib/gcc/arm-elf/4.3.2/../../../../arm-elf/lib/interwork/libm.a(lib_a-s_copysign.o)
 .debug_abbrev  0x00000fef      0x175 mos_header.o
 .debug_abbrev  0x00001164      0x138 /cygdrive/c/OpenAT/OS/6.21.02/ADL/gcc_wmadl_6.21.02.0.0.lib(mos_ftr.o)
 .debug_abbrev  0x0000129c      0x211 /cygdrive/c/OpenAT/OS/6.21.02/ADL/gcc_wmadl_6.21.02.0.0.lib(opec_lst.o)
 .debug_abbrev  0x000014ad      0x1a4 /cygdrive/c/OpenAT/OS/6.21.02/ADL/gcc_wmadl_6.21.02.0.0.lib(opec_std.o)
 .debug_abbrev  0x00001651      0x2cc /cygdrive/c/OpenAT/OS/6.21.02/ADL/gcc_wmadl_6.21.02.0.0.lib(adl_ad.o)
 .debug_abbrev  0x0000191d      0x14e /cygdrive/c/OpenAT/OS/6.21.02/ADL/gcc_wmadl_6.21.02.0.0.lib(adl_adc.o)
 .debug_abbrev  0x00001a6b      0x30b /cygdrive/c/OpenAT/OS/6.21.02/ADL/gcc_wmadl_6.21.02.0.0.lib(adl_AppliInit.o)
 .debug_abbrev  0x00001d76      0x2f5 /cygdrive/c/OpenAT/OS/6.21.02/ADL/gcc_wmadl_6.21.02.0.0.lib(adl_audio.o)
 .debug_abbrev  0x0000206b      0x277 /cygdrive/c/OpenAT/OS/6.21.02/ADL/gcc_wmadl_6.21.02.0.0.lib(adl_bus.o)
 .debug_abbrev  0x000022e2      0x283 /cygdrive/c/OpenAT/OS/6.21.02/ADL/gcc_wmadl_6.21.02.0.0.lib(adl_call.o)
 .debug_abbrev  0x00002565      0x2e7 /cygdrive/c/OpenAT/OS/6.21.02/ADL/gcc_wmadl_6.21.02.0.0.lib(adl_CmdHandler.o)
 .debug_abbrev  0x0000284c      0x284 /cygdrive/c/OpenAT/OS/6.21.02/ADL/gcc_wmadl_6.21.02.0.0.lib(adl_CmdProcessor.o)
 .debug_abbrev  0x00002ad0      0x2d3 /cygdrive/c/OpenAT/OS/6.21.02/ADL/gcc_wmadl_6.21.02.0.0.lib(adl_CmdStackHandler.o)
 .debug_abbrev  0x00002da3      0x1cc /cygdrive/c/OpenAT/OS/6.21.02/ADL/gcc_wmadl_6.21.02.0.0.lib(adl_ctx.o)
 .debug_abbrev  0x00002f6f       0x5a /cygdrive/c/OpenAT/OS/6.21.02/ADL/gcc_wmadl_6.21.02.0.0.lib(adl_defaut_buildtime.o)
 .debug_abbrev  0x00002fc9       0x73 /cygdrive/c/OpenAT/OS/6.21.02/ADL/gcc_wmadl_6.21.02.0.0.lib(adl_defaut_extend.o)
 .debug_abbrev  0x0000303c       0x4b /cygdrive/c/OpenAT/OS/6.21.02/ADL/gcc_wmadl_6.21.02.0.0.lib(adl_defaut_selist.o)
 .debug_abbrev  0x00003087       0x51 /cygdrive/c/OpenAT/OS/6.21.02/ADL/gcc_wmadl_6.21.02.0.0.lib(adl_defaut_timeslicing.o)
 .debug_abbrev  0x000030d8      0x21e /cygdrive/c/OpenAT/OS/6.21.02/ADL/gcc_wmadl_6.21.02.0.0.lib(adl_error.o)
 .debug_abbrev  0x000032f6      0x1f9 /cygdrive/c/OpenAT/OS/6.21.02/ADL/gcc_wmadl_6.21.02.0.0.lib(adl_EventMachine.o)
 .debug_abbrev  0x000034ef      0x274 /cygdrive/c/OpenAT/OS/6.21.02/ADL/gcc_wmadl_6.21.02.0.0.lib(adl_extint.o)
 .debug_abbrev  0x00003763       0xd9 /cygdrive/c/OpenAT/OS/6.21.02/ADL/gcc_wmadl_6.21.02.0.0.lib(adl_extint_deprecated.o)
 .debug_abbrev  0x0000383c      0x25f /cygdrive/c/OpenAT/OS/6.21.02/ADL/gcc_wmadl_6.21.02.0.0.lib(adl_fcm.o)
 .debug_abbrev  0x00003a9b      0x25c /cygdrive/c/OpenAT/OS/6.21.02/ADL/gcc_wmadl_6.21.02.0.0.lib(adl_flash.o)
 .debug_abbrev  0x00003cf7      0x301 /cygdrive/c/OpenAT/OS/6.21.02/ADL/gcc_wmadl_6.21.02.0.0.lib(adl_gpio.o)
 .debug_abbrev  0x00003ff8      0x316 /cygdrive/c/OpenAT/OS/6.21.02/ADL/gcc_wmadl_6.21.02.0.0.lib(adl_gprs.o)
 .debug_abbrev  0x0000430e      0x327 /cygdrive/c/OpenAT/OS/6.21.02/ADL/gcc_wmadl_6.21.02.0.0.lib(adl_irq.o)
 .debug_abbrev  0x00004635      0x239 /cygdrive/c/OpenAT/OS/6.21.02/ADL/gcc_wmadl_6.21.02.0.0.lib(adl_memory.o)
 .debug_abbrev  0x0000486e      0x245 /cygdrive/c/OpenAT/OS/6.21.02/ADL/gcc_wmadl_6.21.02.0.0.lib(adl_msg.o)
 .debug_abbrev  0x00004ab3      0x285 /cygdrive/c/OpenAT/OS/6.21.02/ADL/gcc_wmadl_6.21.02.0.0.lib(adl_port.o)
 .debug_abbrev  0x00004d38      0x179 /cygdrive/c/OpenAT/OS/6.21.02/ADL/gcc_wmadl_6.21.02.0.0.lib(adl_reg.o)
 .debug_abbrev  0x00004eb1      0x2bc /cygdrive/c/OpenAT/OS/6.21.02/ADL/gcc_wmadl_6.21.02.0.0.lib(adl_RspHandler.o)
 .debug_abbrev  0x0000516d      0x196 /cygdrive/c/OpenAT/OS/6.21.02/ADL/gcc_wmadl_6.21.02.0.0.lib(adl_rtc.o)
 .debug_abbrev  0x00005303      0x1f9 /cygdrive/c/OpenAT/OS/6.21.02/ADL/gcc_wmadl_6.21.02.0.0.lib(adl_sem.o)
 .debug_abbrev  0x000054fc      0x12f /cygdrive/c/OpenAT/OS/6.21.02/ADL/gcc_wmadl_6.21.02.0.0.lib(adl_serv.o)
 .debug_abbrev  0x0000562b      0x26d /cygdrive/c/OpenAT/OS/6.21.02/ADL/gcc_wmadl_6.21.02.0.0.lib(adl_sim.o)
 .debug_abbrev  0x00005898      0x2a1 /cygdrive/c/OpenAT/OS/6.21.02/ADL/gcc_wmadl_6.21.02.0.0.lib(adl_sms.o)
 .debug_abbrev  0x00005b39      0x1fe /cygdrive/c/OpenAT/OS/6.21.02/ADL/gcc_wmadl_6.21.02.0.0.lib(adl_str.o)
 .debug_abbrev  0x00005d37      0x2ad /cygdrive/c/OpenAT/OS/6.21.02/ADL/gcc_wmadl_6.21.02.0.0.lib(adl_TimerHandler.o)
 .debug_abbrev  0x00005fe4      0x270 /cygdrive/c/OpenAT/OS/6.21.02/ADL/gcc_wmadl_6.21.02.0.0.lib(adl_traces.o)
 .debug_abbrev  0x00006254      0x17b /cygdrive/c/OpenAT/OS/6.21.02/ADL/gcc_wmadl_6.21.02.0.0.lib(adl_UnSoHandler.o)
 .debug_abbrev  0x000063cf      0x151 /cygdrive/c/OpenAT/OS/6.21.02/ADL/gcc_wmadl_6.21.02.0.0.lib(adl_wd.o)
 .debug_abbrev  0x00006520      0x142 /cygdrive/c/OpenAT/Plug-ins/WIP/5.10.2020/WIP/gcc_wmwip_5.10.2020.lib(br_close.o)
 .debug_abbrev  0x00006662      0x129 /cygdrive/c/OpenAT/Plug-ins/WIP/5.10.2020/WIP/gcc_wmwip_5.10.2020.lib(br_getopts.o)
 .debug_abbrev  0x0000678b      0x14a /cygdrive/c/OpenAT/Plug-ins/WIP/5.10.2020/WIP/gcc_wmwip_5.10.2020.lib(br_mgr_init.o)
 .debug_abbrev  0x000068d5      0x16e /cygdrive/c/OpenAT/Plug-ins/WIP/5.10.2020/WIP/gcc_wmwip_5.10.2020.lib(br_open.o)
 .debug_abbrev  0x00006a43      0x129 /cygdrive/c/OpenAT/Plug-ins/WIP/5.10.2020/WIP/gcc_wmwip_5.10.2020.lib(br_setopts.o)
 .debug_abbrev  0x00006b6c      0x113 /cygdrive/c/OpenAT/Plug-ins/WIP/5.10.2020/WIP/gcc_wmwip_5.10.2020.lib(br_start.o)
 .debug_abbrev  0x00006c7f      0x198 /cygdrive/c/OpenAT/Plug-ins/WIP/5.10.2020/WIP/gcc_wmwip_5.10.2020.lib(br_v24.o)
 .debug_abbrev  0x00006e17      0x352 /cygdrive/c/OpenAT/Plug-ins/WIP/5.10.2020/WIP/gcc_wmwip_5.10.2020.lib(ch_channel.o)
 .debug_abbrev  0x00007169      0x357 /cygdrive/c/OpenAT/Plug-ins/WIP/5.10.2020/WIP/gcc_wmwip_5.10.2020.lib(ch_tcp_client.o)
 .debug_abbrev  0x000074c0      0x339 /cygdrive/c/OpenAT/Plug-ins/WIP/5.10.2020/WIP/gcc_wmwip_5.10.2020.lib(ch_udp.o)
 .debug_abbrev  0x000077f9      0x206 /cygdrive/c/OpenAT/Plug-ins/WIP/5.10.2020/WIP/gcc_wmwip_5.10.2020.lib(file.o)
 .debug_abbrev  0x000079ff      0x3d6 /cygdrive/c/OpenAT/Plug-ins/WIP/5.10.2020/WIP/gcc_wmwip_5.10.2020.lib(ftp.o)
 .debug_abbrev  0x00007dd5      0x342 /cygdrive/c/OpenAT/Plug-ins/WIP/5.10.2020/WIP/gcc_wmwip_5.10.2020.lib(ftp_evh.o)
 .debug_abbrev  0x00008117      0x261 /cygdrive/c/OpenAT/Plug-ins/WIP/5.10.2020/WIP/gcc_wmwip_5.10.2020.lib(ftp_list.o)
 .debug_abbrev  0x00008378       0x7e /cygdrive/c/OpenAT/Plug-ins/WIP/5.10.2020/WIP/gcc_wmwip_5.10.2020.lib(ftr.o)
 .debug_abbrev  0x000083f6       0x8d /cygdrive/c/OpenAT/Plug-ins/WIP/5.10.2020/WIP/gcc_wmwip_5.10.2020.lib(in_aton.o)
 .debug_abbrev  0x00008483       0x86 /cygdrive/c/OpenAT/Plug-ins/WIP/5.10.2020/WIP/gcc_wmwip_5.10.2020.lib(in_ntoa.o)
 .debug_abbrev  0x00008509      0x13c /cygdrive/c/OpenAT/Plug-ins/WIP/5.10.2020/WIP/gcc_wmwip_5.10.2020.lib(list_plugin_unix.o)
 .debug_abbrev  0x00008645      0x18c /cygdrive/c/OpenAT/Plug-ins/WIP/5.10.2020/WIP/gcc_wmwip_5.10.2020.lib(net_debug.o)
 .debug_abbrev  0x000087d1       0x5d /cygdrive/c/OpenAT/Plug-ins/WIP/5.10.2020/WIP/gcc_wmwip_5.10.2020.lib(net_init.o)
 .debug_abbrev  0x0000882e      0x157 /cygdrive/c/OpenAT/Plug-ins/WIP/5.10.2020/WIP/gcc_wmwip_5.10.2020.lib(net_initopts.o)
 .debug_abbrev  0x00008985       0xeb /cygdrive/c/OpenAT/Plug-ins/WIP/5.10.2020/WIP/gcc_wmwip_5.10.2020.lib(net_setopts.o)
 .debug_abbrev  0x00008a70       0x68 /cygdrive/c/OpenAT/Plug-ins/WIP/5.10.2020/WIP/gcc_wmwip_5.10.2020.lib(net_sync.o)
 .debug_abbrev  0x00008ad8      0x146 /cygdrive/c/OpenAT/Plug-ins/WIP/5.10.2020/WIP/gcc_wmwip_5.10.2020.lib(queue.o)
 .debug_abbrev  0x00008c1e      0x22e /cygdrive/c/OpenAT/Plug-ins/WIP/5.10.2020/WIP/gcc_wmwip_5.10.2020.lib(readline.o)
 .debug_abbrev  0x00008e4c      0x1f3 /cygdrive/c/OpenAT/Plug-ins/WIP/5.10.2020/WIP/gcc_wmwip_5.10.2020.lib(wip_subLevelOpts.o)
 .debug_abbrev  0x0000903f      0x25f /cygdrive/c/OpenAT/Plug-ins/WIP/5.10.2020/WIP/gcc_wmwip_5.10.2020.lib(wrapper.o)
 .debug_abbrev  0x0000929e       0x85 /cygdrive/c/OpenAT/Plug-ins/WIP/5.10.2020/WIP/gcc_wmwip_5.10.2020.lib(wm_net_hton.o)
 .debug_abbrev  0x00009323       0xe1 /cygdrive/c/OpenAT/Plug-ins/WIP/5.10.2020/WIP/gcc_wmwip_5.10.2020.lib(wm_net_in_aton.o)
 .debug_abbrev  0x00009404       0xb2 /cygdrive/c/OpenAT/Plug-ins/WIP/5.10.2020/WIP/gcc_wmwip_5.10.2020.lib(wm_net_in_ntoa.o)
 .debug_abbrev  0x000094b6      0x281 /cygdrive/c/OpenAT/Plug-ins/WIP/5.10.2020/WIP/gcc_wmwip_5.10.2020.lib(wm_net_wrapper.o)
 .debug_abbrev  0x00009737      0x182 /cygdrive/c/OpenAT/Plug-ins/WIP/5.10.2020/WIP/gcc_wmwip_5.10.2020.lib(rawprint.o)
 .debug_abbrev  0x000098b9      0x241 /cygdrive/c/OpenAT/Plug-ins/WIP/5.10.2020/WIP/gcc_wmwip_5.10.2020.lib(br_eth.o)
 .debug_abbrev  0x00009afa      0x106 /cygdrive/c/OpenAT/Plug-ins/WIP/5.10.2020/WIP/gcc_wmwip_5.10.2020.lib(br_gen_close.o)
 .debug_abbrev  0x00009c00      0x131 /cygdrive/c/OpenAT/Plug-ins/WIP/5.10.2020/WIP/gcc_wmwip_5.10.2020.lib(br_gen_getopt.o)
 .debug_abbrev  0x00009d31      0x115 /cygdrive/c/OpenAT/Plug-ins/WIP/5.10.2020/WIP/gcc_wmwip_5.10.2020.lib(br_gen_setopt.o)
 .debug_abbrev  0x00009e46      0x113 /cygdrive/c/OpenAT/Plug-ins/WIP/5.10.2020/WIP/gcc_wmwip_5.10.2020.lib(br_gen_stop.o)
 .debug_abbrev  0x00009f59      0x24c /cygdrive/c/OpenAT/Plug-ins/WIP/5.10.2020/WIP/gcc_wmwip_5.10.2020.lib(br_gprs.o)
 .debug_abbrev  0x0000a1a5      0x258 /cygdrive/c/OpenAT/Plug-ins/WIP/5.10.2020/WIP/gcc_wmwip_5.10.2020.lib(br_gsm.o)
 .debug_abbrev  0x0000a3fd       0x97 /cygdrive/c/OpenAT/Plug-ins/WIP/5.10.2020/WIP/gcc_wmwip_5.10.2020.lib(br_mgr_debug.o)
 .debug_abbrev  0x0000a494      0x140 /cygdrive/c/OpenAT/Plug-ins/WIP/5.10.2020/WIP/gcc_wmwip_5.10.2020.lib(br_ppp_getopt.o)
 .debug_abbrev  0x0000a5d4      0x167 /cygdrive/c/OpenAT/Plug-ins/WIP/5.10.2020/WIP/gcc_wmwip_5.10.2020.lib(br_ppp_init.o)
 .debug_abbrev  0x0000a73b      0x13a /cygdrive/c/OpenAT/Plug-ins/WIP/5.10.2020/WIP/gcc_wmwip_5.10.2020.lib(br_ppp_setopt.o)
 .debug_abbrev  0x0000a875      0x142 /cygdrive/c/OpenAT/Plug-ins/WIP/5.10.2020/WIP/gcc_wmwip_5.10.2020.lib(br_ppp_start.o)
 .debug_abbrev  0x0000a9b7      0x122 /cygdrive/c/OpenAT/Plug-ins/WIP/5.10.2020/WIP/gcc_wmwip_5.10.2020.lib(br_ppp_stop.o)
 .debug_abbrev  0x0000aad9      0x23a /cygdrive/c/OpenAT/Plug-ins/WIP/5.10.2020/WIP/gcc_wmwip_5.10.2020.lib(ch_class.o)
 .debug_abbrev  0x0000ad13      0x283 /cygdrive/c/OpenAT/Plug-ins/WIP/5.10.2020/WIP/gcc_wmwip_5.10.2020.lib(ch_tcp_server.o)
 .debug_abbrev  0x0000af96       0x14 /usr/local/OAT/lib/gcc/arm-elf/4.3.2/interwork/libgcc.a(_udivsi3.o)
 .debug_abbrev  0x0000afaa       0x14 /usr/local/OAT/lib/gcc/arm-elf/4.3.2/interwork/libgcc.a(_divsi3.o)
 .debug_abbrev  0x0000afbe       0x14 /usr/local/OAT/lib/gcc/arm-elf/4.3.2/interwork/libgcc.a(_umodsi3.o)
 .debug_abbrev  0x0000afd2       0x14 /usr/local/OAT/lib/gcc/arm-elf/4.3.2/interwork/libgcc.a(_dvmd_tls.o)
 .debug_abbrev  0x0000afe6       0x14 /usr/local/OAT/lib/gcc/arm-elf/4.3.2/interwork/libgcc.a(_addsubdf3.o)
 .debug_abbrev  0x0000affa       0x14 /usr/local/OAT/lib/gcc/arm-elf/4.3.2/interwork/libgcc.a(_muldivdf3.o)
 .debug_abbrev  0x0000b00e       0x14 /usr/local/OAT/lib/gcc/arm-elf/4.3.2/interwork/libgcc.a(_cmpdf2.o)
 .debug_abbrev  0x0000b022       0x14 /usr/local/OAT/lib/gcc/arm-elf/4.3.2/interwork/libgcc.a(_fixdfsi.o)
 .debug_abbrev  0x0000b036       0x14 /usr/local/OAT/lib/gcc/arm-elf/4.3.2/interwork/libgcc.a(_fixunsdfsi.o)
 .debug_abbrev  0x0000b04a       0x14 /usr/local/OAT/lib/gcc/arm-elf/4.3.2/interwork/libgcc.a(_addsubsf3.o)
 .debug_abbrev  0x0000b05e       0x14 /usr/local/OAT/lib/gcc/arm-elf/4.3.2/interwork/libgcc.a(_muldivsf3.o)
 .debug_abbrev  0x0000b072       0x14 /usr/local/OAT/lib/gcc/arm-elf/4.3.2/interwork/libgcc.a(_cmpsf2.o)
 .debug_abbrev  0x0000b086       0x14 /usr/local/OAT/lib/gcc/arm-elf/4.3.2/interwork/libgcc.a(_fixunssfsi.o)
 .debug_abbrev  0x0000b09a      0x1d0 /usr/local/OAT/lib/gcc/arm-elf/4.3.2/../../../../arm-elf/lib/interwork/libc.a(lib_a-asprintf.o)
 .debug_abbrev  0x0000b26a      0x17f /usr/local/OAT/lib/gcc/arm-elf/4.3.2/../../../../arm-elf/lib/interwork/libc.a(lib_a-atoi.o)
 .debug_abbrev  0x0000b3e9       0x5b /usr/local/OAT/lib/gcc/arm-elf/4.3.2/../../../../arm-elf/lib/interwork/libc.a(lib_a-ctype_.o)
 .debug_abbrev  0x0000b444      0x168 /usr/local/OAT/lib/gcc/arm-elf/4.3.2/../../../../arm-elf/lib/interwork/libc.a(lib_a-errno.o)
 .debug_abbrev  0x0000b5ac      0x160 /usr/local/OAT/lib/gcc/arm-elf/4.3.2/../../../../arm-elf/lib/interwork/libc.a(lib_a-impure.o)
 .debug_abbrev  0x0000b70c      0x22a /usr/local/OAT/lib/gcc/arm-elf/4.3.2/../../../../arm-elf/lib/interwork/libc.a(lib_a-locale.o)
 .debug_abbrev  0x0000b936      0x190 /usr/local/OAT/lib/gcc/arm-elf/4.3.2/../../../../arm-elf/lib/interwork/libc.a(lib_a-malloc.o)
 .debug_abbrev  0x0000bac6      0x22e /usr/local/OAT/lib/gcc/arm-elf/4.3.2/../../../../arm-elf/lib/interwork/libc.a(lib_a-mallocr.o)
 .debug_abbrev  0x0000bcf4       0x94 /usr/local/OAT/lib/gcc/arm-elf/4.3.2/../../../../arm-elf/lib/interwork/libc.a(lib_a-memcmp.o)
 .debug_abbrev  0x0000bd88       0x99 /usr/local/OAT/lib/gcc/arm-elf/4.3.2/../../../../arm-elf/lib/interwork/libc.a(lib_a-memcpy.o)
 .debug_abbrev  0x0000be21       0xb2 /usr/local/OAT/lib/gcc/arm-elf/4.3.2/../../../../arm-elf/lib/interwork/libc.a(lib_a-memset.o)
 .debug_abbrev  0x0000bed3      0x173 /usr/local/OAT/lib/gcc/arm-elf/4.3.2/../../../../arm-elf/lib/interwork/libc.a(lib_a-mlock.o)
 .debug_abbrev  0x0000c046      0x1b2 /usr/local/OAT/lib/gcc/arm-elf/4.3.2/../../../../arm-elf/lib/interwork/libc.a(lib_a-printf.o)
 .debug_abbrev  0x0000c1f8      0x188 /usr/local/OAT/lib/gcc/arm-elf/4.3.2/../../../../arm-elf/lib/interwork/libc.a(lib_a-realloc.o)
 .debug_abbrev  0x0000c380      0x1ef /usr/local/OAT/lib/gcc/arm-elf/4.3.2/../../../../arm-elf/lib/interwork/libc.a(lib_a-reallocr.o)
 .debug_abbrev  0x0000c56f      0x197 /usr/local/OAT/lib/gcc/arm-elf/4.3.2/../../../../arm-elf/lib/interwork/libc.a(lib_a-sbrkr.o)
 .debug_abbrev  0x0000c706      0x1b2 /usr/local/OAT/lib/gcc/arm-elf/4.3.2/../../../../arm-elf/lib/interwork/libc.a(lib_a-sprintf.o)
 .debug_abbrev  0x0000c8b8      0x1d8 /usr/local/OAT/lib/gcc/arm-elf/4.3.2/../../../../arm-elf/lib/interwork/libc.a(lib_a-sscanf.o)
 .debug_abbrev  0x0000ca90       0x90 /usr/local/OAT/lib/gcc/arm-elf/4.3.2/../../../../arm-elf/lib/interwork/libc.a(lib_a-strcat.o)
 .debug_abbrev  0x0000cb20       0x98 /usr/local/OAT/lib/gcc/arm-elf/4.3.2/../../../../arm-elf/lib/interwork/libc.a(lib_a-strchr.o)
 .debug_abbrev  0x0000cbb8       0x7a /usr/local/OAT/lib/gcc/arm-elf/4.3.2/../../../../arm-elf/lib/interwork/libc.a(lib_a-strcmp.o)
 .debug_abbrev  0x0000cc32       0x98 /usr/local/OAT/lib/gcc/arm-elf/4.3.2/../../../../arm-elf/lib/interwork/libc.a(lib_a-strcpy.o)
 .debug_abbrev  0x0000ccca      0x179 /usr/local/OAT/lib/gcc/arm-elf/4.3.2/../../../../arm-elf/lib/interwork/libc.a(lib_a-strdup.o)
 .debug_abbrev  0x0000ce43      0x193 /usr/local/OAT/lib/gcc/arm-elf/4.3.2/../../../../arm-elf/lib/interwork/libc.a(lib_a-strdup_r.o)
 .debug_abbrev  0x0000cfd6       0x94 /usr/local/OAT/lib/gcc/arm-elf/4.3.2/../../../../arm-elf/lib/interwork/libc.a(lib_a-strlen.o)
 .debug_abbrev  0x0000d06a       0x9d /usr/local/OAT/lib/gcc/arm-elf/4.3.2/../../../../arm-elf/lib/interwork/libc.a(lib_a-strncat.o)
 .debug_abbrev  0x0000d107       0x96 /usr/local/OAT/lib/gcc/arm-elf/4.3.2/../../../../arm-elf/lib/interwork/libc.a(lib_a-strncmp.o)
 .debug_abbrev  0x0000d19d       0x96 /usr/local/OAT/lib/gcc/arm-elf/4.3.2/../../../../arm-elf/lib/interwork/libc.a(lib_a-strncpy.o)
 .debug_abbrev  0x0000d233       0x6b /usr/local/OAT/lib/gcc/arm-elf/4.3.2/../../../../arm-elf/lib/interwork/libc.a(lib_a-strsep.o)
 .debug_abbrev  0x0000d29e       0x9d /usr/local/OAT/lib/gcc/arm-elf/4.3.2/../../../../arm-elf/lib/interwork/libc.a(lib_a-strstr.o)
 .debug_abbrev  0x0000d33b      0x188 /usr/local/OAT/lib/gcc/arm-elf/4.3.2/../../../../arm-elf/lib/interwork/libc.a(lib_a-strtok.o)
 .debug_abbrev  0x0000d4c3       0xb8 /usr/local/OAT/lib/gcc/arm-elf/4.3.2/../../../../arm-elf/lib/interwork/libc.a(lib_a-strtok_r.o)
 .debug_abbrev  0x0000d57b      0x1c6 /usr/local/OAT/lib/gcc/arm-elf/4.3.2/../../../../arm-elf/lib/interwork/libc.a(lib_a-strtol.o)
 .debug_abbrev  0x0000d741      0x421 /usr/local/OAT/lib/gcc/arm-elf/4.3.2/../../../../arm-elf/lib/interwork/libc.a(lib_a-syscalls.o)
 .debug_abbrev  0x0000db62       0x76 /usr/local/OAT/lib/gcc/arm-elf/4.3.2/../../../../arm-elf/lib/interwork/libc.a(lib_a-syswrite.o)
 .debug_abbrev  0x0000dbd8      0x1af /usr/local/OAT/lib/gcc/arm-elf/4.3.2/../../../../arm-elf/lib/interwork/libc.a(lib_a-vasprintf.o)
 .debug_abbrev  0x0000dd87      0x379 /usr/local/OAT/lib/gcc/arm-elf/4.3.2/../../../../arm-elf/lib/interwork/libc.a(lib_a-vfprintf.o)
 .debug_abbrev  0x0000e100      0x28f /usr/local/OAT/lib/gcc/arm-elf/4.3.2/../../../../arm-elf/lib/interwork/libc.a(lib_a-vfscanf.o)
 .debug_abbrev  0x0000e38f      0x19e /usr/local/OAT/lib/gcc/arm-elf/4.3.2/../../../../arm-elf/lib/interwork/libc.a(lib_a-vsprintf.o)
 .debug_abbrev  0x0000e52d      0x179 /usr/local/OAT/lib/gcc/arm-elf/4.3.2/../../../../arm-elf/lib/interwork/libc.a(lib_a-wsetup.o)
 .debug_abbrev  0x0000e6a6       0x59 /usr/local/OAT/lib/gcc/arm-elf/4.3.2/../../../../arm-elf/lib/interwork/libc.a(lib_a-OAT_close.o)
 .debug_abbrev  0x0000e6ff       0xb0 /usr/local/OAT/lib/gcc/arm-elf/4.3.2/../../../../arm-elf/lib/interwork/libc.a(lib_a-OAT_fstat.o)
 .debug_abbrev  0x0000e7af       0x59 /usr/local/OAT/lib/gcc/arm-elf/4.3.2/../../../../arm-elf/lib/interwork/libc.a(lib_a-OAT_isatty.o)
 .debug_abbrev  0x0000e808       0x68 /usr/local/OAT/lib/gcc/arm-elf/4.3.2/../../../../arm-elf/lib/interwork/libc.a(lib_a-OAT_kill.o)
 .debug_abbrev  0x0000e870       0x68 /usr/local/OAT/lib/gcc/arm-elf/4.3.2/../../../../arm-elf/lib/interwork/libc.a(lib_a-OAT_lseek.o)
 .debug_abbrev  0x0000e8d8       0x78 /usr/local/OAT/lib/gcc/arm-elf/4.3.2/../../../../arm-elf/lib/interwork/libc.a(lib_a-OAT_open.o)
 .debug_abbrev  0x0000e950       0x7e /usr/local/OAT/lib/gcc/arm-elf/4.3.2/../../../../arm-elf/lib/interwork/libc.a(lib_a-OAT_read.o)
 .debug_abbrev  0x0000e9ce       0x71 /usr/local/OAT/lib/gcc/arm-elf/4.3.2/../../../../arm-elf/lib/interwork/libc.a(lib_a-OAT_write.o)
 .debug_abbrev  0x0000ea3f      0x22c /usr/local/OAT/lib/gcc/arm-elf/4.3.2/../../../../arm-elf/lib/interwork/libc.a(lib_a-dtoa.o)
 .debug_abbrev  0x0000ec6b      0x1ab /usr/local/OAT/lib/gcc/arm-elf/4.3.2/../../../../arm-elf/lib/interwork/libc.a(lib_a-fflush.o)
 .debug_abbrev  0x0000ee16      0x29c /usr/local/OAT/lib/gcc/arm-elf/4.3.2/../../../../arm-elf/lib/interwork/libc.a(lib_a-findfp.o)
 .debug_abbrev  0x0000f0b2      0x1c9 /usr/local/OAT/lib/gcc/arm-elf/4.3.2/../../../../arm-elf/lib/interwork/libc.a(lib_a-fread.o)
 .debug_abbrev  0x0000f27b      0x200 /usr/local/OAT/lib/gcc/arm-elf/4.3.2/../../../../arm-elf/lib/interwork/libc.a(lib_a-freer.o)
 .debug_abbrev  0x0000f47b      0x1ac /usr/local/OAT/lib/gcc/arm-elf/4.3.2/../../../../arm-elf/lib/interwork/libc.a(lib_a-fvwrite.o)
 .debug_abbrev  0x0000f627      0x1ee /usr/local/OAT/lib/gcc/arm-elf/4.3.2/../../../../arm-elf/lib/interwork/libc.a(lib_a-fwalk.o)
 .debug_abbrev  0x0000f815       0xa8 /usr/local/OAT/lib/gcc/arm-elf/4.3.2/../../../../arm-elf/lib/interwork/libc.a(lib_a-iswspace.o)
 .debug_abbrev  0x0000f8bd      0x193 /usr/local/OAT/lib/gcc/arm-elf/4.3.2/../../../../arm-elf/lib/interwork/libc.a(lib_a-makebuf.o)
 .debug_abbrev  0x0000fa50      0x188 /usr/local/OAT/lib/gcc/arm-elf/4.3.2/../../../../arm-elf/lib/interwork/libc.a(lib_a-mbrtowc.o)
 .debug_abbrev  0x0000fbd8      0x1a2 /usr/local/OAT/lib/gcc/arm-elf/4.3.2/../../../../arm-elf/lib/interwork/libc.a(lib_a-mbtowc_r.o)
 .debug_abbrev  0x0000fd7a       0xbe /usr/local/OAT/lib/gcc/arm-elf/4.3.2/../../../../arm-elf/lib/interwork/libc.a(lib_a-memchr.o)
 .debug_abbrev  0x0000fe38       0xa2 /usr/local/OAT/lib/gcc/arm-elf/4.3.2/../../../../arm-elf/lib/interwork/libc.a(lib_a-memmove.o)
 .debug_abbrev  0x0000feda      0x344 /usr/local/OAT/lib/gcc/arm-elf/4.3.2/../../../../arm-elf/lib/interwork/libc.a(lib_a-mprec.o)
 .debug_abbrev  0x0001021e      0x1f2 /usr/local/OAT/lib/gcc/arm-elf/4.3.2/../../../../arm-elf/lib/interwork/libc.a(lib_a-reent.o)
 .debug_abbrev  0x00010410      0x190 /usr/local/OAT/lib/gcc/arm-elf/4.3.2/../../../../arm-elf/lib/interwork/libc.a(lib_a-refill.o)
 .debug_abbrev  0x000105a0       0xdd /usr/local/OAT/lib/gcc/arm-elf/4.3.2/../../../../arm-elf/lib/interwork/libc.a(lib_a-s_isinfd.o)
 .debug_abbrev  0x0001067d       0x9c /usr/local/OAT/lib/gcc/arm-elf/4.3.2/../../../../arm-elf/lib/interwork/libc.a(lib_a-sccl.o)
 .debug_abbrev  0x00010719       0xc0 /usr/local/OAT/lib/gcc/arm-elf/4.3.2/../../../../arm-elf/lib/interwork/libc.a(lib_a-sf_nan.o)
 .debug_abbrev  0x000107d9      0x1aa /usr/local/OAT/lib/gcc/arm-elf/4.3.2/../../../../arm-elf/lib/interwork/libc.a(lib_a-stdio.o)
 .debug_abbrev  0x00010983      0x334 /usr/local/OAT/lib/gcc/arm-elf/4.3.2/../../../../arm-elf/lib/interwork/libc.a(lib_a-strtod.o)
 .debug_abbrev  0x00010cb7      0x1c4 /usr/local/OAT/lib/gcc/arm-elf/4.3.2/../../../../arm-elf/lib/interwork/libc.a(lib_a-strtoul.o)
 .debug_abbrev  0x00010e7b      0x1b0 /usr/local/OAT/lib/gcc/arm-elf/4.3.2/../../../../arm-elf/lib/interwork/libc.a(lib_a-ungetc.o)
 .debug_abbrev  0x0001102b      0x18d /usr/local/OAT/lib/gcc/arm-elf/4.3.2/../../../../arm-elf/lib/interwork/libc.a(lib_a-writer.o)
 .debug_abbrev  0x000111b8      0x1d0 /usr/local/OAT/lib/gcc/arm-elf/4.3.2/../../../../arm-elf/lib/interwork/libc.a(lib_a-callocr.o)
 .debug_abbrev  0x00011388      0x188 /usr/local/OAT/lib/gcc/arm-elf/4.3.2/../../../../arm-elf/lib/interwork/libc.a(lib_a-closer.o)
 .debug_abbrev  0x00011510      0x1b0 /usr/local/OAT/lib/gcc/arm-elf/4.3.2/../../../../arm-elf/lib/interwork/libc.a(lib_a-fclose.o)
 .debug_abbrev  0x000116c0      0x197 /usr/local/OAT/lib/gcc/arm-elf/4.3.2/../../../../arm-elf/lib/interwork/libc.a(lib_a-fstatr.o)
 .debug_abbrev  0x00011857      0x2d7 /usr/local/OAT/lib/gcc/arm-elf/4.3.2/../../../../arm-elf/lib/interwork/libc.a(lib_a-gdtoa-gethex.o)
 .debug_abbrev  0x00011b2e      0x163 /usr/local/OAT/lib/gcc/arm-elf/4.3.2/../../../../arm-elf/lib/interwork/libc.a(lib_a-gdtoa-hexnan.o)
 .debug_abbrev  0x00011c91      0x197 /usr/local/OAT/lib/gcc/arm-elf/4.3.2/../../../../arm-elf/lib/interwork/libc.a(lib_a-lseekr.o)
 .debug_abbrev  0x00011e28      0x188 /usr/local/OAT/lib/gcc/arm-elf/4.3.2/../../../../arm-elf/lib/interwork/libc.a(lib_a-readr.o)
 .debug_abbrev  0x00011fb0       0x14 /usr/local/OAT/lib/gcc/arm-elf/4.3.2/interwork/libgcc.a(_truncdfsf2.o)

.debug_info     0x00000000    0x551a0
 .debug_info    0x00000000       0xf9 /usr/local/OAT/lib/gcc/arm-elf/4.3.2/../../../../arm-elf/lib/interwork/libm.a(lib_a-s_cos.o)
 .debug_info    0x000000f9       0xf9 /usr/local/OAT/lib/gcc/arm-elf/4.3.2/../../../../arm-elf/lib/interwork/libm.a(lib_a-s_sin.o)
 .debug_info    0x000001f2       0xbf /usr/local/OAT/lib/gcc/arm-elf/4.3.2/../../../../arm-elf/lib/interwork/libm.a(lib_a-w_atan2.o)
 .debug_info    0x000002b1      0x188 /usr/local/OAT/lib/gcc/arm-elf/4.3.2/../../../../arm-elf/lib/interwork/libm.a(lib_a-w_sqrt.o)
 .debug_info    0x00000439      0x283 /usr/local/OAT/lib/gcc/arm-elf/4.3.2/../../../../arm-elf/lib/interwork/libm.a(lib_a-e_atan2.o)
 .debug_info    0x000006bc      0x36e /usr/local/OAT/lib/gcc/arm-elf/4.3.2/../../../../arm-elf/lib/interwork/libm.a(lib_a-e_rem_pio2.o)
 .debug_info    0x00000a2a      0x228 /usr/local/OAT/lib/gcc/arm-elf/4.3.2/../../../../arm-elf/lib/interwork/libm.a(lib_a-e_sqrt.o)
 .debug_info    0x00000c52      0x23c /usr/local/OAT/lib/gcc/arm-elf/4.3.2/../../../../arm-elf/lib/interwork/libm.a(lib_a-k_cos.o)
 .debug_info    0x00000e8e      0x2df /usr/local/OAT/lib/gcc/arm-elf/4.3.2/../../../../arm-elf/lib/interwork/libm.a(lib_a-k_rem_pio2.o)
 .debug_info    0x0000116d      0x206 /usr/local/OAT/lib/gcc/arm-elf/4.3.2/../../../../arm-elf/lib/interwork/libm.a(lib_a-k_sin.o)
 .debug_info    0x00001373      0x233 /usr/local/OAT/lib/gcc/arm-elf/4.3.2/../../../../arm-elf/lib/interwork/libm.a(lib_a-s_atan.o)
 .debug_info    0x000015a6      0x152 /usr/local/OAT/lib/gcc/arm-elf/4.3.2/../../../../arm-elf/lib/interwork/libm.a(lib_a-s_fabs.o)
 .debug_info    0x000016f8      0x1af /usr/local/OAT/lib/gcc/arm-elf/4.3.2/../../../../arm-elf/lib/interwork/libm.a(lib_a-s_floor.o)
 .debug_info    0x000018a7      0x14b /usr/local/OAT/lib/gcc/arm-elf/4.3.2/../../../../arm-elf/lib/interwork/libm.a(lib_a-s_isnand.o)
 .debug_info    0x000019f2       0xc3 /usr/local/OAT/lib/gcc/arm-elf/4.3.2/../../../../arm-elf/lib/interwork/libm.a(lib_a-s_lib_ver.o)
 .debug_info    0x00001ab5      0x131 /usr/local/OAT/lib/gcc/arm-elf/4.3.2/../../../../arm-elf/lib/interwork/libm.a(lib_a-s_matherr.o)
 .debug_info    0x00001be6      0x210 /usr/local/OAT/lib/gcc/arm-elf/4.3.2/../../../../arm-elf/lib/interwork/libm.a(lib_a-s_scalbn.o)
 .debug_info    0x00001df6      0x169 /usr/local/OAT/lib/gcc/arm-elf/4.3.2/../../../../arm-elf/lib/interwork/libm.a(lib_a-s_copysign.o)
 .debug_info    0x00001f5f      0x64b mos_header.o
 .debug_info    0x000025aa      0x43d /cygdrive/c/OpenAT/OS/6.21.02/ADL/gcc_wmadl_6.21.02.0.0.lib(mos_ftr.o)
 .debug_info    0x000029e7      0x7d2 /cygdrive/c/OpenAT/OS/6.21.02/ADL/gcc_wmadl_6.21.02.0.0.lib(opec_lst.o)
 .debug_info    0x000031b9      0x651 /cygdrive/c/OpenAT/OS/6.21.02/ADL/gcc_wmadl_6.21.02.0.0.lib(opec_std.o)
 .debug_info    0x0000380a     0x1165 /cygdrive/c/OpenAT/OS/6.21.02/ADL/gcc_wmadl_6.21.02.0.0.lib(adl_ad.o)
 .debug_info    0x0000496f      0x40d /cygdrive/c/OpenAT/OS/6.21.02/ADL/gcc_wmadl_6.21.02.0.0.lib(adl_adc.o)
 .debug_info    0x00004d7c      0xd4d /cygdrive/c/OpenAT/OS/6.21.02/ADL/gcc_wmadl_6.21.02.0.0.lib(adl_AppliInit.o)
 .debug_info    0x00005ac9     0x15a5 /cygdrive/c/OpenAT/OS/6.21.02/ADL/gcc_wmadl_6.21.02.0.0.lib(adl_audio.o)
 .debug_info    0x0000706e      0xecc /cygdrive/c/OpenAT/OS/6.21.02/ADL/gcc_wmadl_6.21.02.0.0.lib(adl_bus.o)
 .debug_info    0x00007f3a      0xb3e /cygdrive/c/OpenAT/OS/6.21.02/ADL/gcc_wmadl_6.21.02.0.0.lib(adl_call.o)
 .debug_info    0x00008a78     0x144c /cygdrive/c/OpenAT/OS/6.21.02/ADL/gcc_wmadl_6.21.02.0.0.lib(adl_CmdHandler.o)
 .debug_info    0x00009ec4     0x10eb /cygdrive/c/OpenAT/OS/6.21.02/ADL/gcc_wmadl_6.21.02.0.0.lib(adl_CmdProcessor.o)
 .debug_info    0x0000afaf     0x136e /cygdrive/c/OpenAT/OS/6.21.02/ADL/gcc_wmadl_6.21.02.0.0.lib(adl_CmdStackHandler.o)
 .debug_info    0x0000c31d      0x5d7 /cygdrive/c/OpenAT/OS/6.21.02/ADL/gcc_wmadl_6.21.02.0.0.lib(adl_ctx.o)
 .debug_info    0x0000c8f4       0xa6 /cygdrive/c/OpenAT/OS/6.21.02/ADL/gcc_wmadl_6.21.02.0.0.lib(adl_defaut_buildtime.o)
 .debug_info    0x0000c99a       0xb8 /cygdrive/c/OpenAT/OS/6.21.02/ADL/gcc_wmadl_6.21.02.0.0.lib(adl_defaut_extend.o)
 .debug_info    0x0000ca52       0x97 /cygdrive/c/OpenAT/OS/6.21.02/ADL/gcc_wmadl_6.21.02.0.0.lib(adl_defaut_selist.o)
 .debug_info    0x0000cae9       0xa0 /cygdrive/c/OpenAT/OS/6.21.02/ADL/gcc_wmadl_6.21.02.0.0.lib(adl_defaut_timeslicing.o)
 .debug_info    0x0000cb89      0x697 /cygdrive/c/OpenAT/OS/6.21.02/ADL/gcc_wmadl_6.21.02.0.0.lib(adl_error.o)
 .debug_info    0x0000d220      0x6fb /cygdrive/c/OpenAT/OS/6.21.02/ADL/gcc_wmadl_6.21.02.0.0.lib(adl_EventMachine.o)
 .debug_info    0x0000d91b      0xb03 /cygdrive/c/OpenAT/OS/6.21.02/ADL/gcc_wmadl_6.21.02.0.0.lib(adl_extint.o)
 .debug_info    0x0000e41e      0x1f8 /cygdrive/c/OpenAT/OS/6.21.02/ADL/gcc_wmadl_6.21.02.0.0.lib(adl_extint_deprecated.o)
 .debug_info    0x0000e616     0x1606 /cygdrive/c/OpenAT/OS/6.21.02/ADL/gcc_wmadl_6.21.02.0.0.lib(adl_fcm.o)
 .debug_info    0x0000fc1c      0xa52 /cygdrive/c/OpenAT/OS/6.21.02/ADL/gcc_wmadl_6.21.02.0.0.lib(adl_flash.o)
 .debug_info    0x0001066e      0xedb /cygdrive/c/OpenAT/OS/6.21.02/ADL/gcc_wmadl_6.21.02.0.0.lib(adl_gpio.o)
 .debug_info    0x00011549     0x1161 /cygdrive/c/OpenAT/OS/6.21.02/ADL/gcc_wmadl_6.21.02.0.0.lib(adl_gprs.o)
 .debug_info    0x000126aa      0xf8e /cygdrive/c/OpenAT/OS/6.21.02/ADL/gcc_wmadl_6.21.02.0.0.lib(adl_irq.o)
 .debug_info    0x00013638      0x5fd /cygdrive/c/OpenAT/OS/6.21.02/ADL/gcc_wmadl_6.21.02.0.0.lib(adl_memory.o)
 .debug_info    0x00013c35      0xa3f /cygdrive/c/OpenAT/OS/6.21.02/ADL/gcc_wmadl_6.21.02.0.0.lib(adl_msg.o)
 .debug_info    0x00014674      0xaf9 /cygdrive/c/OpenAT/OS/6.21.02/ADL/gcc_wmadl_6.21.02.0.0.lib(adl_port.o)
 .debug_info    0x0001516d      0x4cd /cygdrive/c/OpenAT/OS/6.21.02/ADL/gcc_wmadl_6.21.02.0.0.lib(adl_reg.o)
 .debug_info    0x0001563a     0x13c0 /cygdrive/c/OpenAT/OS/6.21.02/ADL/gcc_wmadl_6.21.02.0.0.lib(adl_RspHandler.o)
 .debug_info    0x000169fa      0x5e9 /cygdrive/c/OpenAT/OS/6.21.02/ADL/gcc_wmadl_6.21.02.0.0.lib(adl_rtc.o)
 .debug_info    0x00016fe3      0x6ad /cygdrive/c/OpenAT/OS/6.21.02/ADL/gcc_wmadl_6.21.02.0.0.lib(adl_sem.o)
 .debug_info    0x00017690      0x286 /cygdrive/c/OpenAT/OS/6.21.02/ADL/gcc_wmadl_6.21.02.0.0.lib(adl_serv.o)
 .debug_info    0x00017916      0x9db /cygdrive/c/OpenAT/OS/6.21.02/ADL/gcc_wmadl_6.21.02.0.0.lib(adl_sim.o)
 .debug_info    0x000182f1      0xac9 /cygdrive/c/OpenAT/OS/6.21.02/ADL/gcc_wmadl_6.21.02.0.0.lib(adl_sms.o)
 .debug_info    0x00018dba      0x603 /cygdrive/c/OpenAT/OS/6.21.02/ADL/gcc_wmadl_6.21.02.0.0.lib(adl_str.o)
 .debug_info    0x000193bd      0x982 /cygdrive/c/OpenAT/OS/6.21.02/ADL/gcc_wmadl_6.21.02.0.0.lib(adl_TimerHandler.o)
 .debug_info    0x00019d3f      0x86c /cygdrive/c/OpenAT/OS/6.21.02/ADL/gcc_wmadl_6.21.02.0.0.lib(adl_traces.o)
 .debug_info    0x0001a5ab      0x5ce /cygdrive/c/OpenAT/OS/6.21.02/ADL/gcc_wmadl_6.21.02.0.0.lib(adl_UnSoHandler.o)
 .debug_info    0x0001ab79      0x40e /cygdrive/c/OpenAT/OS/6.21.02/ADL/gcc_wmadl_6.21.02.0.0.lib(adl_wd.o)
 .debug_info    0x0001af87      0x478 /cygdrive/c/OpenAT/Plug-ins/WIP/5.10.2020/WIP/gcc_wmwip_5.10.2020.lib(br_close.o)
 .debug_info    0x0001b3ff      0x44c /cygdrive/c/OpenAT/Plug-ins/WIP/5.10.2020/WIP/gcc_wmwip_5.10.2020.lib(br_getopts.o)
 .debug_info    0x0001b84b      0x489 /cygdrive/c/OpenAT/Plug-ins/WIP/5.10.2020/WIP/gcc_wmwip_5.10.2020.lib(br_mgr_init.o)
 .debug_info    0x0001bcd4      0x536 /cygdrive/c/OpenAT/Plug-ins/WIP/5.10.2020/WIP/gcc_wmwip_5.10.2020.lib(br_open.o)
 .debug_info    0x0001c20a      0x44c /cygdrive/c/OpenAT/Plug-ins/WIP/5.10.2020/WIP/gcc_wmwip_5.10.2020.lib(br_setopts.o)
 .debug_info    0x0001c656      0x40b /cygdrive/c/OpenAT/Plug-ins/WIP/5.10.2020/WIP/gcc_wmwip_5.10.2020.lib(br_start.o)
 .debug_info    0x0001ca61      0x7d1 /cygdrive/c/OpenAT/Plug-ins/WIP/5.10.2020/WIP/gcc_wmwip_5.10.2020.lib(br_v24.o)
 .debug_info    0x0001d232     0x1312 /cygdrive/c/OpenAT/Plug-ins/WIP/5.10.2020/WIP/gcc_wmwip_5.10.2020.lib(ch_channel.o)
 .debug_info    0x0001e544     0x1647 /cygdrive/c/OpenAT/Plug-ins/WIP/5.10.2020/WIP/gcc_wmwip_5.10.2020.lib(ch_tcp_client.o)
 .debug_info    0x0001fb8b     0x12e6 /cygdrive/c/OpenAT/Plug-ins/WIP/5.10.2020/WIP/gcc_wmwip_5.10.2020.lib(ch_udp.o)
 .debug_info    0x00020e71      0xcd0 /cygdrive/c/OpenAT/Plug-ins/WIP/5.10.2020/WIP/gcc_wmwip_5.10.2020.lib(file.o)
 .debug_info    0x00021b41     0x16f4 /cygdrive/c/OpenAT/Plug-ins/WIP/5.10.2020/WIP/gcc_wmwip_5.10.2020.lib(ftp.o)
 .debug_info    0x00023235     0x12aa /cygdrive/c/OpenAT/Plug-ins/WIP/5.10.2020/WIP/gcc_wmwip_5.10.2020.lib(ftp_evh.o)
 .debug_info    0x000244df      0xe62 /cygdrive/c/OpenAT/Plug-ins/WIP/5.10.2020/WIP/gcc_wmwip_5.10.2020.lib(ftp_list.o)
 .debug_info    0x00025341       0xcc /cygdrive/c/OpenAT/Plug-ins/WIP/5.10.2020/WIP/gcc_wmwip_5.10.2020.lib(ftr.o)
 .debug_info    0x0002540d      0x101 /cygdrive/c/OpenAT/Plug-ins/WIP/5.10.2020/WIP/gcc_wmwip_5.10.2020.lib(in_aton.o)
 .debug_info    0x0002550e      0x11b /cygdrive/c/OpenAT/Plug-ins/WIP/5.10.2020/WIP/gcc_wmwip_5.10.2020.lib(in_ntoa.o)
 .debug_info    0x00025629      0x269 /cygdrive/c/OpenAT/Plug-ins/WIP/5.10.2020/WIP/gcc_wmwip_5.10.2020.lib(list_plugin_unix.o)
 .debug_info    0x00025892      0x2b1 /cygdrive/c/OpenAT/Plug-ins/WIP/5.10.2020/WIP/gcc_wmwip_5.10.2020.lib(net_debug.o)
 .debug_info    0x00025b43       0xab /cygdrive/c/OpenAT/Plug-ins/WIP/5.10.2020/WIP/gcc_wmwip_5.10.2020.lib(net_init.o)
 .debug_info    0x00025bee      0x407 /cygdrive/c/OpenAT/Plug-ins/WIP/5.10.2020/WIP/gcc_wmwip_5.10.2020.lib(net_initopts.o)
 .debug_info    0x00025ff5      0x1b2 /cygdrive/c/OpenAT/Plug-ins/WIP/5.10.2020/WIP/gcc_wmwip_5.10.2020.lib(net_setopts.o)
 .debug_info    0x000261a7       0xb4 /cygdrive/c/OpenAT/Plug-ins/WIP/5.10.2020/WIP/gcc_wmwip_5.10.2020.lib(net_sync.o)
 .debug_info    0x0002625b      0x359 /cygdrive/c/OpenAT/Plug-ins/WIP/5.10.2020/WIP/gcc_wmwip_5.10.2020.lib(queue.o)
 .debug_info    0x000265b4      0x745 /cygdrive/c/OpenAT/Plug-ins/WIP/5.10.2020/WIP/gcc_wmwip_5.10.2020.lib(readline.o)
 .debug_info    0x00026cf9      0x865 /cygdrive/c/OpenAT/Plug-ins/WIP/5.10.2020/WIP/gcc_wmwip_5.10.2020.lib(wip_subLevelOpts.o)
 .debug_info    0x0002755e      0xd1f /cygdrive/c/OpenAT/Plug-ins/WIP/5.10.2020/WIP/gcc_wmwip_5.10.2020.lib(wrapper.o)
 .debug_info    0x0002827d      0x156 /cygdrive/c/OpenAT/Plug-ins/WIP/5.10.2020/WIP/gcc_wmwip_5.10.2020.lib(wm_net_hton.o)
 .debug_info    0x000283d3      0x1aa /cygdrive/c/OpenAT/Plug-ins/WIP/5.10.2020/WIP/gcc_wmwip_5.10.2020.lib(wm_net_in_aton.o)
 .debug_info    0x0002857d      0x14f /cygdrive/c/OpenAT/Plug-ins/WIP/5.10.2020/WIP/gcc_wmwip_5.10.2020.lib(wm_net_in_ntoa.o)
 .debug_info    0x000286cc     0x1ab9 /cygdrive/c/OpenAT/Plug-ins/WIP/5.10.2020/WIP/gcc_wmwip_5.10.2020.lib(wm_net_wrapper.o)
 .debug_info    0x0002a185      0x314 /cygdrive/c/OpenAT/Plug-ins/WIP/5.10.2020/WIP/gcc_wmwip_5.10.2020.lib(rawprint.o)
 .debug_info    0x0002a499      0x81a /cygdrive/c/OpenAT/Plug-ins/WIP/5.10.2020/WIP/gcc_wmwip_5.10.2020.lib(br_eth.o)
 .debug_info    0x0002acb3      0x400 /cygdrive/c/OpenAT/Plug-ins/WIP/5.10.2020/WIP/gcc_wmwip_5.10.2020.lib(br_gen_close.o)
 .debug_info    0x0002b0b3      0x480 /cygdrive/c/OpenAT/Plug-ins/WIP/5.10.2020/WIP/gcc_wmwip_5.10.2020.lib(br_gen_getopt.o)
 .debug_info    0x0002b533      0x43b /cygdrive/c/OpenAT/Plug-ins/WIP/5.10.2020/WIP/gcc_wmwip_5.10.2020.lib(br_gen_setopt.o)
 .debug_info    0x0002b96e      0x40b /cygdrive/c/OpenAT/Plug-ins/WIP/5.10.2020/WIP/gcc_wmwip_5.10.2020.lib(br_gen_stop.o)
 .debug_info    0x0002bd79      0x8b6 /cygdrive/c/OpenAT/Plug-ins/WIP/5.10.2020/WIP/gcc_wmwip_5.10.2020.lib(br_gprs.o)
 .debug_info    0x0002c62f      0xb76 /cygdrive/c/OpenAT/Plug-ins/WIP/5.10.2020/WIP/gcc_wmwip_5.10.2020.lib(br_gsm.o)
 .debug_info    0x0002d1a5       0xe3 /cygdrive/c/OpenAT/Plug-ins/WIP/5.10.2020/WIP/gcc_wmwip_5.10.2020.lib(br_mgr_debug.o)
 .debug_info    0x0002d288      0x601 /cygdrive/c/OpenAT/Plug-ins/WIP/5.10.2020/WIP/gcc_wmwip_5.10.2020.lib(br_ppp_getopt.o)
 .debug_info    0x0002d889      0x689 /cygdrive/c/OpenAT/Plug-ins/WIP/5.10.2020/WIP/gcc_wmwip_5.10.2020.lib(br_ppp_init.o)
 .debug_info    0x0002df12      0x603 /cygdrive/c/OpenAT/Plug-ins/WIP/5.10.2020/WIP/gcc_wmwip_5.10.2020.lib(br_ppp_setopt.o)
 .debug_info    0x0002e515      0x5fa /cygdrive/c/OpenAT/Plug-ins/WIP/5.10.2020/WIP/gcc_wmwip_5.10.2020.lib(br_ppp_start.o)
 .debug_info    0x0002eb0f      0x5c8 /cygdrive/c/OpenAT/Plug-ins/WIP/5.10.2020/WIP/gcc_wmwip_5.10.2020.lib(br_ppp_stop.o)
 .debug_info    0x0002f0d7      0xbe2 /cygdrive/c/OpenAT/Plug-ins/WIP/5.10.2020/WIP/gcc_wmwip_5.10.2020.lib(ch_class.o)
 .debug_info    0x0002fcb9      0xc5a /cygdrive/c/OpenAT/Plug-ins/WIP/5.10.2020/WIP/gcc_wmwip_5.10.2020.lib(ch_tcp_server.o)
 .debug_info    0x00030913       0xac /usr/local/OAT/lib/gcc/arm-elf/4.3.2/interwork/libgcc.a(_udivsi3.o)
 .debug_info    0x000309bf       0xac /usr/local/OAT/lib/gcc/arm-elf/4.3.2/interwork/libgcc.a(_divsi3.o)
 .debug_info    0x00030a6b       0xac /usr/local/OAT/lib/gcc/arm-elf/4.3.2/interwork/libgcc.a(_umodsi3.o)
 .debug_info    0x00030b17       0xac /usr/local/OAT/lib/gcc/arm-elf/4.3.2/interwork/libgcc.a(_dvmd_tls.o)
 .debug_info    0x00030bc3       0xab /usr/local/OAT/lib/gcc/arm-elf/4.3.2/interwork/libgcc.a(_addsubdf3.o)
 .debug_info    0x00030c6e       0xab /usr/local/OAT/lib/gcc/arm-elf/4.3.2/interwork/libgcc.a(_muldivdf3.o)
 .debug_info    0x00030d19       0xab /usr/local/OAT/lib/gcc/arm-elf/4.3.2/interwork/libgcc.a(_cmpdf2.o)
 .debug_info    0x00030dc4       0xab /usr/local/OAT/lib/gcc/arm-elf/4.3.2/interwork/libgcc.a(_fixdfsi.o)
 .debug_info    0x00030e6f       0xab /usr/local/OAT/lib/gcc/arm-elf/4.3.2/interwork/libgcc.a(_fixunsdfsi.o)
 .debug_info    0x00030f1a       0xab /usr/local/OAT/lib/gcc/arm-elf/4.3.2/interwork/libgcc.a(_addsubsf3.o)
 .debug_info    0x00030fc5       0xab /usr/local/OAT/lib/gcc/arm-elf/4.3.2/interwork/libgcc.a(_muldivsf3.o)
 .debug_info    0x00031070       0xab /usr/local/OAT/lib/gcc/arm-elf/4.3.2/interwork/libgcc.a(_cmpsf2.o)
 .debug_info    0x0003111b       0xab /usr/local/OAT/lib/gcc/arm-elf/4.3.2/interwork/libgcc.a(_fixunssfsi.o)
 .debug_info    0x000311c6      0xa0d /usr/local/OAT/lib/gcc/arm-elf/4.3.2/../../../../arm-elf/lib/interwork/libc.a(lib_a-asprintf.o)
 .debug_info    0x00031bd3      0x960 /usr/local/OAT/lib/gcc/arm-elf/4.3.2/../../../../arm-elf/lib/interwork/libc.a(lib_a-atoi.o)
 .debug_info    0x00032533       0x75 /usr/local/OAT/lib/gcc/arm-elf/4.3.2/../../../../arm-elf/lib/interwork/libc.a(lib_a-ctype_.o)
 .debug_info    0x000325a8      0x92a /usr/local/OAT/lib/gcc/arm-elf/4.3.2/../../../../arm-elf/lib/interwork/libc.a(lib_a-errno.o)
 .debug_info    0x00032ed2      0x939 /usr/local/OAT/lib/gcc/arm-elf/4.3.2/../../../../arm-elf/lib/interwork/libc.a(lib_a-impure.o)
 .debug_info    0x0003380b      0xba9 /usr/local/OAT/lib/gcc/arm-elf/4.3.2/../../../../arm-elf/lib/interwork/libc.a(lib_a-locale.o)
 .debug_info    0x000343b4      0x96e /usr/local/OAT/lib/gcc/arm-elf/4.3.2/../../../../arm-elf/lib/interwork/libc.a(lib_a-malloc.o)
 .debug_info    0x00034d22      0xcca /usr/local/OAT/lib/gcc/arm-elf/4.3.2/../../../../arm-elf/lib/interwork/libc.a(lib_a-mallocr.o)
 .debug_info    0x000359ec      0x10f /usr/local/OAT/lib/gcc/arm-elf/4.3.2/../../../../arm-elf/lib/interwork/libc.a(lib_a-memcmp.o)
 .debug_info    0x00035afb      0x10e /usr/local/OAT/lib/gcc/arm-elf/4.3.2/../../../../arm-elf/lib/interwork/libc.a(lib_a-memcpy.o)
 .debug_info    0x00035c09      0x113 /usr/local/OAT/lib/gcc/arm-elf/4.3.2/../../../../arm-elf/lib/interwork/libc.a(lib_a-memset.o)
 .debug_info    0x00035d1c      0x953 /usr/local/OAT/lib/gcc/arm-elf/4.3.2/../../../../arm-elf/lib/interwork/libc.a(lib_a-mlock.o)
 .debug_info    0x0003666f      0x9cb /usr/local/OAT/lib/gcc/arm-elf/4.3.2/../../../../arm-elf/lib/interwork/libc.a(lib_a-printf.o)
 .debug_info    0x0003703a      0x953 /usr/local/OAT/lib/gcc/arm-elf/4.3.2/../../../../arm-elf/lib/interwork/libc.a(lib_a-realloc.o)
 .debug_info    0x0003798d      0xbb3 /usr/local/OAT/lib/gcc/arm-elf/4.3.2/../../../../arm-elf/lib/interwork/libc.a(lib_a-reallocr.o)
 .debug_info    0x00038540      0x962 /usr/local/OAT/lib/gcc/arm-elf/4.3.2/../../../../arm-elf/lib/interwork/libc.a(lib_a-sbrkr.o)
 .debug_info    0x00038ea2      0xa0c /usr/local/OAT/lib/gcc/arm-elf/4.3.2/../../../../arm-elf/lib/interwork/libc.a(lib_a-sprintf.o)
 .debug_info    0x000398ae      0xa62 /usr/local/OAT/lib/gcc/arm-elf/4.3.2/../../../../arm-elf/lib/interwork/libc.a(lib_a-sscanf.o)
 .debug_info    0x0003a310       0xe9 /usr/local/OAT/lib/gcc/arm-elf/4.3.2/../../../../arm-elf/lib/interwork/libc.a(lib_a-strcat.o)
 .debug_info    0x0003a3f9      0x114 /usr/local/OAT/lib/gcc/arm-elf/4.3.2/../../../../arm-elf/lib/interwork/libc.a(lib_a-strchr.o)
 .debug_info    0x0003a50d       0xdb /usr/local/OAT/lib/gcc/arm-elf/4.3.2/../../../../arm-elf/lib/interwork/libc.a(lib_a-strcmp.o)
 .debug_info    0x0003a5e8      0x10e /usr/local/OAT/lib/gcc/arm-elf/4.3.2/../../../../arm-elf/lib/interwork/libc.a(lib_a-strcpy.o)
 .debug_info    0x0003a6f6      0x93a /usr/local/OAT/lib/gcc/arm-elf/4.3.2/../../../../arm-elf/lib/interwork/libc.a(lib_a-strdup.o)
 .debug_info    0x0003b030      0x95c /usr/local/OAT/lib/gcc/arm-elf/4.3.2/../../../../arm-elf/lib/interwork/libc.a(lib_a-strdup_r.o)
 .debug_info    0x0003b98c       0xd7 /usr/local/OAT/lib/gcc/arm-elf/4.3.2/../../../../arm-elf/lib/interwork/libc.a(lib_a-strlen.o)
 .debug_info    0x0003ba63      0x101 /usr/local/OAT/lib/gcc/arm-elf/4.3.2/../../../../arm-elf/lib/interwork/libc.a(lib_a-strncat.o)
 .debug_info    0x0003bb64       0xf3 /usr/local/OAT/lib/gcc/arm-elf/4.3.2/../../../../arm-elf/lib/interwork/libc.a(lib_a-strncmp.o)
 .debug_info    0x0003bc57      0x12a /usr/local/OAT/lib/gcc/arm-elf/4.3.2/../../../../arm-elf/lib/interwork/libc.a(lib_a-strncpy.o)
 .debug_info    0x0003bd81       0xc9 /usr/local/OAT/lib/gcc/arm-elf/4.3.2/../../../../arm-elf/lib/interwork/libc.a(lib_a-strsep.o)
 .debug_info    0x0003be4a       0xdb /usr/local/OAT/lib/gcc/arm-elf/4.3.2/../../../../arm-elf/lib/interwork/libc.a(lib_a-strstr.o)
 .debug_info    0x0003bf25      0x947 /usr/local/OAT/lib/gcc/arm-elf/4.3.2/../../../../arm-elf/lib/interwork/libc.a(lib_a-strtok.o)
 .debug_info    0x0003c86c      0x164 /usr/local/OAT/lib/gcc/arm-elf/4.3.2/../../../../arm-elf/lib/interwork/libc.a(lib_a-strtok_r.o)
 .debug_info    0x0003c9d0      0xa24 /usr/local/OAT/lib/gcc/arm-elf/4.3.2/../../../../arm-elf/lib/interwork/libc.a(lib_a-strtol.o)
 .debug_info    0x0003d3f4     0x17bd /usr/local/OAT/lib/gcc/arm-elf/4.3.2/../../../../arm-elf/lib/interwork/libc.a(lib_a-syscalls.o)
 .debug_info    0x0003ebb1       0xd2 /usr/local/OAT/lib/gcc/arm-elf/4.3.2/../../../../arm-elf/lib/interwork/libc.a(lib_a-syswrite.o)
 .debug_info    0x0003ec83      0x9f9 /usr/local/OAT/lib/gcc/arm-elf/4.3.2/../../../../arm-elf/lib/interwork/libc.a(lib_a-vasprintf.o)
 .debug_info    0x0003f67c     0x10c7 /usr/local/OAT/lib/gcc/arm-elf/4.3.2/../../../../arm-elf/lib/interwork/libc.a(lib_a-vfprintf.o)
 .debug_info    0x00040743      0xe51 /usr/local/OAT/lib/gcc/arm-elf/4.3.2/../../../../arm-elf/lib/interwork/libc.a(lib_a-vfscanf.o)
 .debug_info    0x00041594      0x9ef /usr/local/OAT/lib/gcc/arm-elf/4.3.2/../../../../arm-elf/lib/interwork/libc.a(lib_a-vsprintf.o)
 .debug_info    0x00041f83      0x959 /usr/local/OAT/lib/gcc/arm-elf/4.3.2/../../../../arm-elf/lib/interwork/libc.a(lib_a-wsetup.o)
 .debug_info    0x000428dc       0x9d /usr/local/OAT/lib/gcc/arm-elf/4.3.2/../../../../arm-elf/lib/interwork/libc.a(lib_a-OAT_close.o)
 .debug_info    0x00042979      0x242 /usr/local/OAT/lib/gcc/arm-elf/4.3.2/../../../../arm-elf/lib/interwork/libc.a(lib_a-OAT_fstat.o)
 .debug_info    0x00042bbb       0x9c /usr/local/OAT/lib/gcc/arm-elf/4.3.2/../../../../arm-elf/lib/interwork/libc.a(lib_a-OAT_isatty.o)
 .debug_info    0x00042c57       0xaa /usr/local/OAT/lib/gcc/arm-elf/4.3.2/../../../../arm-elf/lib/interwork/libc.a(lib_a-OAT_kill.o)
 .debug_info    0x00042d01       0xb7 /usr/local/OAT/lib/gcc/arm-elf/4.3.2/../../../../arm-elf/lib/interwork/libc.a(lib_a-OAT_lseek.o)
 .debug_info    0x00042db8       0xb5 /usr/local/OAT/lib/gcc/arm-elf/4.3.2/../../../../arm-elf/lib/interwork/libc.a(lib_a-OAT_open.o)
 .debug_info    0x00042e6d       0xc8 /usr/local/OAT/lib/gcc/arm-elf/4.3.2/../../../../arm-elf/lib/interwork/libc.a(lib_a-OAT_read.o)
 .debug_info    0x00042f35       0xbd /usr/local/OAT/lib/gcc/arm-elf/4.3.2/../../../../arm-elf/lib/interwork/libc.a(lib_a-OAT_write.o)
 .debug_info    0x00042ff2      0xd6c /usr/local/OAT/lib/gcc/arm-elf/4.3.2/../../../../arm-elf/lib/interwork/libc.a(lib_a-dtoa.o)
 .debug_info    0x00043d5e      0x9f4 /usr/local/OAT/lib/gcc/arm-elf/4.3.2/../../../../arm-elf/lib/interwork/libc.a(lib_a-fflush.o)
 .debug_info    0x00044752      0xc0c /usr/local/OAT/lib/gcc/arm-elf/4.3.2/../../../../arm-elf/lib/interwork/libc.a(lib_a-findfp.o)
 .debug_info    0x0004535e      0xa70 /usr/local/OAT/lib/gcc/arm-elf/4.3.2/../../../../arm-elf/lib/interwork/libc.a(lib_a-fread.o)
 .debug_info    0x00045dce      0xbbf /usr/local/OAT/lib/gcc/arm-elf/4.3.2/../../../../arm-elf/lib/interwork/libc.a(lib_a-freer.o)
 .debug_info    0x0004698d      0xa80 /usr/local/OAT/lib/gcc/arm-elf/4.3.2/../../../../arm-elf/lib/interwork/libc.a(lib_a-fvwrite.o)
 .debug_info    0x0004740d      0xae1 /usr/local/OAT/lib/gcc/arm-elf/4.3.2/../../../../arm-elf/lib/interwork/libc.a(lib_a-fwalk.o)
 .debug_info    0x00047eee       0xeb /usr/local/OAT/lib/gcc/arm-elf/4.3.2/../../../../arm-elf/lib/interwork/libc.a(lib_a-iswspace.o)
 .debug_info    0x00047fd9      0xb1a /usr/local/OAT/lib/gcc/arm-elf/4.3.2/../../../../arm-elf/lib/interwork/libc.a(lib_a-makebuf.o)
 .debug_info    0x00048af3      0xa03 /usr/local/OAT/lib/gcc/arm-elf/4.3.2/../../../../arm-elf/lib/interwork/libc.a(lib_a-mbrtowc.o)
 .debug_info    0x000494f6      0x9a4 /usr/local/OAT/lib/gcc/arm-elf/4.3.2/../../../../arm-elf/lib/interwork/libc.a(lib_a-mbtowc_r.o)
 .debug_info    0x00049e9a      0x134 /usr/local/OAT/lib/gcc/arm-elf/4.3.2/../../../../arm-elf/lib/interwork/libc.a(lib_a-memchr.o)
 .debug_info    0x00049fce      0x142 /usr/local/OAT/lib/gcc/arm-elf/4.3.2/../../../../arm-elf/lib/interwork/libc.a(lib_a-memmove.o)
 .debug_info    0x0004a110     0x14de /usr/local/OAT/lib/gcc/arm-elf/4.3.2/../../../../arm-elf/lib/interwork/libc.a(lib_a-mprec.o)
 .debug_info    0x0004b5ee      0xa1c /usr/local/OAT/lib/gcc/arm-elf/4.3.2/../../../../arm-elf/lib/interwork/libc.a(lib_a-reent.o)
 .debug_info    0x0004c00a      0x989 /usr/local/OAT/lib/gcc/arm-elf/4.3.2/../../../../arm-elf/lib/interwork/libc.a(lib_a-refill.o)
 .debug_info    0x0004c993      0x14d /usr/local/OAT/lib/gcc/arm-elf/4.3.2/../../../../arm-elf/lib/interwork/libc.a(lib_a-s_isinfd.o)
 .debug_info    0x0004cae0       0xf9 /usr/local/OAT/lib/gcc/arm-elf/4.3.2/../../../../arm-elf/lib/interwork/libc.a(lib_a-sccl.o)
 .debug_info    0x0004cbd9      0x114 /usr/local/OAT/lib/gcc/arm-elf/4.3.2/../../../../arm-elf/lib/interwork/libc.a(lib_a-sf_nan.o)
 .debug_info    0x0004cced      0xaac /usr/local/OAT/lib/gcc/arm-elf/4.3.2/../../../../arm-elf/lib/interwork/libc.a(lib_a-stdio.o)
 .debug_info    0x0004d799      0xfe4 /usr/local/OAT/lib/gcc/arm-elf/4.3.2/../../../../arm-elf/lib/interwork/libc.a(lib_a-strtod.o)
 .debug_info    0x0004e77d      0xa1c /usr/local/OAT/lib/gcc/arm-elf/4.3.2/../../../../arm-elf/lib/interwork/libc.a(lib_a-strtoul.o)
 .debug_info    0x0004f199      0x9f2 /usr/local/OAT/lib/gcc/arm-elf/4.3.2/../../../../arm-elf/lib/interwork/libc.a(lib_a-ungetc.o)
 .debug_info    0x0004fb8b      0x991 /usr/local/OAT/lib/gcc/arm-elf/4.3.2/../../../../arm-elf/lib/interwork/libc.a(lib_a-writer.o)
 .debug_info    0x0005051c      0xa15 /usr/local/OAT/lib/gcc/arm-elf/4.3.2/../../../../arm-elf/lib/interwork/libc.a(lib_a-callocr.o)
 .debug_info    0x00050f31      0x956 /usr/local/OAT/lib/gcc/arm-elf/4.3.2/../../../../arm-elf/lib/interwork/libc.a(lib_a-closer.o)
 .debug_info    0x00051887      0x98e /usr/local/OAT/lib/gcc/arm-elf/4.3.2/../../../../arm-elf/lib/interwork/libc.a(lib_a-fclose.o)
 .debug_info    0x00052215      0xafa /usr/local/OAT/lib/gcc/arm-elf/4.3.2/../../../../arm-elf/lib/interwork/libc.a(lib_a-fstatr.o)
 .debug_info    0x00052d0f      0xde1 /usr/local/OAT/lib/gcc/arm-elf/4.3.2/../../../../arm-elf/lib/interwork/libc.a(lib_a-gdtoa-gethex.o)
 .debug_info    0x00053af0      0x2fc /usr/local/OAT/lib/gcc/arm-elf/4.3.2/../../../../arm-elf/lib/interwork/libc.a(lib_a-gdtoa-hexnan.o)
 .debug_info    0x00053dec      0x97f /usr/local/OAT/lib/gcc/arm-elf/4.3.2/../../../../arm-elf/lib/interwork/libc.a(lib_a-lseekr.o)
 .debug_info    0x0005476b      0x98a /usr/local/OAT/lib/gcc/arm-elf/4.3.2/../../../../arm-elf/lib/interwork/libc.a(lib_a-readr.o)
 .debug_info    0x000550f5       0xab /usr/local/OAT/lib/gcc/arm-elf/4.3.2/interwork/libgcc.a(_truncdfsf2.o)

.debug_line     0x00000000    0x2c9fb
 .debug_line    0x00000000       0xe0 /usr/local/OAT/lib/gcc/arm-elf/4.3.2/../../../../arm-elf/lib/interwork/libm.a(lib_a-s_cos.o)
 .debug_line    0x000000e0       0xe1 /usr/local/OAT/lib/gcc/arm-elf/4.3.2/../../../../arm-elf/lib/interwork/libm.a(lib_a-s_sin.o)
 .debug_line    0x000001c1       0x77 /usr/local/OAT/lib/gcc/arm-elf/4.3.2/../../../../arm-elf/lib/interwork/libm.a(lib_a-w_atan2.o)
 .debug_line    0x00000238       0xd2 /usr/local/OAT/lib/gcc/arm-elf/4.3.2/../../../../arm-elf/lib/interwork/libm.a(lib_a-w_sqrt.o)
 .debug_line    0x0000030a      0x15d /usr/local/OAT/lib/gcc/arm-elf/4.3.2/../../../../arm-elf/lib/interwork/libm.a(lib_a-e_atan2.o)
 .debug_line    0x00000467      0x1af /usr/local/OAT/lib/gcc/arm-elf/4.3.2/../../../../arm-elf/lib/interwork/libm.a(lib_a-e_rem_pio2.o)
 .debug_line    0x00000616      0x182 /usr/local/OAT/lib/gcc/arm-elf/4.3.2/../../../../arm-elf/lib/interwork/libm.a(lib_a-e_sqrt.o)
 .debug_line    0x00000798      0x13a /usr/local/OAT/lib/gcc/arm-elf/4.3.2/../../../../arm-elf/lib/interwork/libm.a(lib_a-k_cos.o)
 .debug_line    0x000008d2      0x1f3 /usr/local/OAT/lib/gcc/arm-elf/4.3.2/../../../../arm-elf/lib/interwork/libm.a(lib_a-k_rem_pio2.o)
 .debug_line    0x00000ac5      0x12e /usr/local/OAT/lib/gcc/arm-elf/4.3.2/../../../../arm-elf/lib/interwork/libm.a(lib_a-k_sin.o)
 .debug_line    0x00000bf3      0x164 /usr/local/OAT/lib/gcc/arm-elf/4.3.2/../../../../arm-elf/lib/interwork/libm.a(lib_a-s_atan.o)
 .debug_line    0x00000d57      0x11c /usr/local/OAT/lib/gcc/arm-elf/4.3.2/../../../../arm-elf/lib/interwork/libm.a(lib_a-s_fabs.o)
 .debug_line    0x00000e73      0x141 /usr/local/OAT/lib/gcc/arm-elf/4.3.2/../../../../arm-elf/lib/interwork/libm.a(lib_a-s_floor.o)
 .debug_line    0x00000fb4       0xd9 /usr/local/OAT/lib/gcc/arm-elf/4.3.2/../../../../arm-elf/lib/interwork/libm.a(lib_a-s_isnand.o)
 .debug_line    0x0000108d       0xa8 /usr/local/OAT/lib/gcc/arm-elf/4.3.2/../../../../arm-elf/lib/interwork/libm.a(lib_a-s_lib_ver.o)
 .debug_line    0x00001135       0xb8 /usr/local/OAT/lib/gcc/arm-elf/4.3.2/../../../../arm-elf/lib/interwork/libm.a(lib_a-s_matherr.o)
 .debug_line    0x000011ed       0xfe /usr/local/OAT/lib/gcc/arm-elf/4.3.2/../../../../arm-elf/lib/interwork/libm.a(lib_a-s_scalbn.o)
 .debug_line    0x000012eb       0xdc /usr/local/OAT/lib/gcc/arm-elf/4.3.2/../../../../arm-elf/lib/interwork/libm.a(lib_a-s_copysign.o)
 .debug_line    0x000013c7      0x295 mos_header.o
 .debug_line    0x0000165c      0x277 /cygdrive/c/OpenAT/OS/6.21.02/ADL/gcc_wmadl_6.21.02.0.0.lib(mos_ftr.o)
 .debug_line    0x000018d3      0x3e1 /cygdrive/c/OpenAT/OS/6.21.02/ADL/gcc_wmadl_6.21.02.0.0.lib(opec_lst.o)
 .debug_line    0x00001cb4      0x8b3 /cygdrive/c/OpenAT/OS/6.21.02/ADL/gcc_wmadl_6.21.02.0.0.lib(opec_std.o)
 .debug_line    0x00002567      0xa51 /cygdrive/c/OpenAT/OS/6.21.02/ADL/gcc_wmadl_6.21.02.0.0.lib(adl_ad.o)
 .debug_line    0x00002fb8      0x78e /cygdrive/c/OpenAT/OS/6.21.02/ADL/gcc_wmadl_6.21.02.0.0.lib(adl_adc.o)
 .debug_line    0x00003746      0x8cc /cygdrive/c/OpenAT/OS/6.21.02/ADL/gcc_wmadl_6.21.02.0.0.lib(adl_AppliInit.o)
 .debug_line    0x00004012      0x9f4 /cygdrive/c/OpenAT/OS/6.21.02/ADL/gcc_wmadl_6.21.02.0.0.lib(adl_audio.o)
 .debug_line    0x00004a06      0x873 /cygdrive/c/OpenAT/OS/6.21.02/ADL/gcc_wmadl_6.21.02.0.0.lib(adl_bus.o)
 .debug_line    0x00005279      0x980 /cygdrive/c/OpenAT/OS/6.21.02/ADL/gcc_wmadl_6.21.02.0.0.lib(adl_call.o)
 .debug_line    0x00005bf9      0x9f7 /cygdrive/c/OpenAT/OS/6.21.02/ADL/gcc_wmadl_6.21.02.0.0.lib(adl_CmdHandler.o)
 .debug_line    0x000065f0      0x9ec /cygdrive/c/OpenAT/OS/6.21.02/ADL/gcc_wmadl_6.21.02.0.0.lib(adl_CmdProcessor.o)
 .debug_line    0x00006fdc      0x9ec /cygdrive/c/OpenAT/OS/6.21.02/ADL/gcc_wmadl_6.21.02.0.0.lib(adl_CmdStackHandler.o)
 .debug_line    0x000079c8      0x7c2 /cygdrive/c/OpenAT/OS/6.21.02/ADL/gcc_wmadl_6.21.02.0.0.lib(adl_ctx.o)
 .debug_line    0x0000818a      0x742 /cygdrive/c/OpenAT/OS/6.21.02/ADL/gcc_wmadl_6.21.02.0.0.lib(adl_defaut_buildtime.o)
 .debug_line    0x000088cc      0x760 /cygdrive/c/OpenAT/OS/6.21.02/ADL/gcc_wmadl_6.21.02.0.0.lib(adl_defaut_extend.o)
 .debug_line    0x0000902c      0x73f /cygdrive/c/OpenAT/OS/6.21.02/ADL/gcc_wmadl_6.21.02.0.0.lib(adl_defaut_selist.o)
 .debug_line    0x0000976b      0x744 /cygdrive/c/OpenAT/OS/6.21.02/ADL/gcc_wmadl_6.21.02.0.0.lib(adl_defaut_timeslicing.o)
 .debug_line    0x00009eaf      0x801 /cygdrive/c/OpenAT/OS/6.21.02/ADL/gcc_wmadl_6.21.02.0.0.lib(adl_error.o)
 .debug_line    0x0000a6b0      0x806 /cygdrive/c/OpenAT/OS/6.21.02/ADL/gcc_wmadl_6.21.02.0.0.lib(adl_EventMachine.o)
 .debug_line    0x0000aeb6      0x83b /cygdrive/c/OpenAT/OS/6.21.02/ADL/gcc_wmadl_6.21.02.0.0.lib(adl_extint.o)
 .debug_line    0x0000b6f1      0x783 /cygdrive/c/OpenAT/OS/6.21.02/ADL/gcc_wmadl_6.21.02.0.0.lib(adl_extint_deprecated.o)
 .debug_line    0x0000be74      0xb1d /cygdrive/c/OpenAT/OS/6.21.02/ADL/gcc_wmadl_6.21.02.0.0.lib(adl_fcm.o)
 .debug_line    0x0000c991      0x8b9 /cygdrive/c/OpenAT/OS/6.21.02/ADL/gcc_wmadl_6.21.02.0.0.lib(adl_flash.o)
 .debug_line    0x0000d24a      0x95a /cygdrive/c/OpenAT/OS/6.21.02/ADL/gcc_wmadl_6.21.02.0.0.lib(adl_gpio.o)
 .debug_line    0x0000dba4      0xa9a /cygdrive/c/OpenAT/OS/6.21.02/ADL/gcc_wmadl_6.21.02.0.0.lib(adl_gprs.o)
 .debug_line    0x0000e63e      0x8c1 /cygdrive/c/OpenAT/OS/6.21.02/ADL/gcc_wmadl_6.21.02.0.0.lib(adl_irq.o)
 .debug_line    0x0000eeff      0x7b0 /cygdrive/c/OpenAT/OS/6.21.02/ADL/gcc_wmadl_6.21.02.0.0.lib(adl_memory.o)
 .debug_line    0x0000f6af      0x82b /cygdrive/c/OpenAT/OS/6.21.02/ADL/gcc_wmadl_6.21.02.0.0.lib(adl_msg.o)
 .debug_line    0x0000feda      0x8cb /cygdrive/c/OpenAT/OS/6.21.02/ADL/gcc_wmadl_6.21.02.0.0.lib(adl_port.o)
 .debug_line    0x000107a5      0x79d /cygdrive/c/OpenAT/OS/6.21.02/ADL/gcc_wmadl_6.21.02.0.0.lib(adl_reg.o)
 .debug_line    0x00010f42      0x9bc /cygdrive/c/OpenAT/OS/6.21.02/ADL/gcc_wmadl_6.21.02.0.0.lib(adl_RspHandler.o)
 .debug_line    0x000118fe      0x7c0 /cygdrive/c/OpenAT/OS/6.21.02/ADL/gcc_wmadl_6.21.02.0.0.lib(adl_rtc.o)
 .debug_line    0x000120be      0x7ca /cygdrive/c/OpenAT/OS/6.21.02/ADL/gcc_wmadl_6.21.02.0.0.lib(adl_sem.o)
 .debug_line    0x00012888      0x773 /cygdrive/c/OpenAT/OS/6.21.02/ADL/gcc_wmadl_6.21.02.0.0.lib(adl_serv.o)
 .debug_line    0x00012ffb      0x8e9 /cygdrive/c/OpenAT/OS/6.21.02/ADL/gcc_wmadl_6.21.02.0.0.lib(adl_sim.o)
 .debug_line    0x000138e4      0x8d1 /cygdrive/c/OpenAT/OS/6.21.02/ADL/gcc_wmadl_6.21.02.0.0.lib(adl_sms.o)
 .debug_line    0x000141b5      0x7ec /cygdrive/c/OpenAT/OS/6.21.02/ADL/gcc_wmadl_6.21.02.0.0.lib(adl_str.o)
 .debug_line    0x000149a1      0x82b /cygdrive/c/OpenAT/OS/6.21.02/ADL/gcc_wmadl_6.21.02.0.0.lib(adl_TimerHandler.o)
 .debug_line    0x000151cc      0x7ef /cygdrive/c/OpenAT/OS/6.21.02/ADL/gcc_wmadl_6.21.02.0.0.lib(adl_traces.o)
 .debug_line    0x000159bb      0x7f1 /cygdrive/c/OpenAT/OS/6.21.02/ADL/gcc_wmadl_6.21.02.0.0.lib(adl_UnSoHandler.o)
 .debug_line    0x000161ac      0x77b /cygdrive/c/OpenAT/OS/6.21.02/ADL/gcc_wmadl_6.21.02.0.0.lib(adl_wd.o)
 .debug_line    0x00016927      0x310 /cygdrive/c/OpenAT/Plug-ins/WIP/5.10.2020/WIP/gcc_wmwip_5.10.2020.lib(br_close.o)
 .debug_line    0x00016c37      0x2f1 /cygdrive/c/OpenAT/Plug-ins/WIP/5.10.2020/WIP/gcc_wmwip_5.10.2020.lib(br_getopts.o)
 .debug_line    0x00016f28      0x309 /cygdrive/c/OpenAT/Plug-ins/WIP/5.10.2020/WIP/gcc_wmwip_5.10.2020.lib(br_mgr_init.o)
 .debug_line    0x00017231      0x39c /cygdrive/c/OpenAT/Plug-ins/WIP/5.10.2020/WIP/gcc_wmwip_5.10.2020.lib(br_open.o)
 .debug_line    0x000175cd      0x2f1 /cygdrive/c/OpenAT/Plug-ins/WIP/5.10.2020/WIP/gcc_wmwip_5.10.2020.lib(br_setopts.o)
 .debug_line    0x000178be      0x2ee /cygdrive/c/OpenAT/Plug-ins/WIP/5.10.2020/WIP/gcc_wmwip_5.10.2020.lib(br_start.o)
 .debug_line    0x00017bac      0x407 /cygdrive/c/OpenAT/Plug-ins/WIP/5.10.2020/WIP/gcc_wmwip_5.10.2020.lib(br_v24.o)
 .debug_line    0x00017fb3      0x84a /cygdrive/c/OpenAT/Plug-ins/WIP/5.10.2020/WIP/gcc_wmwip_5.10.2020.lib(ch_channel.o)
 .debug_line    0x000187fd      0x8f4 /cygdrive/c/OpenAT/Plug-ins/WIP/5.10.2020/WIP/gcc_wmwip_5.10.2020.lib(ch_tcp_client.o)
 .debug_line    0x000190f1      0x964 /cygdrive/c/OpenAT/Plug-ins/WIP/5.10.2020/WIP/gcc_wmwip_5.10.2020.lib(ch_udp.o)
 .debug_line    0x00019a55      0x6c6 /cygdrive/c/OpenAT/Plug-ins/WIP/5.10.2020/WIP/gcc_wmwip_5.10.2020.lib(file.o)
 .debug_line    0x0001a11b      0x85b /cygdrive/c/OpenAT/Plug-ins/WIP/5.10.2020/WIP/gcc_wmwip_5.10.2020.lib(ftp.o)
 .debug_line    0x0001a976      0x812 /cygdrive/c/OpenAT/Plug-ins/WIP/5.10.2020/WIP/gcc_wmwip_5.10.2020.lib(ftp_evh.o)
 .debug_line    0x0001b188      0x6ef /cygdrive/c/OpenAT/Plug-ins/WIP/5.10.2020/WIP/gcc_wmwip_5.10.2020.lib(ftp_list.o)
 .debug_line    0x0001b877      0x5c7 /cygdrive/c/OpenAT/Plug-ins/WIP/5.10.2020/WIP/gcc_wmwip_5.10.2020.lib(ftr.o)
 .debug_line    0x0001be3e      0x285 /cygdrive/c/OpenAT/Plug-ins/WIP/5.10.2020/WIP/gcc_wmwip_5.10.2020.lib(in_aton.o)
 .debug_line    0x0001c0c3      0x286 /cygdrive/c/OpenAT/Plug-ins/WIP/5.10.2020/WIP/gcc_wmwip_5.10.2020.lib(in_ntoa.o)
 .debug_line    0x0001c349      0x604 /cygdrive/c/OpenAT/Plug-ins/WIP/5.10.2020/WIP/gcc_wmwip_5.10.2020.lib(list_plugin_unix.o)
 .debug_line    0x0001c94d      0x3d1 /cygdrive/c/OpenAT/Plug-ins/WIP/5.10.2020/WIP/gcc_wmwip_5.10.2020.lib(net_debug.o)
 .debug_line    0x0001cd1e      0x278 /cygdrive/c/OpenAT/Plug-ins/WIP/5.10.2020/WIP/gcc_wmwip_5.10.2020.lib(net_init.o)
 .debug_line    0x0001cf96      0x6e4 /cygdrive/c/OpenAT/Plug-ins/WIP/5.10.2020/WIP/gcc_wmwip_5.10.2020.lib(net_initopts.o)
 .debug_line    0x0001d67a      0x706 /cygdrive/c/OpenAT/Plug-ins/WIP/5.10.2020/WIP/gcc_wmwip_5.10.2020.lib(net_setopts.o)
 .debug_line    0x0001dd80      0x677 /cygdrive/c/OpenAT/Plug-ins/WIP/5.10.2020/WIP/gcc_wmwip_5.10.2020.lib(net_sync.o)
 .debug_line    0x0001e3f7      0x671 /cygdrive/c/OpenAT/Plug-ins/WIP/5.10.2020/WIP/gcc_wmwip_5.10.2020.lib(queue.o)
 .debug_line    0x0001ea68      0x77b /cygdrive/c/OpenAT/Plug-ins/WIP/5.10.2020/WIP/gcc_wmwip_5.10.2020.lib(readline.o)
 .debug_line    0x0001f1e3      0x67d /cygdrive/c/OpenAT/Plug-ins/WIP/5.10.2020/WIP/gcc_wmwip_5.10.2020.lib(wip_subLevelOpts.o)
 .debug_line    0x0001f860      0x6db /cygdrive/c/OpenAT/Plug-ins/WIP/5.10.2020/WIP/gcc_wmwip_5.10.2020.lib(wrapper.o)
 .debug_line    0x0001ff3b      0x28c /cygdrive/c/OpenAT/Plug-ins/WIP/5.10.2020/WIP/gcc_wmwip_5.10.2020.lib(wm_net_hton.o)
 .debug_line    0x000201c7      0x2ca /cygdrive/c/OpenAT/Plug-ins/WIP/5.10.2020/WIP/gcc_wmwip_5.10.2020.lib(wm_net_in_aton.o)
 .debug_line    0x00020491      0x2d4 /cygdrive/c/OpenAT/Plug-ins/WIP/5.10.2020/WIP/gcc_wmwip_5.10.2020.lib(wm_net_in_ntoa.o)
 .debug_line    0x00020765      0x613 /cygdrive/c/OpenAT/Plug-ins/WIP/5.10.2020/WIP/gcc_wmwip_5.10.2020.lib(wm_net_wrapper.o)
 .debug_line    0x00020d78      0x2d8 /cygdrive/c/OpenAT/Plug-ins/WIP/5.10.2020/WIP/gcc_wmwip_5.10.2020.lib(rawprint.o)
 .debug_line    0x00021050      0x464 /cygdrive/c/OpenAT/Plug-ins/WIP/5.10.2020/WIP/gcc_wmwip_5.10.2020.lib(br_eth.o)
 .debug_line    0x000214b4      0x2ea /cygdrive/c/OpenAT/Plug-ins/WIP/5.10.2020/WIP/gcc_wmwip_5.10.2020.lib(br_gen_close.o)
 .debug_line    0x0002179e      0x328 /cygdrive/c/OpenAT/Plug-ins/WIP/5.10.2020/WIP/gcc_wmwip_5.10.2020.lib(br_gen_getopt.o)
 .debug_line    0x00021ac6      0x667 /cygdrive/c/OpenAT/Plug-ins/WIP/5.10.2020/WIP/gcc_wmwip_5.10.2020.lib(br_gen_setopt.o)
 .debug_line    0x0002212d      0x2ef /cygdrive/c/OpenAT/Plug-ins/WIP/5.10.2020/WIP/gcc_wmwip_5.10.2020.lib(br_gen_stop.o)
 .debug_line    0x0002241c      0x4cf /cygdrive/c/OpenAT/Plug-ins/WIP/5.10.2020/WIP/gcc_wmwip_5.10.2020.lib(br_gprs.o)
 .debug_line    0x000228eb      0x523 /cygdrive/c/OpenAT/Plug-ins/WIP/5.10.2020/WIP/gcc_wmwip_5.10.2020.lib(br_gsm.o)
 .debug_line    0x00022e0e      0x2ea /cygdrive/c/OpenAT/Plug-ins/WIP/5.10.2020/WIP/gcc_wmwip_5.10.2020.lib(br_mgr_debug.o)
 .debug_line    0x000230f8      0x343 /cygdrive/c/OpenAT/Plug-ins/WIP/5.10.2020/WIP/gcc_wmwip_5.10.2020.lib(br_ppp_getopt.o)
 .debug_line    0x0002343b      0x3b1 /cygdrive/c/OpenAT/Plug-ins/WIP/5.10.2020/WIP/gcc_wmwip_5.10.2020.lib(br_ppp_init.o)
 .debug_line    0x000237ec      0x351 /cygdrive/c/OpenAT/Plug-ins/WIP/5.10.2020/WIP/gcc_wmwip_5.10.2020.lib(br_ppp_setopt.o)
 .debug_line    0x00023b3d      0x36d /cygdrive/c/OpenAT/Plug-ins/WIP/5.10.2020/WIP/gcc_wmwip_5.10.2020.lib(br_ppp_start.o)
 .debug_line    0x00023eaa      0x316 /cygdrive/c/OpenAT/Plug-ins/WIP/5.10.2020/WIP/gcc_wmwip_5.10.2020.lib(br_ppp_stop.o)
 .debug_line    0x000241c0      0x6b0 /cygdrive/c/OpenAT/Plug-ins/WIP/5.10.2020/WIP/gcc_wmwip_5.10.2020.lib(ch_class.o)
 .debug_line    0x00024870      0x730 /cygdrive/c/OpenAT/Plug-ins/WIP/5.10.2020/WIP/gcc_wmwip_5.10.2020.lib(ch_tcp_server.o)
 .debug_line    0x00024fa0       0xaa /usr/local/OAT/lib/gcc/arm-elf/4.3.2/interwork/libgcc.a(_udivsi3.o)
 .debug_line    0x0002504a       0xb6 /usr/local/OAT/lib/gcc/arm-elf/4.3.2/interwork/libgcc.a(_divsi3.o)
 .debug_line    0x00025100       0x94 /usr/local/OAT/lib/gcc/arm-elf/4.3.2/interwork/libgcc.a(_umodsi3.o)
 .debug_line    0x00025194       0x83 /usr/local/OAT/lib/gcc/arm-elf/4.3.2/interwork/libgcc.a(_dvmd_tls.o)
 .debug_line    0x00025217      0x18b /usr/local/OAT/lib/gcc/arm-elf/4.3.2/interwork/libgcc.a(_addsubdf3.o)
 .debug_line    0x000253a2      0x1a0 /usr/local/OAT/lib/gcc/arm-elf/4.3.2/interwork/libgcc.a(_muldivdf3.o)
 .debug_line    0x00025542       0xcd /usr/local/OAT/lib/gcc/arm-elf/4.3.2/interwork/libgcc.a(_cmpdf2.o)
 .debug_line    0x0002560f       0x98 /usr/local/OAT/lib/gcc/arm-elf/4.3.2/interwork/libgcc.a(_fixdfsi.o)
 .debug_line    0x000256a7       0x96 /usr/local/OAT/lib/gcc/arm-elf/4.3.2/interwork/libgcc.a(_fixunsdfsi.o)
 .debug_line    0x0002573d      0x139 /usr/local/OAT/lib/gcc/arm-elf/4.3.2/interwork/libgcc.a(_addsubsf3.o)
 .debug_line    0x00025876      0x143 /usr/local/OAT/lib/gcc/arm-elf/4.3.2/interwork/libgcc.a(_muldivsf3.o)
 .debug_line    0x000259b9       0xc1 /usr/local/OAT/lib/gcc/arm-elf/4.3.2/interwork/libgcc.a(_cmpsf2.o)
 .debug_line    0x00025a7a       0x96 /usr/local/OAT/lib/gcc/arm-elf/4.3.2/interwork/libgcc.a(_fixunssfsi.o)
 .debug_line    0x00025b10      0x184 /usr/local/OAT/lib/gcc/arm-elf/4.3.2/../../../../arm-elf/lib/interwork/libc.a(lib_a-asprintf.o)
 .debug_line    0x00025c94      0x10e /usr/local/OAT/lib/gcc/arm-elf/4.3.2/../../../../arm-elf/lib/interwork/libc.a(lib_a-atoi.o)
 .debug_line    0x00025da2       0x65 /usr/local/OAT/lib/gcc/arm-elf/4.3.2/../../../../arm-elf/lib/interwork/libc.a(lib_a-ctype_.o)
 .debug_line    0x00025e07      0x107 /usr/local/OAT/lib/gcc/arm-elf/4.3.2/../../../../arm-elf/lib/interwork/libc.a(lib_a-errno.o)
 .debug_line    0x00025f0e       0xf8 /usr/local/OAT/lib/gcc/arm-elf/4.3.2/../../../../arm-elf/lib/interwork/libc.a(lib_a-impure.o)
 .debug_line    0x00026006      0x16b /usr/local/OAT/lib/gcc/arm-elf/4.3.2/../../../../arm-elf/lib/interwork/libc.a(lib_a-locale.o)
 .debug_line    0x00026171      0x112 /usr/local/OAT/lib/gcc/arm-elf/4.3.2/../../../../arm-elf/lib/interwork/libc.a(lib_a-malloc.o)
 .debug_line    0x00026283      0x232 /usr/local/OAT/lib/gcc/arm-elf/4.3.2/../../../../arm-elf/lib/interwork/libc.a(lib_a-mallocr.o)
 .debug_line    0x000264b5       0xd3 /usr/local/OAT/lib/gcc/arm-elf/4.3.2/../../../../arm-elf/lib/interwork/libc.a(lib_a-memcmp.o)
 .debug_line    0x00026588       0xec /usr/local/OAT/lib/gcc/arm-elf/4.3.2/../../../../arm-elf/lib/interwork/libc.a(lib_a-memcpy.o)
 .debug_line    0x00026674       0xf1 /usr/local/OAT/lib/gcc/arm-elf/4.3.2/../../../../arm-elf/lib/interwork/libc.a(lib_a-memset.o)
 .debug_line    0x00026765      0x10a /usr/local/OAT/lib/gcc/arm-elf/4.3.2/../../../../arm-elf/lib/interwork/libc.a(lib_a-mlock.o)
 .debug_line    0x0002686f      0x11b /usr/local/OAT/lib/gcc/arm-elf/4.3.2/../../../../arm-elf/lib/interwork/libc.a(lib_a-printf.o)
 .debug_line    0x0002698a      0x10d /usr/local/OAT/lib/gcc/arm-elf/4.3.2/../../../../arm-elf/lib/interwork/libc.a(lib_a-realloc.o)
 .debug_line    0x00026a97      0x1b2 /usr/local/OAT/lib/gcc/arm-elf/4.3.2/../../../../arm-elf/lib/interwork/libc.a(lib_a-reallocr.o)
 .debug_line    0x00026c49      0x10e /usr/local/OAT/lib/gcc/arm-elf/4.3.2/../../../../arm-elf/lib/interwork/libc.a(lib_a-sbrkr.o)
 .debug_line    0x00026d57      0x188 /usr/local/OAT/lib/gcc/arm-elf/4.3.2/../../../../arm-elf/lib/interwork/libc.a(lib_a-sprintf.o)
 .debug_line    0x00026edf      0x193 /usr/local/OAT/lib/gcc/arm-elf/4.3.2/../../../../arm-elf/lib/interwork/libc.a(lib_a-sscanf.o)
 .debug_line    0x00027072       0x87 /usr/local/OAT/lib/gcc/arm-elf/4.3.2/../../../../arm-elf/lib/interwork/libc.a(lib_a-strcat.o)
 .debug_line    0x000270f9       0x89 /usr/local/OAT/lib/gcc/arm-elf/4.3.2/../../../../arm-elf/lib/interwork/libc.a(lib_a-strchr.o)
 .debug_line    0x00027182       0x91 /usr/local/OAT/lib/gcc/arm-elf/4.3.2/../../../../arm-elf/lib/interwork/libc.a(lib_a-strcmp.o)
 .debug_line    0x00027213       0x8e /usr/local/OAT/lib/gcc/arm-elf/4.3.2/../../../../arm-elf/lib/interwork/libc.a(lib_a-strcpy.o)
 .debug_line    0x000272a1      0x10b /usr/local/OAT/lib/gcc/arm-elf/4.3.2/../../../../arm-elf/lib/interwork/libc.a(lib_a-strdup.o)
 .debug_line    0x000273ac      0x110 /usr/local/OAT/lib/gcc/arm-elf/4.3.2/../../../../arm-elf/lib/interwork/libc.a(lib_a-strdup_r.o)
 .debug_line    0x000274bc       0xbc /usr/local/OAT/lib/gcc/arm-elf/4.3.2/../../../../arm-elf/lib/interwork/libc.a(lib_a-strlen.o)
 .debug_line    0x00027578       0xca /usr/local/OAT/lib/gcc/arm-elf/4.3.2/../../../../arm-elf/lib/interwork/libc.a(lib_a-strncat.o)
 .debug_line    0x00027642       0xec /usr/local/OAT/lib/gcc/arm-elf/4.3.2/../../../../arm-elf/lib/interwork/libc.a(lib_a-strncmp.o)
 .debug_line    0x0002772e       0xe5 /usr/local/OAT/lib/gcc/arm-elf/4.3.2/../../../../arm-elf/lib/interwork/libc.a(lib_a-strncpy.o)
 .debug_line    0x00027813       0x78 /usr/local/OAT/lib/gcc/arm-elf/4.3.2/../../../../arm-elf/lib/interwork/libc.a(lib_a-strsep.o)
 .debug_line    0x0002788b       0xbe /usr/local/OAT/lib/gcc/arm-elf/4.3.2/../../../../arm-elf/lib/interwork/libc.a(lib_a-strstr.o)
 .debug_line    0x00027949      0x10c /usr/local/OAT/lib/gcc/arm-elf/4.3.2/../../../../arm-elf/lib/interwork/libc.a(lib_a-strtok.o)
 .debug_line    0x00027a55       0xaa /usr/local/OAT/lib/gcc/arm-elf/4.3.2/../../../../arm-elf/lib/interwork/libc.a(lib_a-strtok_r.o)
 .debug_line    0x00027aff      0x19d /usr/local/OAT/lib/gcc/arm-elf/4.3.2/../../../../arm-elf/lib/interwork/libc.a(lib_a-strtol.o)
 .debug_line    0x00027c9c      0x355 /usr/local/OAT/lib/gcc/arm-elf/4.3.2/../../../../arm-elf/lib/interwork/libc.a(lib_a-syscalls.o)
 .debug_line    0x00027ff1       0xb4 /usr/local/OAT/lib/gcc/arm-elf/4.3.2/../../../../arm-elf/lib/interwork/libc.a(lib_a-syswrite.o)
 .debug_line    0x000280a5      0x16e /usr/local/OAT/lib/gcc/arm-elf/4.3.2/../../../../arm-elf/lib/interwork/libc.a(lib_a-vasprintf.o)
 .debug_line    0x00028213      0x56e /usr/local/OAT/lib/gcc/arm-elf/4.3.2/../../../../arm-elf/lib/interwork/libc.a(lib_a-vfprintf.o)
 .debug_line    0x00028781      0x4bb /usr/local/OAT/lib/gcc/arm-elf/4.3.2/../../../../arm-elf/lib/interwork/libc.a(lib_a-vfscanf.o)
 .debug_line    0x00028c3c      0x16a /usr/local/OAT/lib/gcc/arm-elf/4.3.2/../../../../arm-elf/lib/interwork/libc.a(lib_a-vsprintf.o)
 .debug_line    0x00028da6      0x173 /usr/local/OAT/lib/gcc/arm-elf/4.3.2/../../../../arm-elf/lib/interwork/libc.a(lib_a-wsetup.o)
 .debug_line    0x00028f19       0x7a /usr/local/OAT/lib/gcc/arm-elf/4.3.2/../../../../arm-elf/lib/interwork/libc.a(lib_a-OAT_close.o)
 .debug_line    0x00028f93       0xd4 /usr/local/OAT/lib/gcc/arm-elf/4.3.2/../../../../arm-elf/lib/interwork/libc.a(lib_a-OAT_fstat.o)
 .debug_line    0x00029067       0x7b /usr/local/OAT/lib/gcc/arm-elf/4.3.2/../../../../arm-elf/lib/interwork/libc.a(lib_a-OAT_isatty.o)
 .debug_line    0x000290e2       0x79 /usr/local/OAT/lib/gcc/arm-elf/4.3.2/../../../../arm-elf/lib/interwork/libc.a(lib_a-OAT_kill.o)
 .debug_line    0x0002915b       0x7a /usr/local/OAT/lib/gcc/arm-elf/4.3.2/../../../../arm-elf/lib/interwork/libc.a(lib_a-OAT_lseek.o)
 .debug_line    0x000291d5       0x79 /usr/local/OAT/lib/gcc/arm-elf/4.3.2/../../../../arm-elf/lib/interwork/libc.a(lib_a-OAT_open.o)
 .debug_line    0x0002924e       0xb2 /usr/local/OAT/lib/gcc/arm-elf/4.3.2/../../../../arm-elf/lib/interwork/libc.a(lib_a-OAT_read.o)
 .debug_line    0x00029300       0x7a /usr/local/OAT/lib/gcc/arm-elf/4.3.2/../../../../arm-elf/lib/interwork/libc.a(lib_a-OAT_write.o)
 .debug_line    0x0002937a      0x4b6 /usr/local/OAT/lib/gcc/arm-elf/4.3.2/../../../../arm-elf/lib/interwork/libc.a(lib_a-dtoa.o)
 .debug_line    0x00029830      0x1b5 /usr/local/OAT/lib/gcc/arm-elf/4.3.2/../../../../arm-elf/lib/interwork/libc.a(lib_a-fflush.o)
 .debug_line    0x000299e5      0x22b /usr/local/OAT/lib/gcc/arm-elf/4.3.2/../../../../arm-elf/lib/interwork/libc.a(lib_a-findfp.o)
 .debug_line    0x00029c10      0x1a9 /usr/local/OAT/lib/gcc/arm-elf/4.3.2/../../../../arm-elf/lib/interwork/libc.a(lib_a-fread.o)
 .debug_line    0x00029db9      0x19b /usr/local/OAT/lib/gcc/arm-elf/4.3.2/../../../../arm-elf/lib/interwork/libc.a(lib_a-freer.o)
 .debug_line    0x00029f54      0x20f /usr/local/OAT/lib/gcc/arm-elf/4.3.2/../../../../arm-elf/lib/interwork/libc.a(lib_a-fvwrite.o)
 .debug_line    0x0002a163      0x170 /usr/local/OAT/lib/gcc/arm-elf/4.3.2/../../../../arm-elf/lib/interwork/libc.a(lib_a-fwalk.o)
 .debug_line    0x0002a2d3       0xfc /usr/local/OAT/lib/gcc/arm-elf/4.3.2/../../../../arm-elf/lib/interwork/libc.a(lib_a-iswspace.o)
 .debug_line    0x0002a3cf      0x1a1 /usr/local/OAT/lib/gcc/arm-elf/4.3.2/../../../../arm-elf/lib/interwork/libc.a(lib_a-makebuf.o)
 .debug_line    0x0002a570      0x164 /usr/local/OAT/lib/gcc/arm-elf/4.3.2/../../../../arm-elf/lib/interwork/libc.a(lib_a-mbrtowc.o)
 .debug_line    0x0002a6d4      0x154 /usr/local/OAT/lib/gcc/arm-elf/4.3.2/../../../../arm-elf/lib/interwork/libc.a(lib_a-mbtowc_r.o)
 .debug_line    0x0002a828       0xeb /usr/local/OAT/lib/gcc/arm-elf/4.3.2/../../../../arm-elf/lib/interwork/libc.a(lib_a-memchr.o)
 .debug_line    0x0002a913       0xfb /usr/local/OAT/lib/gcc/arm-elf/4.3.2/../../../../arm-elf/lib/interwork/libc.a(lib_a-memmove.o)
 .debug_line    0x0002aa0e      0x470 /usr/local/OAT/lib/gcc/arm-elf/4.3.2/../../../../arm-elf/lib/interwork/libc.a(lib_a-mprec.o)
 .debug_line    0x0002ae7e      0x142 /usr/local/OAT/lib/gcc/arm-elf/4.3.2/../../../../arm-elf/lib/interwork/libc.a(lib_a-reent.o)
 .debug_line    0x0002afc0      0x195 /usr/local/OAT/lib/gcc/arm-elf/4.3.2/../../../../arm-elf/lib/interwork/libc.a(lib_a-refill.o)
 .debug_line    0x0002b155       0xda /usr/local/OAT/lib/gcc/arm-elf/4.3.2/../../../../arm-elf/lib/interwork/libc.a(lib_a-s_isinfd.o)
 .debug_line    0x0002b22f       0xda /usr/local/OAT/lib/gcc/arm-elf/4.3.2/../../../../arm-elf/lib/interwork/libc.a(lib_a-sccl.o)
 .debug_line    0x0002b309       0xd3 /usr/local/OAT/lib/gcc/arm-elf/4.3.2/../../../../arm-elf/lib/interwork/libc.a(lib_a-sf_nan.o)
 .debug_line    0x0002b3dc      0x175 /usr/local/OAT/lib/gcc/arm-elf/4.3.2/../../../../arm-elf/lib/interwork/libc.a(lib_a-stdio.o)
 .debug_line    0x0002b551      0x4a9 /usr/local/OAT/lib/gcc/arm-elf/4.3.2/../../../../arm-elf/lib/interwork/libc.a(lib_a-strtod.o)
 .debug_line    0x0002b9fa      0x192 /usr/local/OAT/lib/gcc/arm-elf/4.3.2/../../../../arm-elf/lib/interwork/libc.a(lib_a-strtoul.o)
 .debug_line    0x0002bb8c      0x1ac /usr/local/OAT/lib/gcc/arm-elf/4.3.2/../../../../arm-elf/lib/interwork/libc.a(lib_a-ungetc.o)
 .debug_line    0x0002bd38      0x10e /usr/local/OAT/lib/gcc/arm-elf/4.3.2/../../../../arm-elf/lib/interwork/libc.a(lib_a-writer.o)
 .debug_line    0x0002be46      0x115 /usr/local/OAT/lib/gcc/arm-elf/4.3.2/../../../../arm-elf/lib/interwork/libc.a(lib_a-callocr.o)
 .debug_line    0x0002bf5b      0x10e /usr/local/OAT/lib/gcc/arm-elf/4.3.2/../../../../arm-elf/lib/interwork/libc.a(lib_a-closer.o)
 .debug_line    0x0002c069      0x16c /usr/local/OAT/lib/gcc/arm-elf/4.3.2/../../../../arm-elf/lib/interwork/libc.a(lib_a-fclose.o)
 .debug_line    0x0002c1d5      0x163 /usr/local/OAT/lib/gcc/arm-elf/4.3.2/../../../../arm-elf/lib/interwork/libc.a(lib_a-fstatr.o)
 .debug_line    0x0002c338      0x2c6 /usr/local/OAT/lib/gcc/arm-elf/4.3.2/../../../../arm-elf/lib/interwork/libc.a(lib_a-gdtoa-gethex.o)
 .debug_line    0x0002c5fe      0x139 /usr/local/OAT/lib/gcc/arm-elf/4.3.2/../../../../arm-elf/lib/interwork/libc.a(lib_a-gdtoa-hexnan.o)
 .debug_line    0x0002c737      0x10e /usr/local/OAT/lib/gcc/arm-elf/4.3.2/../../../../arm-elf/lib/interwork/libc.a(lib_a-lseekr.o)
 .debug_line    0x0002c845      0x10d /usr/local/OAT/lib/gcc/arm-elf/4.3.2/../../../../arm-elf/lib/interwork/libc.a(lib_a-readr.o)
 .debug_line    0x0002c952       0xa9 /usr/local/OAT/lib/gcc/arm-elf/4.3.2/interwork/libgcc.a(_truncdfsf2.o)

.debug_frame    0x00000000     0x7604
 .debug_frame   0x00000000       0x30 /usr/local/OAT/lib/gcc/arm-elf/4.3.2/../../../../arm-elf/lib/interwork/libm.a(lib_a-s_cos.o)
 .debug_frame   0x00000030       0x30 /usr/local/OAT/lib/gcc/arm-elf/4.3.2/../../../../arm-elf/lib/interwork/libm.a(lib_a-s_sin.o)
 .debug_frame   0x00000060       0x28 /usr/local/OAT/lib/gcc/arm-elf/4.3.2/../../../../arm-elf/lib/interwork/libm.a(lib_a-w_atan2.o)
 .debug_frame   0x00000088       0x34 /usr/local/OAT/lib/gcc/arm-elf/4.3.2/../../../../arm-elf/lib/interwork/libm.a(lib_a-w_sqrt.o)
 .debug_frame   0x000000bc       0x38 /usr/local/OAT/lib/gcc/arm-elf/4.3.2/../../../../arm-elf/lib/interwork/libm.a(lib_a-e_atan2.o)
 .debug_frame   0x000000f4       0x38 /usr/local/OAT/lib/gcc/arm-elf/4.3.2/../../../../arm-elf/lib/interwork/libm.a(lib_a-e_rem_pio2.o)
 .debug_frame   0x0000012c       0x34 /usr/local/OAT/lib/gcc/arm-elf/4.3.2/../../../../arm-elf/lib/interwork/libm.a(lib_a-e_sqrt.o)
 .debug_frame   0x00000160       0x38 /usr/local/OAT/lib/gcc/arm-elf/4.3.2/../../../../arm-elf/lib/interwork/libm.a(lib_a-k_cos.o)
 .debug_frame   0x00000198       0x3c /usr/local/OAT/lib/gcc/arm-elf/4.3.2/../../../../arm-elf/lib/interwork/libm.a(lib_a-k_rem_pio2.o)
 .debug_frame   0x000001d4       0x38 /usr/local/OAT/lib/gcc/arm-elf/4.3.2/../../../../arm-elf/lib/interwork/libm.a(lib_a-k_sin.o)
 .debug_frame   0x0000020c       0x38 /usr/local/OAT/lib/gcc/arm-elf/4.3.2/../../../../arm-elf/lib/interwork/libm.a(lib_a-s_atan.o)
 .debug_frame   0x00000244       0x2c /usr/local/OAT/lib/gcc/arm-elf/4.3.2/../../../../arm-elf/lib/interwork/libm.a(lib_a-s_fabs.o)
 .debug_frame   0x00000270       0x38 /usr/local/OAT/lib/gcc/arm-elf/4.3.2/../../../../arm-elf/lib/interwork/libm.a(lib_a-s_floor.o)
 .debug_frame   0x000002a8       0x28 /usr/local/OAT/lib/gcc/arm-elf/4.3.2/../../../../arm-elf/lib/interwork/libm.a(lib_a-s_isnand.o)
 .debug_frame   0x000002d0       0x20 /usr/local/OAT/lib/gcc/arm-elf/4.3.2/../../../../arm-elf/lib/interwork/libm.a(lib_a-s_matherr.o)
 .debug_frame   0x000002f0       0x34 /usr/local/OAT/lib/gcc/arm-elf/4.3.2/../../../../arm-elf/lib/interwork/libm.a(lib_a-s_scalbn.o)
 .debug_frame   0x00000324       0x2c /usr/local/OAT/lib/gcc/arm-elf/4.3.2/../../../../arm-elf/lib/interwork/libm.a(lib_a-s_copysign.o)
 .debug_frame   0x00000350       0x38 mos_header.o
 .debug_frame   0x00000388       0xa4 /cygdrive/c/OpenAT/OS/6.21.02/ADL/gcc_wmadl_6.21.02.0.0.lib(mos_ftr.o)
 .debug_frame   0x0000042c      0x1b4 /cygdrive/c/OpenAT/OS/6.21.02/ADL/gcc_wmadl_6.21.02.0.0.lib(opec_lst.o)
 .debug_frame   0x000005e0      0x1ac /cygdrive/c/OpenAT/OS/6.21.02/ADL/gcc_wmadl_6.21.02.0.0.lib(opec_std.o)
 .debug_frame   0x0000078c      0x360 /cygdrive/c/OpenAT/OS/6.21.02/ADL/gcc_wmadl_6.21.02.0.0.lib(adl_ad.o)
 .debug_frame   0x00000aec       0x74 /cygdrive/c/OpenAT/OS/6.21.02/ADL/gcc_wmadl_6.21.02.0.0.lib(adl_adc.o)
 .debug_frame   0x00000b60      0x110 /cygdrive/c/OpenAT/OS/6.21.02/ADL/gcc_wmadl_6.21.02.0.0.lib(adl_AppliInit.o)
 .debug_frame   0x00000c70      0x260 /cygdrive/c/OpenAT/OS/6.21.02/ADL/gcc_wmadl_6.21.02.0.0.lib(adl_audio.o)
 .debug_frame   0x00000ed0      0x178 /cygdrive/c/OpenAT/OS/6.21.02/ADL/gcc_wmadl_6.21.02.0.0.lib(adl_bus.o)
 .debug_frame   0x00001048      0x248 /cygdrive/c/OpenAT/OS/6.21.02/ADL/gcc_wmadl_6.21.02.0.0.lib(adl_call.o)
 .debug_frame   0x00001290      0x22c /cygdrive/c/OpenAT/OS/6.21.02/ADL/gcc_wmadl_6.21.02.0.0.lib(adl_CmdHandler.o)
 .debug_frame   0x000014bc      0x32c /cygdrive/c/OpenAT/OS/6.21.02/ADL/gcc_wmadl_6.21.02.0.0.lib(adl_CmdProcessor.o)
 .debug_frame   0x000017e8      0x264 /cygdrive/c/OpenAT/OS/6.21.02/ADL/gcc_wmadl_6.21.02.0.0.lib(adl_CmdStackHandler.o)
 .debug_frame   0x00001a4c      0x140 /cygdrive/c/OpenAT/OS/6.21.02/ADL/gcc_wmadl_6.21.02.0.0.lib(adl_ctx.o)
 .debug_frame   0x00001b8c      0x108 /cygdrive/c/OpenAT/OS/6.21.02/ADL/gcc_wmadl_6.21.02.0.0.lib(adl_error.o)
 .debug_frame   0x00001c94      0x148 /cygdrive/c/OpenAT/OS/6.21.02/ADL/gcc_wmadl_6.21.02.0.0.lib(adl_EventMachine.o)
 .debug_frame   0x00001ddc       0xe4 /cygdrive/c/OpenAT/OS/6.21.02/ADL/gcc_wmadl_6.21.02.0.0.lib(adl_extint.o)
 .debug_frame   0x00001ec0       0x2c /cygdrive/c/OpenAT/OS/6.21.02/ADL/gcc_wmadl_6.21.02.0.0.lib(adl_extint_deprecated.o)
 .debug_frame   0x00001eec      0x334 /cygdrive/c/OpenAT/OS/6.21.02/ADL/gcc_wmadl_6.21.02.0.0.lib(adl_fcm.o)
 .debug_frame   0x00002220      0x188 /cygdrive/c/OpenAT/OS/6.21.02/ADL/gcc_wmadl_6.21.02.0.0.lib(adl_flash.o)
 .debug_frame   0x000023a8      0x244 /cygdrive/c/OpenAT/OS/6.21.02/ADL/gcc_wmadl_6.21.02.0.0.lib(adl_gpio.o)
 .debug_frame   0x000025ec      0x290 /cygdrive/c/OpenAT/OS/6.21.02/ADL/gcc_wmadl_6.21.02.0.0.lib(adl_gprs.o)
 .debug_frame   0x0000287c      0x248 /cygdrive/c/OpenAT/OS/6.21.02/ADL/gcc_wmadl_6.21.02.0.0.lib(adl_irq.o)
 .debug_frame   0x00002ac4       0xd8 /cygdrive/c/OpenAT/OS/6.21.02/ADL/gcc_wmadl_6.21.02.0.0.lib(adl_memory.o)
 .debug_frame   0x00002b9c      0x124 /cygdrive/c/OpenAT/OS/6.21.02/ADL/gcc_wmadl_6.21.02.0.0.lib(adl_msg.o)
 .debug_frame   0x00002cc0      0x1dc /cygdrive/c/OpenAT/OS/6.21.02/ADL/gcc_wmadl_6.21.02.0.0.lib(adl_port.o)
 .debug_frame   0x00002e9c       0xe0 /cygdrive/c/OpenAT/OS/6.21.02/ADL/gcc_wmadl_6.21.02.0.0.lib(adl_reg.o)
 .debug_frame   0x00002f7c      0x1c8 /cygdrive/c/OpenAT/OS/6.21.02/ADL/gcc_wmadl_6.21.02.0.0.lib(adl_RspHandler.o)
 .debug_frame   0x00003144       0xb0 /cygdrive/c/OpenAT/OS/6.21.02/ADL/gcc_wmadl_6.21.02.0.0.lib(adl_rtc.o)
 .debug_frame   0x000031f4       0xf8 /cygdrive/c/OpenAT/OS/6.21.02/ADL/gcc_wmadl_6.21.02.0.0.lib(adl_sem.o)
 .debug_frame   0x000032ec       0xb4 /cygdrive/c/OpenAT/OS/6.21.02/ADL/gcc_wmadl_6.21.02.0.0.lib(adl_serv.o)
 .debug_frame   0x000033a0      0x1b0 /cygdrive/c/OpenAT/OS/6.21.02/ADL/gcc_wmadl_6.21.02.0.0.lib(adl_sim.o)
 .debug_frame   0x00003550      0x184 /cygdrive/c/OpenAT/OS/6.21.02/ADL/gcc_wmadl_6.21.02.0.0.lib(adl_sms.o)
 .debug_frame   0x000036d4       0xc8 /cygdrive/c/OpenAT/OS/6.21.02/ADL/gcc_wmadl_6.21.02.0.0.lib(adl_str.o)
 .debug_frame   0x0000379c      0x100 /cygdrive/c/OpenAT/OS/6.21.02/ADL/gcc_wmadl_6.21.02.0.0.lib(adl_TimerHandler.o)
 .debug_frame   0x0000389c      0x11c /cygdrive/c/OpenAT/OS/6.21.02/ADL/gcc_wmadl_6.21.02.0.0.lib(adl_traces.o)
 .debug_frame   0x000039b8       0x8c /cygdrive/c/OpenAT/OS/6.21.02/ADL/gcc_wmadl_6.21.02.0.0.lib(adl_UnSoHandler.o)
 .debug_frame   0x00003a44       0xa0 /cygdrive/c/OpenAT/OS/6.21.02/ADL/gcc_wmadl_6.21.02.0.0.lib(adl_wd.o)
 .debug_frame   0x00003ae4       0x2c /cygdrive/c/OpenAT/Plug-ins/WIP/5.10.2020/WIP/gcc_wmwip_5.10.2020.lib(br_close.o)
 .debug_frame   0x00003b10       0x30 /cygdrive/c/OpenAT/Plug-ins/WIP/5.10.2020/WIP/gcc_wmwip_5.10.2020.lib(br_getopts.o)
 .debug_frame   0x00003b40       0x60 /cygdrive/c/OpenAT/Plug-ins/WIP/5.10.2020/WIP/gcc_wmwip_5.10.2020.lib(br_mgr_init.o)
 .debug_frame   0x00003ba0       0x3c /cygdrive/c/OpenAT/Plug-ins/WIP/5.10.2020/WIP/gcc_wmwip_5.10.2020.lib(br_open.o)
 .debug_frame   0x00003bdc       0x30 /cygdrive/c/OpenAT/Plug-ins/WIP/5.10.2020/WIP/gcc_wmwip_5.10.2020.lib(br_setopts.o)
 .debug_frame   0x00003c0c       0x28 /cygdrive/c/OpenAT/Plug-ins/WIP/5.10.2020/WIP/gcc_wmwip_5.10.2020.lib(br_start.o)
 .debug_frame   0x00003c34       0xc4 /cygdrive/c/OpenAT/Plug-ins/WIP/5.10.2020/WIP/gcc_wmwip_5.10.2020.lib(br_v24.o)
 .debug_frame   0x00003cf8      0x29c /cygdrive/c/OpenAT/Plug-ins/WIP/5.10.2020/WIP/gcc_wmwip_5.10.2020.lib(ch_channel.o)
 .debug_frame   0x00003f94      0x210 /cygdrive/c/OpenAT/Plug-ins/WIP/5.10.2020/WIP/gcc_wmwip_5.10.2020.lib(ch_tcp_client.o)
 .debug_frame   0x000041a4      0x16c /cygdrive/c/OpenAT/Plug-ins/WIP/5.10.2020/WIP/gcc_wmwip_5.10.2020.lib(ch_udp.o)
 .debug_frame   0x00004310      0x19c /cygdrive/c/OpenAT/Plug-ins/WIP/5.10.2020/WIP/gcc_wmwip_5.10.2020.lib(file.o)
 .debug_frame   0x000044ac      0x24c /cygdrive/c/OpenAT/Plug-ins/WIP/5.10.2020/WIP/gcc_wmwip_5.10.2020.lib(ftp.o)
 .debug_frame   0x000046f8      0x108 /cygdrive/c/OpenAT/Plug-ins/WIP/5.10.2020/WIP/gcc_wmwip_5.10.2020.lib(ftp_evh.o)
 .debug_frame   0x00004800       0x9c /cygdrive/c/OpenAT/Plug-ins/WIP/5.10.2020/WIP/gcc_wmwip_5.10.2020.lib(ftp_list.o)
 .debug_frame   0x0000489c       0x28 /cygdrive/c/OpenAT/Plug-ins/WIP/5.10.2020/WIP/gcc_wmwip_5.10.2020.lib(ftr.o)
 .debug_frame   0x000048c4       0x28 /cygdrive/c/OpenAT/Plug-ins/WIP/5.10.2020/WIP/gcc_wmwip_5.10.2020.lib(in_aton.o)
 .debug_frame   0x000048ec       0x28 /cygdrive/c/OpenAT/Plug-ins/WIP/5.10.2020/WIP/gcc_wmwip_5.10.2020.lib(in_ntoa.o)
 .debug_frame   0x00004914       0x50 /cygdrive/c/OpenAT/Plug-ins/WIP/5.10.2020/WIP/gcc_wmwip_5.10.2020.lib(list_plugin_unix.o)
 .debug_frame   0x00004964       0xcc /cygdrive/c/OpenAT/Plug-ins/WIP/5.10.2020/WIP/gcc_wmwip_5.10.2020.lib(net_debug.o)
 .debug_frame   0x00004a30       0x28 /cygdrive/c/OpenAT/Plug-ins/WIP/5.10.2020/WIP/gcc_wmwip_5.10.2020.lib(net_init.o)
 .debug_frame   0x00004a58       0xb8 /cygdrive/c/OpenAT/Plug-ins/WIP/5.10.2020/WIP/gcc_wmwip_5.10.2020.lib(net_initopts.o)
 .debug_frame   0x00004b10       0x48 /cygdrive/c/OpenAT/Plug-ins/WIP/5.10.2020/WIP/gcc_wmwip_5.10.2020.lib(net_setopts.o)
 .debug_frame   0x00004b58       0x28 /cygdrive/c/OpenAT/Plug-ins/WIP/5.10.2020/WIP/gcc_wmwip_5.10.2020.lib(net_sync.o)
 .debug_frame   0x00004b80       0xf4 /cygdrive/c/OpenAT/Plug-ins/WIP/5.10.2020/WIP/gcc_wmwip_5.10.2020.lib(queue.o)
 .debug_frame   0x00004c74      0x164 /cygdrive/c/OpenAT/Plug-ins/WIP/5.10.2020/WIP/gcc_wmwip_5.10.2020.lib(readline.o)
 .debug_frame   0x00004dd8       0x80 /cygdrive/c/OpenAT/Plug-ins/WIP/5.10.2020/WIP/gcc_wmwip_5.10.2020.lib(wip_subLevelOpts.o)
 .debug_frame   0x00004e58      0x154 /cygdrive/c/OpenAT/Plug-ins/WIP/5.10.2020/WIP/gcc_wmwip_5.10.2020.lib(wrapper.o)
 .debug_frame   0x00004fac       0x50 /cygdrive/c/OpenAT/Plug-ins/WIP/5.10.2020/WIP/gcc_wmwip_5.10.2020.lib(wm_net_hton.o)
 .debug_frame   0x00004ffc       0x4c /cygdrive/c/OpenAT/Plug-ins/WIP/5.10.2020/WIP/gcc_wmwip_5.10.2020.lib(wm_net_in_aton.o)
 .debug_frame   0x00005048       0x30 /cygdrive/c/OpenAT/Plug-ins/WIP/5.10.2020/WIP/gcc_wmwip_5.10.2020.lib(wm_net_in_ntoa.o)
 .debug_frame   0x00005078      0x734 /cygdrive/c/OpenAT/Plug-ins/WIP/5.10.2020/WIP/gcc_wmwip_5.10.2020.lib(wm_net_wrapper.o)
 .debug_frame   0x000057ac       0x5c /cygdrive/c/OpenAT/Plug-ins/WIP/5.10.2020/WIP/gcc_wmwip_5.10.2020.lib(rawprint.o)
 .debug_frame   0x00005808       0xc8 /cygdrive/c/OpenAT/Plug-ins/WIP/5.10.2020/WIP/gcc_wmwip_5.10.2020.lib(br_eth.o)
 .debug_frame   0x000058d0       0x28 /cygdrive/c/OpenAT/Plug-ins/WIP/5.10.2020/WIP/gcc_wmwip_5.10.2020.lib(br_gen_close.o)
 .debug_frame   0x000058f8       0x2c /cygdrive/c/OpenAT/Plug-ins/WIP/5.10.2020/WIP/gcc_wmwip_5.10.2020.lib(br_gen_getopt.o)
 .debug_frame   0x00005924       0x2c /cygdrive/c/OpenAT/Plug-ins/WIP/5.10.2020/WIP/gcc_wmwip_5.10.2020.lib(br_gen_setopt.o)
 .debug_frame   0x00005950       0x28 /cygdrive/c/OpenAT/Plug-ins/WIP/5.10.2020/WIP/gcc_wmwip_5.10.2020.lib(br_gen_stop.o)
 .debug_frame   0x00005978       0xf0 /cygdrive/c/OpenAT/Plug-ins/WIP/5.10.2020/WIP/gcc_wmwip_5.10.2020.lib(br_gprs.o)
 .debug_frame   0x00005a68      0x160 /cygdrive/c/OpenAT/Plug-ins/WIP/5.10.2020/WIP/gcc_wmwip_5.10.2020.lib(br_gsm.o)
 .debug_frame   0x00005bc8       0x30 /cygdrive/c/OpenAT/Plug-ins/WIP/5.10.2020/WIP/gcc_wmwip_5.10.2020.lib(br_mgr_debug.o)
 .debug_frame   0x00005bf8       0x2c /cygdrive/c/OpenAT/Plug-ins/WIP/5.10.2020/WIP/gcc_wmwip_5.10.2020.lib(br_ppp_getopt.o)
 .debug_frame   0x00005c24       0x58 /cygdrive/c/OpenAT/Plug-ins/WIP/5.10.2020/WIP/gcc_wmwip_5.10.2020.lib(br_ppp_init.o)
 .debug_frame   0x00005c7c       0x2c /cygdrive/c/OpenAT/Plug-ins/WIP/5.10.2020/WIP/gcc_wmwip_5.10.2020.lib(br_ppp_setopt.o)
 .debug_frame   0x00005ca8       0x30 /cygdrive/c/OpenAT/Plug-ins/WIP/5.10.2020/WIP/gcc_wmwip_5.10.2020.lib(br_ppp_start.o)
 .debug_frame   0x00005cd8       0x28 /cygdrive/c/OpenAT/Plug-ins/WIP/5.10.2020/WIP/gcc_wmwip_5.10.2020.lib(br_ppp_stop.o)
 .debug_frame   0x00005d00       0xa8 /cygdrive/c/OpenAT/Plug-ins/WIP/5.10.2020/WIP/gcc_wmwip_5.10.2020.lib(ch_class.o)
 .debug_frame   0x00005da8       0xe4 /cygdrive/c/OpenAT/Plug-ins/WIP/5.10.2020/WIP/gcc_wmwip_5.10.2020.lib(ch_tcp_server.o)
 .debug_frame   0x00005e8c       0x2c /usr/local/OAT/lib/gcc/arm-elf/4.3.2/interwork/libgcc.a(_udivsi3.o)
 .debug_frame   0x00005eb8       0x2c /usr/local/OAT/lib/gcc/arm-elf/4.3.2/interwork/libgcc.a(_divsi3.o)
 .debug_frame   0x00005ee4       0x2c /usr/local/OAT/lib/gcc/arm-elf/4.3.2/interwork/libgcc.a(_umodsi3.o)
 .debug_frame   0x00005f10       0x5c /usr/local/OAT/lib/gcc/arm-elf/4.3.2/../../../../arm-elf/lib/interwork/libc.a(lib_a-asprintf.o)
 .debug_frame   0x00005f6c       0x40 /usr/local/OAT/lib/gcc/arm-elf/4.3.2/../../../../arm-elf/lib/interwork/libc.a(lib_a-atoi.o)
 .debug_frame   0x00005fac       0x20 /usr/local/OAT/lib/gcc/arm-elf/4.3.2/../../../../arm-elf/lib/interwork/libc.a(lib_a-errno.o)
 .debug_frame   0x00005fcc       0x6c /usr/local/OAT/lib/gcc/arm-elf/4.3.2/../../../../arm-elf/lib/interwork/libc.a(lib_a-locale.o)
 .debug_frame   0x00006038       0x40 /usr/local/OAT/lib/gcc/arm-elf/4.3.2/../../../../arm-elf/lib/interwork/libc.a(lib_a-malloc.o)
 .debug_frame   0x00006078       0x38 /usr/local/OAT/lib/gcc/arm-elf/4.3.2/../../../../arm-elf/lib/interwork/libc.a(lib_a-mallocr.o)
 .debug_frame   0x000060b0       0x2c /usr/local/OAT/lib/gcc/arm-elf/4.3.2/../../../../arm-elf/lib/interwork/libc.a(lib_a-memcmp.o)
 .debug_frame   0x000060dc       0x2c /usr/local/OAT/lib/gcc/arm-elf/4.3.2/../../../../arm-elf/lib/interwork/libc.a(lib_a-memcpy.o)
 .debug_frame   0x00006108       0x28 /usr/local/OAT/lib/gcc/arm-elf/4.3.2/../../../../arm-elf/lib/interwork/libc.a(lib_a-memset.o)
 .debug_frame   0x00006130       0x30 /usr/local/OAT/lib/gcc/arm-elf/4.3.2/../../../../arm-elf/lib/interwork/libc.a(lib_a-mlock.o)
 .debug_frame   0x00006160       0x50 /usr/local/OAT/lib/gcc/arm-elf/4.3.2/../../../../arm-elf/lib/interwork/libc.a(lib_a-printf.o)
 .debug_frame   0x000061b0       0x28 /usr/local/OAT/lib/gcc/arm-elf/4.3.2/../../../../arm-elf/lib/interwork/libc.a(lib_a-realloc.o)
 .debug_frame   0x000061d8       0x38 /usr/local/OAT/lib/gcc/arm-elf/4.3.2/../../../../arm-elf/lib/interwork/libc.a(lib_a-reallocr.o)
 .debug_frame   0x00006210       0x2c /usr/local/OAT/lib/gcc/arm-elf/4.3.2/../../../../arm-elf/lib/interwork/libc.a(lib_a-sbrkr.o)
 .debug_frame   0x0000623c       0x58 /usr/local/OAT/lib/gcc/arm-elf/4.3.2/../../../../arm-elf/lib/interwork/libc.a(lib_a-sprintf.o)
 .debug_frame   0x00006294       0x6c /usr/local/OAT/lib/gcc/arm-elf/4.3.2/../../../../arm-elf/lib/interwork/libc.a(lib_a-sscanf.o)
 .debug_frame   0x00006300       0x28 /usr/local/OAT/lib/gcc/arm-elf/4.3.2/../../../../arm-elf/lib/interwork/libc.a(lib_a-strcat.o)
 .debug_frame   0x00006328       0x28 /usr/local/OAT/lib/gcc/arm-elf/4.3.2/../../../../arm-elf/lib/interwork/libc.a(lib_a-strchr.o)
 .debug_frame   0x00006350       0x20 /usr/local/OAT/lib/gcc/arm-elf/4.3.2/../../../../arm-elf/lib/interwork/libc.a(lib_a-strcmp.o)
 .debug_frame   0x00006370       0x28 /usr/local/OAT/lib/gcc/arm-elf/4.3.2/../../../../arm-elf/lib/interwork/libc.a(lib_a-strcpy.o)
 .debug_frame   0x00006398       0x28 /usr/local/OAT/lib/gcc/arm-elf/4.3.2/../../../../arm-elf/lib/interwork/libc.a(lib_a-strdup.o)
 .debug_frame   0x000063c0       0x2c /usr/local/OAT/lib/gcc/arm-elf/4.3.2/../../../../arm-elf/lib/interwork/libc.a(lib_a-strdup_r.o)
 .debug_frame   0x000063ec       0x20 /usr/local/OAT/lib/gcc/arm-elf/4.3.2/../../../../arm-elf/lib/interwork/libc.a(lib_a-strlen.o)
 .debug_frame   0x0000640c       0x28 /usr/local/OAT/lib/gcc/arm-elf/4.3.2/../../../../arm-elf/lib/interwork/libc.a(lib_a-strncat.o)
 .debug_frame   0x00006434       0x2c /usr/local/OAT/lib/gcc/arm-elf/4.3.2/../../../../arm-elf/lib/interwork/libc.a(lib_a-strncmp.o)
 .debug_frame   0x00006460       0x28 /usr/local/OAT/lib/gcc/arm-elf/4.3.2/../../../../arm-elf/lib/interwork/libc.a(lib_a-strncpy.o)
 .debug_frame   0x00006488       0x28 /usr/local/OAT/lib/gcc/arm-elf/4.3.2/../../../../arm-elf/lib/interwork/libc.a(lib_a-strsep.o)
 .debug_frame   0x000064b0       0x20 /usr/local/OAT/lib/gcc/arm-elf/4.3.2/../../../../arm-elf/lib/interwork/libc.a(lib_a-strstr.o)
 .debug_frame   0x000064d0       0x28 /usr/local/OAT/lib/gcc/arm-elf/4.3.2/../../../../arm-elf/lib/interwork/libc.a(lib_a-strtok.o)
 .debug_frame   0x000064f8       0x3c /usr/local/OAT/lib/gcc/arm-elf/4.3.2/../../../../arm-elf/lib/interwork/libc.a(lib_a-strtok_r.o)
 .debug_frame   0x00006534       0x50 /usr/local/OAT/lib/gcc/arm-elf/4.3.2/../../../../arm-elf/lib/interwork/libc.a(lib_a-strtol.o)
 .debug_frame   0x00006584      0x2cc /usr/local/OAT/lib/gcc/arm-elf/4.3.2/../../../../arm-elf/lib/interwork/libc.a(lib_a-syscalls.o)
 .debug_frame   0x00006850       0x28 /usr/local/OAT/lib/gcc/arm-elf/4.3.2/../../../../arm-elf/lib/interwork/libc.a(lib_a-syswrite.o)
 .debug_frame   0x00006878       0x44 /usr/local/OAT/lib/gcc/arm-elf/4.3.2/../../../../arm-elf/lib/interwork/libc.a(lib_a-vasprintf.o)
 .debug_frame   0x000068bc       0x70 /usr/local/OAT/lib/gcc/arm-elf/4.3.2/../../../../arm-elf/lib/interwork/libc.a(lib_a-vfprintf.o)
 .debug_frame   0x0000692c       0x94 /usr/local/OAT/lib/gcc/arm-elf/4.3.2/../../../../arm-elf/lib/interwork/libc.a(lib_a-vfscanf.o)
 .debug_frame   0x000069c0       0x44 /usr/local/OAT/lib/gcc/arm-elf/4.3.2/../../../../arm-elf/lib/interwork/libc.a(lib_a-vsprintf.o)
 .debug_frame   0x00006a04       0x2c /usr/local/OAT/lib/gcc/arm-elf/4.3.2/../../../../arm-elf/lib/interwork/libc.a(lib_a-wsetup.o)
 .debug_frame   0x00006a30       0x20 /usr/local/OAT/lib/gcc/arm-elf/4.3.2/../../../../arm-elf/lib/interwork/libc.a(lib_a-OAT_close.o)
 .debug_frame   0x00006a50       0x20 /usr/local/OAT/lib/gcc/arm-elf/4.3.2/../../../../arm-elf/lib/interwork/libc.a(lib_a-OAT_fstat.o)
 .debug_frame   0x00006a70       0x20 /usr/local/OAT/lib/gcc/arm-elf/4.3.2/../../../../arm-elf/lib/interwork/libc.a(lib_a-OAT_isatty.o)
 .debug_frame   0x00006a90       0x20 /usr/local/OAT/lib/gcc/arm-elf/4.3.2/../../../../arm-elf/lib/interwork/libc.a(lib_a-OAT_kill.o)
 .debug_frame   0x00006ab0       0x20 /usr/local/OAT/lib/gcc/arm-elf/4.3.2/../../../../arm-elf/lib/interwork/libc.a(lib_a-OAT_lseek.o)
 .debug_frame   0x00006ad0       0x20 /usr/local/OAT/lib/gcc/arm-elf/4.3.2/../../../../arm-elf/lib/interwork/libc.a(lib_a-OAT_open.o)
 .debug_frame   0x00006af0       0x20 /usr/local/OAT/lib/gcc/arm-elf/4.3.2/../../../../arm-elf/lib/interwork/libc.a(lib_a-OAT_read.o)
 .debug_frame   0x00006b10       0x20 /usr/local/OAT/lib/gcc/arm-elf/4.3.2/../../../../arm-elf/lib/interwork/libc.a(lib_a-OAT_write.o)
 .debug_frame   0x00006b30       0x64 /usr/local/OAT/lib/gcc/arm-elf/4.3.2/../../../../arm-elf/lib/interwork/libc.a(lib_a-dtoa.o)
 .debug_frame   0x00006b94       0x48 /usr/local/OAT/lib/gcc/arm-elf/4.3.2/../../../../arm-elf/lib/interwork/libc.a(lib_a-fflush.o)
 .debug_frame   0x00006bdc      0x12c /usr/local/OAT/lib/gcc/arm-elf/4.3.2/../../../../arm-elf/lib/interwork/libc.a(lib_a-findfp.o)
 .debug_frame   0x00006d08       0x54 /usr/local/OAT/lib/gcc/arm-elf/4.3.2/../../../../arm-elf/lib/interwork/libc.a(lib_a-fread.o)
 .debug_frame   0x00006d5c       0x50 /usr/local/OAT/lib/gcc/arm-elf/4.3.2/../../../../arm-elf/lib/interwork/libc.a(lib_a-freer.o)
 .debug_frame   0x00006dac       0x38 /usr/local/OAT/lib/gcc/arm-elf/4.3.2/../../../../arm-elf/lib/interwork/libc.a(lib_a-fvwrite.o)
 .debug_frame   0x00006de4       0x58 /usr/local/OAT/lib/gcc/arm-elf/4.3.2/../../../../arm-elf/lib/interwork/libc.a(lib_a-fwalk.o)
 .debug_frame   0x00006e3c       0x20 /usr/local/OAT/lib/gcc/arm-elf/4.3.2/../../../../arm-elf/lib/interwork/libc.a(lib_a-iswspace.o)
 .debug_frame   0x00006e5c       0x30 /usr/local/OAT/lib/gcc/arm-elf/4.3.2/../../../../arm-elf/lib/interwork/libc.a(lib_a-makebuf.o)
 .debug_frame   0x00006e8c       0x48 /usr/local/OAT/lib/gcc/arm-elf/4.3.2/../../../../arm-elf/lib/interwork/libc.a(lib_a-mbrtowc.o)
 .debug_frame   0x00006ed4       0x24 /usr/local/OAT/lib/gcc/arm-elf/4.3.2/../../../../arm-elf/lib/interwork/libc.a(lib_a-mbtowc_r.o)
 .debug_frame   0x00006ef8       0x28 /usr/local/OAT/lib/gcc/arm-elf/4.3.2/../../../../arm-elf/lib/interwork/libc.a(lib_a-memchr.o)
 .debug_frame   0x00006f20       0x2c /usr/local/OAT/lib/gcc/arm-elf/4.3.2/../../../../arm-elf/lib/interwork/libc.a(lib_a-memmove.o)
 .debug_frame   0x00006f4c      0x228 /usr/local/OAT/lib/gcc/arm-elf/4.3.2/../../../../arm-elf/lib/interwork/libc.a(lib_a-mprec.o)
 .debug_frame   0x00007174       0x68 /usr/local/OAT/lib/gcc/arm-elf/4.3.2/../../../../arm-elf/lib/interwork/libc.a(lib_a-reent.o)
 .debug_frame   0x000071dc       0x44 /usr/local/OAT/lib/gcc/arm-elf/4.3.2/../../../../arm-elf/lib/interwork/libc.a(lib_a-refill.o)
 .debug_frame   0x00007220       0x28 /usr/local/OAT/lib/gcc/arm-elf/4.3.2/../../../../arm-elf/lib/interwork/libc.a(lib_a-s_isinfd.o)
 .debug_frame   0x00007248       0x2c /usr/local/OAT/lib/gcc/arm-elf/4.3.2/../../../../arm-elf/lib/interwork/libc.a(lib_a-sccl.o)
 .debug_frame   0x00007274       0x20 /usr/local/OAT/lib/gcc/arm-elf/4.3.2/../../../../arm-elf/lib/interwork/libc.a(lib_a-sf_nan.o)
 .debug_frame   0x00007294       0x78 /usr/local/OAT/lib/gcc/arm-elf/4.3.2/../../../../arm-elf/lib/interwork/libc.a(lib_a-stdio.o)
 .debug_frame   0x0000730c       0x68 /usr/local/OAT/lib/gcc/arm-elf/4.3.2/../../../../arm-elf/lib/interwork/libc.a(lib_a-strtod.o)
 .debug_frame   0x00007374       0x50 /usr/local/OAT/lib/gcc/arm-elf/4.3.2/../../../../arm-elf/lib/interwork/libc.a(lib_a-strtoul.o)
 .debug_frame   0x000073c4       0x60 /usr/local/OAT/lib/gcc/arm-elf/4.3.2/../../../../arm-elf/lib/interwork/libc.a(lib_a-ungetc.o)
 .debug_frame   0x00007424       0x2c /usr/local/OAT/lib/gcc/arm-elf/4.3.2/../../../../arm-elf/lib/interwork/libc.a(lib_a-writer.o)
 .debug_frame   0x00007450       0x28 /usr/local/OAT/lib/gcc/arm-elf/4.3.2/../../../../arm-elf/lib/interwork/libc.a(lib_a-callocr.o)
 .debug_frame   0x00007478       0x2c /usr/local/OAT/lib/gcc/arm-elf/4.3.2/../../../../arm-elf/lib/interwork/libc.a(lib_a-closer.o)
 .debug_frame   0x000074a4       0x3c /usr/local/OAT/lib/gcc/arm-elf/4.3.2/../../../../arm-elf/lib/interwork/libc.a(lib_a-fclose.o)
 .debug_frame   0x000074e0       0x2c /usr/local/OAT/lib/gcc/arm-elf/4.3.2/../../../../arm-elf/lib/interwork/libc.a(lib_a-fstatr.o)
 .debug_frame   0x0000750c       0x68 /usr/local/OAT/lib/gcc/arm-elf/4.3.2/../../../../arm-elf/lib/interwork/libc.a(lib_a-gdtoa-gethex.o)
 .debug_frame   0x00007574       0x38 /usr/local/OAT/lib/gcc/arm-elf/4.3.2/../../../../arm-elf/lib/interwork/libc.a(lib_a-gdtoa-hexnan.o)
 .debug_frame   0x000075ac       0x2c /usr/local/OAT/lib/gcc/arm-elf/4.3.2/../../../../arm-elf/lib/interwork/libc.a(lib_a-lseekr.o)
 .debug_frame   0x000075d8       0x2c /usr/local/OAT/lib/gcc/arm-elf/4.3.2/../../../../arm-elf/lib/interwork/libc.a(lib_a-readr.o)

.debug_loc      0x00000000    0x2e889
 .debug_loc     0x00000000       0x8c /usr/local/OAT/lib/gcc/arm-elf/4.3.2/../../../../arm-elf/lib/interwork/libm.a(lib_a-s_cos.o)
 .debug_loc     0x0000008c       0x8c /usr/local/OAT/lib/gcc/arm-elf/4.3.2/../../../../arm-elf/lib/interwork/libm.a(lib_a-s_sin.o)
 .debug_loc     0x00000118       0x4f /usr/local/OAT/lib/gcc/arm-elf/4.3.2/../../../../arm-elf/lib/interwork/libm.a(lib_a-w_atan2.o)
 .debug_loc     0x00000167       0x9c /usr/local/OAT/lib/gcc/arm-elf/4.3.2/../../../../arm-elf/lib/interwork/libm.a(lib_a-w_sqrt.o)
 .debug_loc     0x00000203      0x534 /usr/local/OAT/lib/gcc/arm-elf/4.3.2/../../../../arm-elf/lib/interwork/libm.a(lib_a-e_atan2.o)
 .debug_loc     0x00000737      0x474 /usr/local/OAT/lib/gcc/arm-elf/4.3.2/../../../../arm-elf/lib/interwork/libm.a(lib_a-e_rem_pio2.o)
 .debug_loc     0x00000bab      0x3c4 /usr/local/OAT/lib/gcc/arm-elf/4.3.2/../../../../arm-elf/lib/interwork/libm.a(lib_a-e_sqrt.o)
 .debug_loc     0x00000f6f      0x160 /usr/local/OAT/lib/gcc/arm-elf/4.3.2/../../../../arm-elf/lib/interwork/libm.a(lib_a-k_cos.o)
 .debug_loc     0x000010cf      0x7fc /usr/local/OAT/lib/gcc/arm-elf/4.3.2/../../../../arm-elf/lib/interwork/libm.a(lib_a-k_rem_pio2.o)
 .debug_loc     0x000018cb       0xe7 /usr/local/OAT/lib/gcc/arm-elf/4.3.2/../../../../arm-elf/lib/interwork/libm.a(lib_a-k_sin.o)
 .debug_loc     0x000019b2      0x2bb /usr/local/OAT/lib/gcc/arm-elf/4.3.2/../../../../arm-elf/lib/interwork/libm.a(lib_a-s_atan.o)
 .debug_loc     0x00001c6d       0x37 /usr/local/OAT/lib/gcc/arm-elf/4.3.2/../../../../arm-elf/lib/interwork/libm.a(lib_a-s_fabs.o)
 .debug_loc     0x00001ca4      0x255 /usr/local/OAT/lib/gcc/arm-elf/4.3.2/../../../../arm-elf/lib/interwork/libm.a(lib_a-s_floor.o)
 .debug_loc     0x00001ef9       0x4f /usr/local/OAT/lib/gcc/arm-elf/4.3.2/../../../../arm-elf/lib/interwork/libm.a(lib_a-s_isnand.o)
 .debug_loc     0x00001f48       0x13 /usr/local/OAT/lib/gcc/arm-elf/4.3.2/../../../../arm-elf/lib/interwork/libm.a(lib_a-s_matherr.o)
 .debug_loc     0x00001f5b      0x251 /usr/local/OAT/lib/gcc/arm-elf/4.3.2/../../../../arm-elf/lib/interwork/libm.a(lib_a-s_scalbn.o)
 .debug_loc     0x000021ac       0x67 /usr/local/OAT/lib/gcc/arm-elf/4.3.2/../../../../arm-elf/lib/interwork/libm.a(lib_a-s_copysign.o)
 .debug_loc     0x00002213       0x29 mos_header.o
 .debug_loc     0x0000223c       0x61 /cygdrive/c/OpenAT/OS/6.21.02/ADL/gcc_wmadl_6.21.02.0.0.lib(mos_ftr.o)
 .debug_loc     0x0000229d      0x81e /cygdrive/c/OpenAT/OS/6.21.02/ADL/gcc_wmadl_6.21.02.0.0.lib(opec_lst.o)
 .debug_loc     0x00002abb      0x9b7 /cygdrive/c/OpenAT/OS/6.21.02/ADL/gcc_wmadl_6.21.02.0.0.lib(opec_std.o)
 .debug_loc     0x00003472     0x123c /cygdrive/c/OpenAT/OS/6.21.02/ADL/gcc_wmadl_6.21.02.0.0.lib(adl_ad.o)
 .debug_loc     0x000046ae      0x183 /cygdrive/c/OpenAT/OS/6.21.02/ADL/gcc_wmadl_6.21.02.0.0.lib(adl_adc.o)
 .debug_loc     0x00004831      0x32e /cygdrive/c/OpenAT/OS/6.21.02/ADL/gcc_wmadl_6.21.02.0.0.lib(adl_AppliInit.o)
 .debug_loc     0x00004b5f     0x10e8 /cygdrive/c/OpenAT/OS/6.21.02/ADL/gcc_wmadl_6.21.02.0.0.lib(adl_audio.o)
 .debug_loc     0x00005c47      0xb33 /cygdrive/c/OpenAT/OS/6.21.02/ADL/gcc_wmadl_6.21.02.0.0.lib(adl_bus.o)
 .debug_loc     0x0000677a      0x996 /cygdrive/c/OpenAT/OS/6.21.02/ADL/gcc_wmadl_6.21.02.0.0.lib(adl_call.o)
 .debug_loc     0x00007110      0xcf1 /cygdrive/c/OpenAT/OS/6.21.02/ADL/gcc_wmadl_6.21.02.0.0.lib(adl_CmdHandler.o)
 .debug_loc     0x00007e01     0x10ee /cygdrive/c/OpenAT/OS/6.21.02/ADL/gcc_wmadl_6.21.02.0.0.lib(adl_CmdProcessor.o)
 .debug_loc     0x00008eef      0xe2c /cygdrive/c/OpenAT/OS/6.21.02/ADL/gcc_wmadl_6.21.02.0.0.lib(adl_CmdStackHandler.o)
 .debug_loc     0x00009d1b      0x24f /cygdrive/c/OpenAT/OS/6.21.02/ADL/gcc_wmadl_6.21.02.0.0.lib(adl_ctx.o)
 .debug_loc     0x00009f6a      0x2f7 /cygdrive/c/OpenAT/OS/6.21.02/ADL/gcc_wmadl_6.21.02.0.0.lib(adl_error.o)
 .debug_loc     0x0000a261      0x6e5 /cygdrive/c/OpenAT/OS/6.21.02/ADL/gcc_wmadl_6.21.02.0.0.lib(adl_EventMachine.o)
 .debug_loc     0x0000a946      0x5fa /cygdrive/c/OpenAT/OS/6.21.02/ADL/gcc_wmadl_6.21.02.0.0.lib(adl_extint.o)
 .debug_loc     0x0000af40       0xc0 /cygdrive/c/OpenAT/OS/6.21.02/ADL/gcc_wmadl_6.21.02.0.0.lib(adl_extint_deprecated.o)
 .debug_loc     0x0000b000     0x10b2 /cygdrive/c/OpenAT/OS/6.21.02/ADL/gcc_wmadl_6.21.02.0.0.lib(adl_fcm.o)
 .debug_loc     0x0000c0b2      0xcec /cygdrive/c/OpenAT/OS/6.21.02/ADL/gcc_wmadl_6.21.02.0.0.lib(adl_flash.o)
 .debug_loc     0x0000cd9e      0xe21 /cygdrive/c/OpenAT/OS/6.21.02/ADL/gcc_wmadl_6.21.02.0.0.lib(adl_gpio.o)
 .debug_loc     0x0000dbbf      0x9c3 /cygdrive/c/OpenAT/OS/6.21.02/ADL/gcc_wmadl_6.21.02.0.0.lib(adl_gprs.o)
 .debug_loc     0x0000e582      0xa04 /cygdrive/c/OpenAT/OS/6.21.02/ADL/gcc_wmadl_6.21.02.0.0.lib(adl_irq.o)
 .debug_loc     0x0000ef86      0x1ce /cygdrive/c/OpenAT/OS/6.21.02/ADL/gcc_wmadl_6.21.02.0.0.lib(adl_memory.o)
 .debug_loc     0x0000f154      0x463 /cygdrive/c/OpenAT/OS/6.21.02/ADL/gcc_wmadl_6.21.02.0.0.lib(adl_msg.o)
 .debug_loc     0x0000f5b7      0x690 /cygdrive/c/OpenAT/OS/6.21.02/ADL/gcc_wmadl_6.21.02.0.0.lib(adl_port.o)
 .debug_loc     0x0000fc47      0x24a /cygdrive/c/OpenAT/OS/6.21.02/ADL/gcc_wmadl_6.21.02.0.0.lib(adl_reg.o)
 .debug_loc     0x0000fe91      0xf09 /cygdrive/c/OpenAT/OS/6.21.02/ADL/gcc_wmadl_6.21.02.0.0.lib(adl_RspHandler.o)
 .debug_loc     0x00010d9a      0x2ad /cygdrive/c/OpenAT/OS/6.21.02/ADL/gcc_wmadl_6.21.02.0.0.lib(adl_rtc.o)
 .debug_loc     0x00011047      0x2ef /cygdrive/c/OpenAT/OS/6.21.02/ADL/gcc_wmadl_6.21.02.0.0.lib(adl_sem.o)
 .debug_loc     0x00011336       0xe9 /cygdrive/c/OpenAT/OS/6.21.02/ADL/gcc_wmadl_6.21.02.0.0.lib(adl_serv.o)
 .debug_loc     0x0001141f      0x574 /cygdrive/c/OpenAT/OS/6.21.02/ADL/gcc_wmadl_6.21.02.0.0.lib(adl_sim.o)
 .debug_loc     0x00011993      0x5e9 /cygdrive/c/OpenAT/OS/6.21.02/ADL/gcc_wmadl_6.21.02.0.0.lib(adl_sms.o)
 .debug_loc     0x00011f7c      0x3bb /cygdrive/c/OpenAT/OS/6.21.02/ADL/gcc_wmadl_6.21.02.0.0.lib(adl_str.o)
 .debug_loc     0x00012337      0x730 /cygdrive/c/OpenAT/OS/6.21.02/ADL/gcc_wmadl_6.21.02.0.0.lib(adl_TimerHandler.o)
 .debug_loc     0x00012a67      0x3bd /cygdrive/c/OpenAT/OS/6.21.02/ADL/gcc_wmadl_6.21.02.0.0.lib(adl_traces.o)
 .debug_loc     0x00012e24      0x2fa /cygdrive/c/OpenAT/OS/6.21.02/ADL/gcc_wmadl_6.21.02.0.0.lib(adl_UnSoHandler.o)
 .debug_loc     0x0001311e       0xa8 /cygdrive/c/OpenAT/OS/6.21.02/ADL/gcc_wmadl_6.21.02.0.0.lib(adl_wd.o)
 .debug_loc     0x000131c6       0xd0 /cygdrive/c/OpenAT/Plug-ins/WIP/5.10.2020/WIP/gcc_wmwip_5.10.2020.lib(br_close.o)
 .debug_loc     0x00013296      0x133 /cygdrive/c/OpenAT/Plug-ins/WIP/5.10.2020/WIP/gcc_wmwip_5.10.2020.lib(br_getopts.o)
 .debug_loc     0x000133c9       0x91 /cygdrive/c/OpenAT/Plug-ins/WIP/5.10.2020/WIP/gcc_wmwip_5.10.2020.lib(br_mgr_init.o)
 .debug_loc     0x0001345a      0x11a /cygdrive/c/OpenAT/Plug-ins/WIP/5.10.2020/WIP/gcc_wmwip_5.10.2020.lib(br_open.o)
 .debug_loc     0x00013574      0x133 /cygdrive/c/OpenAT/Plug-ins/WIP/5.10.2020/WIP/gcc_wmwip_5.10.2020.lib(br_setopts.o)
 .debug_loc     0x000136a7       0x29 /cygdrive/c/OpenAT/Plug-ins/WIP/5.10.2020/WIP/gcc_wmwip_5.10.2020.lib(br_start.o)
 .debug_loc     0x000136d0      0x381 /cygdrive/c/OpenAT/Plug-ins/WIP/5.10.2020/WIP/gcc_wmwip_5.10.2020.lib(br_v24.o)
 .debug_loc     0x00013a51     0x14cc /cygdrive/c/OpenAT/Plug-ins/WIP/5.10.2020/WIP/gcc_wmwip_5.10.2020.lib(ch_channel.o)
 .debug_loc     0x00014f1d     0x1fb9 /cygdrive/c/OpenAT/Plug-ins/WIP/5.10.2020/WIP/gcc_wmwip_5.10.2020.lib(ch_tcp_client.o)
 .debug_loc     0x00016ed6     0x164e /cygdrive/c/OpenAT/Plug-ins/WIP/5.10.2020/WIP/gcc_wmwip_5.10.2020.lib(ch_udp.o)
 .debug_loc     0x00018524      0xa87 /cygdrive/c/OpenAT/Plug-ins/WIP/5.10.2020/WIP/gcc_wmwip_5.10.2020.lib(file.o)
 .debug_loc     0x00018fab      0xe81 /cygdrive/c/OpenAT/Plug-ins/WIP/5.10.2020/WIP/gcc_wmwip_5.10.2020.lib(ftp.o)
 .debug_loc     0x00019e2c      0x81e /cygdrive/c/OpenAT/Plug-ins/WIP/5.10.2020/WIP/gcc_wmwip_5.10.2020.lib(ftp_evh.o)
 .debug_loc     0x0001a64a      0x40e /cygdrive/c/OpenAT/Plug-ins/WIP/5.10.2020/WIP/gcc_wmwip_5.10.2020.lib(ftp_list.o)
 .debug_loc     0x0001aa58       0x1e /cygdrive/c/OpenAT/Plug-ins/WIP/5.10.2020/WIP/gcc_wmwip_5.10.2020.lib(ftr.o)
 .debug_loc     0x0001aa76       0x26 /cygdrive/c/OpenAT/Plug-ins/WIP/5.10.2020/WIP/gcc_wmwip_5.10.2020.lib(in_aton.o)
 .debug_loc     0x0001aa9c       0x44 /cygdrive/c/OpenAT/Plug-ins/WIP/5.10.2020/WIP/gcc_wmwip_5.10.2020.lib(in_ntoa.o)
 .debug_loc     0x0001aae0      0x1f5 /cygdrive/c/OpenAT/Plug-ins/WIP/5.10.2020/WIP/gcc_wmwip_5.10.2020.lib(list_plugin_unix.o)
 .debug_loc     0x0001acd5      0x1c4 /cygdrive/c/OpenAT/Plug-ins/WIP/5.10.2020/WIP/gcc_wmwip_5.10.2020.lib(net_debug.o)
 .debug_loc     0x0001ae99      0x20b /cygdrive/c/OpenAT/Plug-ins/WIP/5.10.2020/WIP/gcc_wmwip_5.10.2020.lib(net_initopts.o)
 .debug_loc     0x0001b0a4      0x266 /cygdrive/c/OpenAT/Plug-ins/WIP/5.10.2020/WIP/gcc_wmwip_5.10.2020.lib(net_setopts.o)
 .debug_loc     0x0001b30a      0x29d /cygdrive/c/OpenAT/Plug-ins/WIP/5.10.2020/WIP/gcc_wmwip_5.10.2020.lib(queue.o)
 .debug_loc     0x0001b5a7      0x966 /cygdrive/c/OpenAT/Plug-ins/WIP/5.10.2020/WIP/gcc_wmwip_5.10.2020.lib(readline.o)
 .debug_loc     0x0001bf0d      0x27a /cygdrive/c/OpenAT/Plug-ins/WIP/5.10.2020/WIP/gcc_wmwip_5.10.2020.lib(wip_subLevelOpts.o)
 .debug_loc     0x0001c187      0x6cf /cygdrive/c/OpenAT/Plug-ins/WIP/5.10.2020/WIP/gcc_wmwip_5.10.2020.lib(wrapper.o)
 .debug_loc     0x0001c856       0x62 /cygdrive/c/OpenAT/Plug-ins/WIP/5.10.2020/WIP/gcc_wmwip_5.10.2020.lib(wm_net_hton.o)
 .debug_loc     0x0001c8b8      0x16a /cygdrive/c/OpenAT/Plug-ins/WIP/5.10.2020/WIP/gcc_wmwip_5.10.2020.lib(wm_net_in_aton.o)
 .debug_loc     0x0001ca22       0xa9 /cygdrive/c/OpenAT/Plug-ins/WIP/5.10.2020/WIP/gcc_wmwip_5.10.2020.lib(wm_net_in_ntoa.o)
 .debug_loc     0x0001cacb     0x1d2f /cygdrive/c/OpenAT/Plug-ins/WIP/5.10.2020/WIP/gcc_wmwip_5.10.2020.lib(wm_net_wrapper.o)
 .debug_loc     0x0001e7fa      0x43e /cygdrive/c/OpenAT/Plug-ins/WIP/5.10.2020/WIP/gcc_wmwip_5.10.2020.lib(rawprint.o)
 .debug_loc     0x0001ec38      0x7a1 /cygdrive/c/OpenAT/Plug-ins/WIP/5.10.2020/WIP/gcc_wmwip_5.10.2020.lib(br_eth.o)
 .debug_loc     0x0001f3d9       0x1e /cygdrive/c/OpenAT/Plug-ins/WIP/5.10.2020/WIP/gcc_wmwip_5.10.2020.lib(br_gen_close.o)
 .debug_loc     0x0001f3f7      0x174 /cygdrive/c/OpenAT/Plug-ins/WIP/5.10.2020/WIP/gcc_wmwip_5.10.2020.lib(br_gen_getopt.o)
 .debug_loc     0x0001f56b      0x108 /cygdrive/c/OpenAT/Plug-ins/WIP/5.10.2020/WIP/gcc_wmwip_5.10.2020.lib(br_gen_setopt.o)
 .debug_loc     0x0001f673       0x29 /cygdrive/c/OpenAT/Plug-ins/WIP/5.10.2020/WIP/gcc_wmwip_5.10.2020.lib(br_gen_stop.o)
 .debug_loc     0x0001f69c      0x563 /cygdrive/c/OpenAT/Plug-ins/WIP/5.10.2020/WIP/gcc_wmwip_5.10.2020.lib(br_gprs.o)
 .debug_loc     0x0001fbff      0x5ce /cygdrive/c/OpenAT/Plug-ins/WIP/5.10.2020/WIP/gcc_wmwip_5.10.2020.lib(br_gsm.o)
 .debug_loc     0x000201cd       0x5e /cygdrive/c/OpenAT/Plug-ins/WIP/5.10.2020/WIP/gcc_wmwip_5.10.2020.lib(br_mgr_debug.o)
 .debug_loc     0x0002022b      0x10f /cygdrive/c/OpenAT/Plug-ins/WIP/5.10.2020/WIP/gcc_wmwip_5.10.2020.lib(br_ppp_getopt.o)
 .debug_loc     0x0002033a      0x2d1 /cygdrive/c/OpenAT/Plug-ins/WIP/5.10.2020/WIP/gcc_wmwip_5.10.2020.lib(br_ppp_init.o)
 .debug_loc     0x0002060b      0x16a /cygdrive/c/OpenAT/Plug-ins/WIP/5.10.2020/WIP/gcc_wmwip_5.10.2020.lib(br_ppp_setopt.o)
 .debug_loc     0x00020775       0xfe /cygdrive/c/OpenAT/Plug-ins/WIP/5.10.2020/WIP/gcc_wmwip_5.10.2020.lib(br_ppp_start.o)
 .debug_loc     0x00020873       0x29 /cygdrive/c/OpenAT/Plug-ins/WIP/5.10.2020/WIP/gcc_wmwip_5.10.2020.lib(br_ppp_stop.o)
 .debug_loc     0x0002089c      0x3c8 /cygdrive/c/OpenAT/Plug-ins/WIP/5.10.2020/WIP/gcc_wmwip_5.10.2020.lib(ch_class.o)
 .debug_loc     0x00020c64      0x545 /cygdrive/c/OpenAT/Plug-ins/WIP/5.10.2020/WIP/gcc_wmwip_5.10.2020.lib(ch_tcp_server.o)
 .debug_loc     0x000211a9       0xe5 /usr/local/OAT/lib/gcc/arm-elf/4.3.2/../../../../arm-elf/lib/interwork/libc.a(lib_a-asprintf.o)
 .debug_loc     0x0002128e       0x77 /usr/local/OAT/lib/gcc/arm-elf/4.3.2/../../../../arm-elf/lib/interwork/libc.a(lib_a-atoi.o)
 .debug_loc     0x00021305       0xc8 /usr/local/OAT/lib/gcc/arm-elf/4.3.2/../../../../arm-elf/lib/interwork/libc.a(lib_a-locale.o)
 .debug_loc     0x000213cd       0x7a /usr/local/OAT/lib/gcc/arm-elf/4.3.2/../../../../arm-elf/lib/interwork/libc.a(lib_a-malloc.o)
 .debug_loc     0x00021447      0x75d /usr/local/OAT/lib/gcc/arm-elf/4.3.2/../../../../arm-elf/lib/interwork/libc.a(lib_a-mallocr.o)
 .debug_loc     0x00021ba4      0x102 /usr/local/OAT/lib/gcc/arm-elf/4.3.2/../../../../arm-elf/lib/interwork/libc.a(lib_a-memcmp.o)
 .debug_loc     0x00021ca6      0x130 /usr/local/OAT/lib/gcc/arm-elf/4.3.2/../../../../arm-elf/lib/interwork/libc.a(lib_a-memcpy.o)
 .debug_loc     0x00021dd6      0x12b /usr/local/OAT/lib/gcc/arm-elf/4.3.2/../../../../arm-elf/lib/interwork/libc.a(lib_a-memset.o)
 .debug_loc     0x00021f01       0x7c /usr/local/OAT/lib/gcc/arm-elf/4.3.2/../../../../arm-elf/lib/interwork/libc.a(lib_a-printf.o)
 .debug_loc     0x00021f7d       0x5b /usr/local/OAT/lib/gcc/arm-elf/4.3.2/../../../../arm-elf/lib/interwork/libc.a(lib_a-realloc.o)
 .debug_loc     0x00021fd8      0x725 /usr/local/OAT/lib/gcc/arm-elf/4.3.2/../../../../arm-elf/lib/interwork/libc.a(lib_a-reallocr.o)
 .debug_loc     0x000226fd       0x6e /usr/local/OAT/lib/gcc/arm-elf/4.3.2/../../../../arm-elf/lib/interwork/libc.a(lib_a-sbrkr.o)
 .debug_loc     0x0002276b       0xbf /usr/local/OAT/lib/gcc/arm-elf/4.3.2/../../../../arm-elf/lib/interwork/libc.a(lib_a-sprintf.o)
 .debug_loc     0x0002282a       0xc7 /usr/local/OAT/lib/gcc/arm-elf/4.3.2/../../../../arm-elf/lib/interwork/libc.a(lib_a-sscanf.o)
 .debug_loc     0x000228f1       0x79 /usr/local/OAT/lib/gcc/arm-elf/4.3.2/../../../../arm-elf/lib/interwork/libc.a(lib_a-strcat.o)
 .debug_loc     0x0002296a       0xd3 /usr/local/OAT/lib/gcc/arm-elf/4.3.2/../../../../arm-elf/lib/interwork/libc.a(lib_a-strchr.o)
 .debug_loc     0x00022a3d       0xba /usr/local/OAT/lib/gcc/arm-elf/4.3.2/../../../../arm-elf/lib/interwork/libc.a(lib_a-strcmp.o)
 .debug_loc     0x00022af7       0xaa /usr/local/OAT/lib/gcc/arm-elf/4.3.2/../../../../arm-elf/lib/interwork/libc.a(lib_a-strcpy.o)
 .debug_loc     0x00022ba1       0x3d /usr/local/OAT/lib/gcc/arm-elf/4.3.2/../../../../arm-elf/lib/interwork/libc.a(lib_a-strdup.o)
 .debug_loc     0x00022bde       0x5b /usr/local/OAT/lib/gcc/arm-elf/4.3.2/../../../../arm-elf/lib/interwork/libc.a(lib_a-strdup_r.o)
 .debug_loc     0x00022c39       0x47 /usr/local/OAT/lib/gcc/arm-elf/4.3.2/../../../../arm-elf/lib/interwork/libc.a(lib_a-strlen.o)
 .debug_loc     0x00022c80       0xad /usr/local/OAT/lib/gcc/arm-elf/4.3.2/../../../../arm-elf/lib/interwork/libc.a(lib_a-strncat.o)
 .debug_loc     0x00022d2d      0x105 /usr/local/OAT/lib/gcc/arm-elf/4.3.2/../../../../arm-elf/lib/interwork/libc.a(lib_a-strncmp.o)
 .debug_loc     0x00022e32      0x128 /usr/local/OAT/lib/gcc/arm-elf/4.3.2/../../../../arm-elf/lib/interwork/libc.a(lib_a-strncpy.o)
 .debug_loc     0x00022f5a       0x45 /usr/local/OAT/lib/gcc/arm-elf/4.3.2/../../../../arm-elf/lib/interwork/libc.a(lib_a-strsep.o)
 .debug_loc     0x00022f9f       0x1e /usr/local/OAT/lib/gcc/arm-elf/4.3.2/../../../../arm-elf/lib/interwork/libc.a(lib_a-strstr.o)
 .debug_loc     0x00022fbd       0x45 /usr/local/OAT/lib/gcc/arm-elf/4.3.2/../../../../arm-elf/lib/interwork/libc.a(lib_a-strtok.o)
 .debug_loc     0x00023002      0x1c4 /usr/local/OAT/lib/gcc/arm-elf/4.3.2/../../../../arm-elf/lib/interwork/libc.a(lib_a-strtok_r.o)
 .debug_loc     0x000231c6      0x210 /usr/local/OAT/lib/gcc/arm-elf/4.3.2/../../../../arm-elf/lib/interwork/libc.a(lib_a-strtol.o)
 .debug_loc     0x000233d6      0x916 /usr/local/OAT/lib/gcc/arm-elf/4.3.2/../../../../arm-elf/lib/interwork/libc.a(lib_a-syscalls.o)
 .debug_loc     0x00023cec       0x58 /usr/local/OAT/lib/gcc/arm-elf/4.3.2/../../../../arm-elf/lib/interwork/libc.a(lib_a-syswrite.o)
 .debug_loc     0x00023d44      0x10f /usr/local/OAT/lib/gcc/arm-elf/4.3.2/../../../../arm-elf/lib/interwork/libc.a(lib_a-vasprintf.o)
 .debug_loc     0x00023e53     0x200c /usr/local/OAT/lib/gcc/arm-elf/4.3.2/../../../../arm-elf/lib/interwork/libc.a(lib_a-vfprintf.o)
 .debug_loc     0x00025e5f     0x12bb /usr/local/OAT/lib/gcc/arm-elf/4.3.2/../../../../arm-elf/lib/interwork/libc.a(lib_a-vfscanf.o)
 .debug_loc     0x0002711a       0xfc /usr/local/OAT/lib/gcc/arm-elf/4.3.2/../../../../arm-elf/lib/interwork/libc.a(lib_a-vsprintf.o)
 .debug_loc     0x00027216       0x5b /usr/local/OAT/lib/gcc/arm-elf/4.3.2/../../../../arm-elf/lib/interwork/libc.a(lib_a-wsetup.o)
 .debug_loc     0x00027271       0x13 /usr/local/OAT/lib/gcc/arm-elf/4.3.2/../../../../arm-elf/lib/interwork/libc.a(lib_a-OAT_close.o)
 .debug_loc     0x00027284       0x13 /usr/local/OAT/lib/gcc/arm-elf/4.3.2/../../../../arm-elf/lib/interwork/libc.a(lib_a-OAT_fstat.o)
 .debug_loc     0x00027297       0x13 /usr/local/OAT/lib/gcc/arm-elf/4.3.2/../../../../arm-elf/lib/interwork/libc.a(lib_a-OAT_isatty.o)
 .debug_loc     0x000272aa       0x13 /usr/local/OAT/lib/gcc/arm-elf/4.3.2/../../../../arm-elf/lib/interwork/libc.a(lib_a-OAT_kill.o)
 .debug_loc     0x000272bd       0x13 /usr/local/OAT/lib/gcc/arm-elf/4.3.2/../../../../arm-elf/lib/interwork/libc.a(lib_a-OAT_lseek.o)
 .debug_loc     0x000272d0       0x13 /usr/local/OAT/lib/gcc/arm-elf/4.3.2/../../../../arm-elf/lib/interwork/libc.a(lib_a-OAT_open.o)
 .debug_loc     0x000272e3       0x13 /usr/local/OAT/lib/gcc/arm-elf/4.3.2/../../../../arm-elf/lib/interwork/libc.a(lib_a-OAT_read.o)
 .debug_loc     0x000272f6       0x13 /usr/local/OAT/lib/gcc/arm-elf/4.3.2/../../../../arm-elf/lib/interwork/libc.a(lib_a-OAT_write.o)
 .debug_loc     0x00027309     0x1df2 /usr/local/OAT/lib/gcc/arm-elf/4.3.2/../../../../arm-elf/lib/interwork/libc.a(lib_a-dtoa.o)
 .debug_loc     0x000290fb      0x170 /usr/local/OAT/lib/gcc/arm-elf/4.3.2/../../../../arm-elf/lib/interwork/libc.a(lib_a-fflush.o)
 .debug_loc     0x0002926b      0x223 /usr/local/OAT/lib/gcc/arm-elf/4.3.2/../../../../arm-elf/lib/interwork/libc.a(lib_a-findfp.o)
 .debug_loc     0x0002948e      0x297 /usr/local/OAT/lib/gcc/arm-elf/4.3.2/../../../../arm-elf/lib/interwork/libc.a(lib_a-fread.o)
 .debug_loc     0x00029725      0x2ab /usr/local/OAT/lib/gcc/arm-elf/4.3.2/../../../../arm-elf/lib/interwork/libc.a(lib_a-freer.o)
 .debug_loc     0x000299d0      0x42e /usr/local/OAT/lib/gcc/arm-elf/4.3.2/../../../../arm-elf/lib/interwork/libc.a(lib_a-fvwrite.o)
 .debug_loc     0x00029dfe       0xc1 /usr/local/OAT/lib/gcc/arm-elf/4.3.2/../../../../arm-elf/lib/interwork/libc.a(lib_a-fwalk.o)
 .debug_loc     0x00029ebf       0x13 /usr/local/OAT/lib/gcc/arm-elf/4.3.2/../../../../arm-elf/lib/interwork/libc.a(lib_a-iswspace.o)
 .debug_loc     0x00029ed2       0xcd /usr/local/OAT/lib/gcc/arm-elf/4.3.2/../../../../arm-elf/lib/interwork/libc.a(lib_a-makebuf.o)
 .debug_loc     0x00029f9f      0x178 /usr/local/OAT/lib/gcc/arm-elf/4.3.2/../../../../arm-elf/lib/interwork/libc.a(lib_a-mbrtowc.o)
 .debug_loc     0x0002a117       0x8f /usr/local/OAT/lib/gcc/arm-elf/4.3.2/../../../../arm-elf/lib/interwork/libc.a(lib_a-mbtowc_r.o)
 .debug_loc     0x0002a1a6      0x196 /usr/local/OAT/lib/gcc/arm-elf/4.3.2/../../../../arm-elf/lib/interwork/libc.a(lib_a-memchr.o)
 .debug_loc     0x0002a33c      0x193 /usr/local/OAT/lib/gcc/arm-elf/4.3.2/../../../../arm-elf/lib/interwork/libc.a(lib_a-memmove.o)
 .debug_loc     0x0002a4cf     0x10b1 /usr/local/OAT/lib/gcc/arm-elf/4.3.2/../../../../arm-elf/lib/interwork/libc.a(lib_a-mprec.o)
 .debug_loc     0x0002b580      0x187 /usr/local/OAT/lib/gcc/arm-elf/4.3.2/../../../../arm-elf/lib/interwork/libc.a(lib_a-reent.o)
 .debug_loc     0x0002b707       0x8d /usr/local/OAT/lib/gcc/arm-elf/4.3.2/../../../../arm-elf/lib/interwork/libc.a(lib_a-refill.o)
 .debug_loc     0x0002b794       0x4f /usr/local/OAT/lib/gcc/arm-elf/4.3.2/../../../../arm-elf/lib/interwork/libc.a(lib_a-s_isinfd.o)
 .debug_loc     0x0002b7e3       0xc3 /usr/local/OAT/lib/gcc/arm-elf/4.3.2/../../../../arm-elf/lib/interwork/libc.a(lib_a-sccl.o)
 .debug_loc     0x0002b8a6       0x13 /usr/local/OAT/lib/gcc/arm-elf/4.3.2/../../../../arm-elf/lib/interwork/libc.a(lib_a-sf_nan.o)
 .debug_loc     0x0002b8b9      0x1ee /usr/local/OAT/lib/gcc/arm-elf/4.3.2/../../../../arm-elf/lib/interwork/libc.a(lib_a-stdio.o)
 .debug_loc     0x0002baa7     0x1a1b /usr/local/OAT/lib/gcc/arm-elf/4.3.2/../../../../arm-elf/lib/interwork/libc.a(lib_a-strtod.o)
 .debug_loc     0x0002d4c2      0x1dc /usr/local/OAT/lib/gcc/arm-elf/4.3.2/../../../../arm-elf/lib/interwork/libc.a(lib_a-strtoul.o)
 .debug_loc     0x0002d69e      0x16d /usr/local/OAT/lib/gcc/arm-elf/4.3.2/../../../../arm-elf/lib/interwork/libc.a(lib_a-ungetc.o)
 .debug_loc     0x0002d80b       0x89 /usr/local/OAT/lib/gcc/arm-elf/4.3.2/../../../../arm-elf/lib/interwork/libc.a(lib_a-writer.o)
 .debug_loc     0x0002d894       0xcb /usr/local/OAT/lib/gcc/arm-elf/4.3.2/../../../../arm-elf/lib/interwork/libc.a(lib_a-callocr.o)
 .debug_loc     0x0002d95f       0x63 /usr/local/OAT/lib/gcc/arm-elf/4.3.2/../../../../arm-elf/lib/interwork/libc.a(lib_a-closer.o)
 .debug_loc     0x0002d9c2       0x79 /usr/local/OAT/lib/gcc/arm-elf/4.3.2/../../../../arm-elf/lib/interwork/libc.a(lib_a-fclose.o)
 .debug_loc     0x0002da3b       0x76 /usr/local/OAT/lib/gcc/arm-elf/4.3.2/../../../../arm-elf/lib/interwork/libc.a(lib_a-fstatr.o)
 .debug_loc     0x0002dab1      0x957 /usr/local/OAT/lib/gcc/arm-elf/4.3.2/../../../../arm-elf/lib/interwork/libc.a(lib_a-gdtoa-gethex.o)
 .debug_loc     0x0002e408      0x36f /usr/local/OAT/lib/gcc/arm-elf/4.3.2/../../../../arm-elf/lib/interwork/libc.a(lib_a-gdtoa-hexnan.o)
 .debug_loc     0x0002e777       0x89 /usr/local/OAT/lib/gcc/arm-elf/4.3.2/../../../../arm-elf/lib/interwork/libc.a(lib_a-lseekr.o)
 .debug_loc     0x0002e800       0x89 /usr/local/OAT/lib/gcc/arm-elf/4.3.2/../../../../arm-elf/lib/interwork/libc.a(lib_a-readr.o)

.debug_pubnames
                0x00000000     0x5044
 .debug_pubnames
                0x00000000       0x1a /usr/local/OAT/lib/gcc/arm-elf/4.3.2/../../../../arm-elf/lib/interwork/libm.a(lib_a-s_cos.o)
 .debug_pubnames
                0x0000001a       0x1a /usr/local/OAT/lib/gcc/arm-elf/4.3.2/../../../../arm-elf/lib/interwork/libm.a(lib_a-s_sin.o)
 .debug_pubnames
                0x00000034       0x1c /usr/local/OAT/lib/gcc/arm-elf/4.3.2/../../../../arm-elf/lib/interwork/libm.a(lib_a-w_atan2.o)
 .debug_pubnames
                0x00000050       0x1b /usr/local/OAT/lib/gcc/arm-elf/4.3.2/../../../../arm-elf/lib/interwork/libm.a(lib_a-w_sqrt.o)
 .debug_pubnames
                0x0000006b       0x26 /usr/local/OAT/lib/gcc/arm-elf/4.3.2/../../../../arm-elf/lib/interwork/libm.a(lib_a-e_atan2.o)
 .debug_pubnames
                0x00000091       0x29 /usr/local/OAT/lib/gcc/arm-elf/4.3.2/../../../../arm-elf/lib/interwork/libm.a(lib_a-e_rem_pio2.o)
 .debug_pubnames
                0x000000ba       0x25 /usr/local/OAT/lib/gcc/arm-elf/4.3.2/../../../../arm-elf/lib/interwork/libm.a(lib_a-e_sqrt.o)
 .debug_pubnames
                0x000000df       0x23 /usr/local/OAT/lib/gcc/arm-elf/4.3.2/../../../../arm-elf/lib/interwork/libm.a(lib_a-k_cos.o)
 .debug_pubnames
                0x00000102       0x28 /usr/local/OAT/lib/gcc/arm-elf/4.3.2/../../../../arm-elf/lib/interwork/libm.a(lib_a-k_rem_pio2.o)
 .debug_pubnames
                0x0000012a       0x23 /usr/local/OAT/lib/gcc/arm-elf/4.3.2/../../../../arm-elf/lib/interwork/libm.a(lib_a-k_sin.o)
 .debug_pubnames
                0x0000014d       0x1b /usr/local/OAT/lib/gcc/arm-elf/4.3.2/../../../../arm-elf/lib/interwork/libm.a(lib_a-s_atan.o)
 .debug_pubnames
                0x00000168       0x1b /usr/local/OAT/lib/gcc/arm-elf/4.3.2/../../../../arm-elf/lib/interwork/libm.a(lib_a-s_fabs.o)
 .debug_pubnames
                0x00000183       0x1c /usr/local/OAT/lib/gcc/arm-elf/4.3.2/../../../../arm-elf/lib/interwork/libm.a(lib_a-s_floor.o)
 .debug_pubnames
                0x0000019f       0x1f /usr/local/OAT/lib/gcc/arm-elf/4.3.2/../../../../arm-elf/lib/interwork/libm.a(lib_a-s_isnand.o)
 .debug_pubnames
                0x000001be       0x26 /usr/local/OAT/lib/gcc/arm-elf/4.3.2/../../../../arm-elf/lib/interwork/libm.a(lib_a-s_lib_ver.o)
 .debug_pubnames
                0x000001e4       0x1e /usr/local/OAT/lib/gcc/arm-elf/4.3.2/../../../../arm-elf/lib/interwork/libm.a(lib_a-s_matherr.o)
 .debug_pubnames
                0x00000202       0x1d /usr/local/OAT/lib/gcc/arm-elf/4.3.2/../../../../arm-elf/lib/interwork/libm.a(lib_a-s_scalbn.o)
 .debug_pubnames
                0x0000021f       0x1f /usr/local/OAT/lib/gcc/arm-elf/4.3.2/../../../../arm-elf/lib/interwork/libm.a(lib_a-s_copysign.o)
 .debug_pubnames
                0x0000023e       0x36 mos_header.o
 .debug_pubnames
                0x00000274       0xb3 /cygdrive/c/OpenAT/OS/6.21.02/ADL/gcc_wmadl_6.21.02.0.0.lib(mos_ftr.o)
 .debug_pubnames
                0x00000327      0x13a /cygdrive/c/OpenAT/OS/6.21.02/ADL/gcc_wmadl_6.21.02.0.0.lib(opec_lst.o)
 .debug_pubnames
                0x00000461      0x11b /cygdrive/c/OpenAT/OS/6.21.02/ADL/gcc_wmadl_6.21.02.0.0.lib(opec_std.o)
 .debug_pubnames
                0x0000057c      0x181 /cygdrive/c/OpenAT/OS/6.21.02/ADL/gcc_wmadl_6.21.02.0.0.lib(adl_ad.o)
 .debug_pubnames
                0x000006fd       0x38 /cygdrive/c/OpenAT/OS/6.21.02/ADL/gcc_wmadl_6.21.02.0.0.lib(adl_adc.o)
 .debug_pubnames
                0x00000735       0xd7 /cygdrive/c/OpenAT/OS/6.21.02/ADL/gcc_wmadl_6.21.02.0.0.lib(adl_AppliInit.o)
 .debug_pubnames
                0x0000080c      0x1e9 /cygdrive/c/OpenAT/OS/6.21.02/ADL/gcc_wmadl_6.21.02.0.0.lib(adl_audio.o)
 .debug_pubnames
                0x000009f5       0xe2 /cygdrive/c/OpenAT/OS/6.21.02/ADL/gcc_wmadl_6.21.02.0.0.lib(adl_bus.o)
 .debug_pubnames
                0x00000ad7      0x286 /cygdrive/c/OpenAT/OS/6.21.02/ADL/gcc_wmadl_6.21.02.0.0.lib(adl_call.o)
 .debug_pubnames
                0x00000d5d      0x21f /cygdrive/c/OpenAT/OS/6.21.02/ADL/gcc_wmadl_6.21.02.0.0.lib(adl_CmdHandler.o)
 .debug_pubnames
                0x00000f7c      0x33e /cygdrive/c/OpenAT/OS/6.21.02/ADL/gcc_wmadl_6.21.02.0.0.lib(adl_CmdProcessor.o)
 .debug_pubnames
                0x000012ba      0x237 /cygdrive/c/OpenAT/OS/6.21.02/ADL/gcc_wmadl_6.21.02.0.0.lib(adl_CmdStackHandler.o)
 .debug_pubnames
                0x000014f1      0x111 /cygdrive/c/OpenAT/OS/6.21.02/ADL/gcc_wmadl_6.21.02.0.0.lib(adl_ctx.o)
 .debug_pubnames
                0x00001602       0x2a /cygdrive/c/OpenAT/OS/6.21.02/ADL/gcc_wmadl_6.21.02.0.0.lib(adl_defaut_buildtime.o)
 .debug_pubnames
                0x0000162c       0x2d /cygdrive/c/OpenAT/OS/6.21.02/ADL/gcc_wmadl_6.21.02.0.0.lib(adl_defaut_extend.o)
 .debug_pubnames
                0x00001659       0x27 /cygdrive/c/OpenAT/OS/6.21.02/ADL/gcc_wmadl_6.21.02.0.0.lib(adl_defaut_selist.o)
 .debug_pubnames
                0x00001680       0x2c /cygdrive/c/OpenAT/OS/6.21.02/ADL/gcc_wmadl_6.21.02.0.0.lib(adl_defaut_timeslicing.o)
 .debug_pubnames
                0x000016ac       0xde /cygdrive/c/OpenAT/OS/6.21.02/ADL/gcc_wmadl_6.21.02.0.0.lib(adl_error.o)
 .debug_pubnames
                0x0000178a       0xa2 /cygdrive/c/OpenAT/OS/6.21.02/ADL/gcc_wmadl_6.21.02.0.0.lib(adl_EventMachine.o)
 .debug_pubnames
                0x0000182c       0xba /cygdrive/c/OpenAT/OS/6.21.02/ADL/gcc_wmadl_6.21.02.0.0.lib(adl_extint.o)
 .debug_pubnames
                0x000018e6       0x30 /cygdrive/c/OpenAT/OS/6.21.02/ADL/gcc_wmadl_6.21.02.0.0.lib(adl_extint_deprecated.o)
 .debug_pubnames
                0x00001916      0x23e /cygdrive/c/OpenAT/OS/6.21.02/ADL/gcc_wmadl_6.21.02.0.0.lib(adl_fcm.o)
 .debug_pubnames
                0x00001b54       0xdf /cygdrive/c/OpenAT/OS/6.21.02/ADL/gcc_wmadl_6.21.02.0.0.lib(adl_flash.o)
 .debug_pubnames
                0x00001c33      0x11e /cygdrive/c/OpenAT/OS/6.21.02/ADL/gcc_wmadl_6.21.02.0.0.lib(adl_gpio.o)
 .debug_pubnames
                0x00001d51       0xfd /cygdrive/c/OpenAT/OS/6.21.02/ADL/gcc_wmadl_6.21.02.0.0.lib(adl_gprs.o)
 .debug_pubnames
                0x00001e4e      0x1c9 /cygdrive/c/OpenAT/OS/6.21.02/ADL/gcc_wmadl_6.21.02.0.0.lib(adl_irq.o)
 .debug_pubnames
                0x00002017       0xcc /cygdrive/c/OpenAT/OS/6.21.02/ADL/gcc_wmadl_6.21.02.0.0.lib(adl_memory.o)
 .debug_pubnames
                0x000020e3       0xd0 /cygdrive/c/OpenAT/OS/6.21.02/ADL/gcc_wmadl_6.21.02.0.0.lib(adl_msg.o)
 .debug_pubnames
                0x000021b3      0x198 /cygdrive/c/OpenAT/OS/6.21.02/ADL/gcc_wmadl_6.21.02.0.0.lib(adl_port.o)
 .debug_pubnames
                0x0000234b       0xa3 /cygdrive/c/OpenAT/OS/6.21.02/ADL/gcc_wmadl_6.21.02.0.0.lib(adl_reg.o)
 .debug_pubnames
                0x000023ee      0x183 /cygdrive/c/OpenAT/OS/6.21.02/ADL/gcc_wmadl_6.21.02.0.0.lib(adl_RspHandler.o)
 .debug_pubnames
                0x00002571       0x84 /cygdrive/c/OpenAT/OS/6.21.02/ADL/gcc_wmadl_6.21.02.0.0.lib(adl_rtc.o)
 .debug_pubnames
                0x000025f5       0xc2 /cygdrive/c/OpenAT/OS/6.21.02/ADL/gcc_wmadl_6.21.02.0.0.lib(adl_sem.o)
 .debug_pubnames
                0x000026b7       0xb9 /cygdrive/c/OpenAT/OS/6.21.02/ADL/gcc_wmadl_6.21.02.0.0.lib(adl_serv.o)
 .debug_pubnames
                0x00002770      0x16d /cygdrive/c/OpenAT/OS/6.21.02/ADL/gcc_wmadl_6.21.02.0.0.lib(adl_sim.o)
 .debug_pubnames
                0x000028dd      0x138 /cygdrive/c/OpenAT/OS/6.21.02/ADL/gcc_wmadl_6.21.02.0.0.lib(adl_sms.o)
 .debug_pubnames
                0x00002a15       0xc9 /cygdrive/c/OpenAT/OS/6.21.02/ADL/gcc_wmadl_6.21.02.0.0.lib(adl_str.o)
 .debug_pubnames
                0x00002ade       0x9b /cygdrive/c/OpenAT/OS/6.21.02/ADL/gcc_wmadl_6.21.02.0.0.lib(adl_TimerHandler.o)
 .debug_pubnames
                0x00002b79       0xb1 /cygdrive/c/OpenAT/OS/6.21.02/ADL/gcc_wmadl_6.21.02.0.0.lib(adl_traces.o)
 .debug_pubnames
                0x00002c2a       0x77 /cygdrive/c/OpenAT/OS/6.21.02/ADL/gcc_wmadl_6.21.02.0.0.lib(adl_UnSoHandler.o)
 .debug_pubnames
                0x00002ca1       0x79 /cygdrive/c/OpenAT/OS/6.21.02/ADL/gcc_wmadl_6.21.02.0.0.lib(adl_wd.o)
 .debug_pubnames
                0x00002d1a       0x26 /cygdrive/c/OpenAT/Plug-ins/WIP/5.10.2020/WIP/gcc_wmwip_5.10.2020.lib(br_close.o)
 .debug_pubnames
                0x00002d40       0x28 /cygdrive/c/OpenAT/Plug-ins/WIP/5.10.2020/WIP/gcc_wmwip_5.10.2020.lib(br_getopts.o)
 .debug_pubnames
                0x00002d68       0x5d /cygdrive/c/OpenAT/Plug-ins/WIP/5.10.2020/WIP/gcc_wmwip_5.10.2020.lib(br_mgr_init.o)
 .debug_pubnames
                0x00002dc5       0x25 /cygdrive/c/OpenAT/Plug-ins/WIP/5.10.2020/WIP/gcc_wmwip_5.10.2020.lib(br_open.o)
 .debug_pubnames
                0x00002dea       0x28 /cygdrive/c/OpenAT/Plug-ins/WIP/5.10.2020/WIP/gcc_wmwip_5.10.2020.lib(br_setopts.o)
 .debug_pubnames
                0x00002e12       0x26 /cygdrive/c/OpenAT/Plug-ins/WIP/5.10.2020/WIP/gcc_wmwip_5.10.2020.lib(br_start.o)
 .debug_pubnames
                0x00002e38       0x2b /cygdrive/c/OpenAT/Plug-ins/WIP/5.10.2020/WIP/gcc_wmwip_5.10.2020.lib(br_v24.o)
 .debug_pubnames
                0x00002e63      0x1c3 /cygdrive/c/OpenAT/Plug-ins/WIP/5.10.2020/WIP/gcc_wmwip_5.10.2020.lib(ch_channel.o)
 .debug_pubnames
                0x00003026       0x93 /cygdrive/c/OpenAT/Plug-ins/WIP/5.10.2020/WIP/gcc_wmwip_5.10.2020.lib(ch_tcp_client.o)
 .debug_pubnames
                0x000030b9       0x3a /cygdrive/c/OpenAT/Plug-ins/WIP/5.10.2020/WIP/gcc_wmwip_5.10.2020.lib(ch_udp.o)
 .debug_pubnames
                0x000030f3       0xf3 /cygdrive/c/OpenAT/Plug-ins/WIP/5.10.2020/WIP/gcc_wmwip_5.10.2020.lib(file.o)
 .debug_pubnames
                0x000031e6       0xa3 /cygdrive/c/OpenAT/Plug-ins/WIP/5.10.2020/WIP/gcc_wmwip_5.10.2020.lib(ftp.o)
 .debug_pubnames
                0x00003289       0x6a /cygdrive/c/OpenAT/Plug-ins/WIP/5.10.2020/WIP/gcc_wmwip_5.10.2020.lib(ftp_evh.o)
 .debug_pubnames
                0x000032f3       0x28 /cygdrive/c/OpenAT/Plug-ins/WIP/5.10.2020/WIP/gcc_wmwip_5.10.2020.lib(ftp_list.o)
 .debug_pubnames
                0x0000331b       0x2b /cygdrive/c/OpenAT/Plug-ins/WIP/5.10.2020/WIP/gcc_wmwip_5.10.2020.lib(ftr.o)
 .debug_pubnames
                0x00003346       0x24 /cygdrive/c/OpenAT/Plug-ins/WIP/5.10.2020/WIP/gcc_wmwip_5.10.2020.lib(in_aton.o)
 .debug_pubnames
                0x0000336a       0x24 /cygdrive/c/OpenAT/Plug-ins/WIP/5.10.2020/WIP/gcc_wmwip_5.10.2020.lib(in_ntoa.o)
 .debug_pubnames
                0x0000338e       0x30 /cygdrive/c/OpenAT/Plug-ins/WIP/5.10.2020/WIP/gcc_wmwip_5.10.2020.lib(list_plugin_unix.o)
 .debug_pubnames
                0x000033be       0xa3 /cygdrive/c/OpenAT/Plug-ins/WIP/5.10.2020/WIP/gcc_wmwip_5.10.2020.lib(net_debug.o)
 .debug_pubnames
                0x00003461       0x22 /cygdrive/c/OpenAT/Plug-ins/WIP/5.10.2020/WIP/gcc_wmwip_5.10.2020.lib(net_init.o)
 .debug_pubnames
                0x00003483       0xaf /cygdrive/c/OpenAT/Plug-ins/WIP/5.10.2020/WIP/gcc_wmwip_5.10.2020.lib(net_initopts.o)
 .debug_pubnames
                0x00003532       0x39 /cygdrive/c/OpenAT/Plug-ins/WIP/5.10.2020/WIP/gcc_wmwip_5.10.2020.lib(net_setopts.o)
 .debug_pubnames
                0x0000356b       0x22 /cygdrive/c/OpenAT/Plug-ins/WIP/5.10.2020/WIP/gcc_wmwip_5.10.2020.lib(net_sync.o)
 .debug_pubnames
                0x0000358d       0x8c /cygdrive/c/OpenAT/Plug-ins/WIP/5.10.2020/WIP/gcc_wmwip_5.10.2020.lib(queue.o)
 .debug_pubnames
                0x00003619       0xb1 /cygdrive/c/OpenAT/Plug-ins/WIP/5.10.2020/WIP/gcc_wmwip_5.10.2020.lib(readline.o)
 .debug_pubnames
                0x000036ca       0x9a /cygdrive/c/OpenAT/Plug-ins/WIP/5.10.2020/WIP/gcc_wmwip_5.10.2020.lib(wip_subLevelOpts.o)
 .debug_pubnames
                0x00003764       0x56 /cygdrive/c/OpenAT/Plug-ins/WIP/5.10.2020/WIP/gcc_wmwip_5.10.2020.lib(wrapper.o)
 .debug_pubnames
                0x000037ba       0x52 /cygdrive/c/OpenAT/Plug-ins/WIP/5.10.2020/WIP/gcc_wmwip_5.10.2020.lib(wm_net_hton.o)
 .debug_pubnames
                0x0000380c       0x33 /cygdrive/c/OpenAT/Plug-ins/WIP/5.10.2020/WIP/gcc_wmwip_5.10.2020.lib(wm_net_in_aton.o)
 .debug_pubnames
                0x0000383f       0x22 /cygdrive/c/OpenAT/Plug-ins/WIP/5.10.2020/WIP/gcc_wmwip_5.10.2020.lib(wm_net_in_ntoa.o)
 .debug_pubnames
                0x00003861      0x4c8 /cygdrive/c/OpenAT/Plug-ins/WIP/5.10.2020/WIP/gcc_wmwip_5.10.2020.lib(wm_net_wrapper.o)
 .debug_pubnames
                0x00003d29       0x22 /cygdrive/c/OpenAT/Plug-ins/WIP/5.10.2020/WIP/gcc_wmwip_5.10.2020.lib(rawprint.o)
 .debug_pubnames
                0x00003d4b       0x2d /cygdrive/c/OpenAT/Plug-ins/WIP/5.10.2020/WIP/gcc_wmwip_5.10.2020.lib(br_eth.o)
 .debug_pubnames
                0x00003d78       0x2c /cygdrive/c/OpenAT/Plug-ins/WIP/5.10.2020/WIP/gcc_wmwip_5.10.2020.lib(br_gen_close.o)
 .debug_pubnames
                0x00003da4       0x2d /cygdrive/c/OpenAT/Plug-ins/WIP/5.10.2020/WIP/gcc_wmwip_5.10.2020.lib(br_gen_getopt.o)
 .debug_pubnames
                0x00003dd1       0x2d /cygdrive/c/OpenAT/Plug-ins/WIP/5.10.2020/WIP/gcc_wmwip_5.10.2020.lib(br_gen_setopt.o)
 .debug_pubnames
                0x00003dfe       0x2b /cygdrive/c/OpenAT/Plug-ins/WIP/5.10.2020/WIP/gcc_wmwip_5.10.2020.lib(br_gen_stop.o)
 .debug_pubnames
                0x00003e29       0x2c /cygdrive/c/OpenAT/Plug-ins/WIP/5.10.2020/WIP/gcc_wmwip_5.10.2020.lib(br_gprs.o)
 .debug_pubnames
                0x00003e55       0x2b /cygdrive/c/OpenAT/Plug-ins/WIP/5.10.2020/WIP/gcc_wmwip_5.10.2020.lib(br_gsm.o)
 .debug_pubnames
                0x00003e80       0x29 /cygdrive/c/OpenAT/Plug-ins/WIP/5.10.2020/WIP/gcc_wmwip_5.10.2020.lib(br_mgr_debug.o)
 .debug_pubnames
                0x00003ea9       0x2d /cygdrive/c/OpenAT/Plug-ins/WIP/5.10.2020/WIP/gcc_wmwip_5.10.2020.lib(br_ppp_getopt.o)
 .debug_pubnames
                0x00003ed6       0x2b /cygdrive/c/OpenAT/Plug-ins/WIP/5.10.2020/WIP/gcc_wmwip_5.10.2020.lib(br_ppp_init.o)
 .debug_pubnames
                0x00003f01       0x2d /cygdrive/c/OpenAT/Plug-ins/WIP/5.10.2020/WIP/gcc_wmwip_5.10.2020.lib(br_ppp_setopt.o)
 .debug_pubnames
                0x00003f2e       0x2c /cygdrive/c/OpenAT/Plug-ins/WIP/5.10.2020/WIP/gcc_wmwip_5.10.2020.lib(br_ppp_start.o)
 .debug_pubnames
                0x00003f5a       0x2b /cygdrive/c/OpenAT/Plug-ins/WIP/5.10.2020/WIP/gcc_wmwip_5.10.2020.lib(br_ppp_stop.o)
 .debug_pubnames
                0x00003f85       0x70 /cygdrive/c/OpenAT/Plug-ins/WIP/5.10.2020/WIP/gcc_wmwip_5.10.2020.lib(ch_class.o)
 .debug_pubnames
                0x00003ff5       0x46 /cygdrive/c/OpenAT/Plug-ins/WIP/5.10.2020/WIP/gcc_wmwip_5.10.2020.lib(ch_tcp_server.o)
 .debug_pubnames
                0x0000403b       0x2f /usr/local/OAT/lib/gcc/arm-elf/4.3.2/../../../../arm-elf/lib/interwork/libc.a(lib_a-asprintf.o)
 .debug_pubnames
                0x0000406a       0x27 /usr/local/OAT/lib/gcc/arm-elf/4.3.2/../../../../arm-elf/lib/interwork/libc.a(lib_a-atoi.o)
 .debug_pubnames
                0x00004091       0x2e /usr/local/OAT/lib/gcc/arm-elf/4.3.2/../../../../arm-elf/lib/interwork/libc.a(lib_a-ctype_.o)
 .debug_pubnames
                0x000040bf       0x1e /usr/local/OAT/lib/gcc/arm-elf/4.3.2/../../../../arm-elf/lib/interwork/libc.a(lib_a-errno.o)
 .debug_pubnames
                0x000040dd       0x39 /usr/local/OAT/lib/gcc/arm-elf/4.3.2/../../../../arm-elf/lib/interwork/libc.a(lib_a-impure.o)
 .debug_pubnames
                0x00004116       0xc3 /usr/local/OAT/lib/gcc/arm-elf/4.3.2/../../../../arm-elf/lib/interwork/libc.a(lib_a-locale.o)
 .debug_pubnames
                0x000041d9       0x26 /usr/local/OAT/lib/gcc/arm-elf/4.3.2/../../../../arm-elf/lib/interwork/libc.a(lib_a-malloc.o)
 .debug_pubnames
                0x000041ff       0xce /usr/local/OAT/lib/gcc/arm-elf/4.3.2/../../../../arm-elf/lib/interwork/libc.a(lib_a-mallocr.o)
 .debug_pubnames
                0x000042cd       0x1d /usr/local/OAT/lib/gcc/arm-elf/4.3.2/../../../../arm-elf/lib/interwork/libc.a(lib_a-memcmp.o)
 .debug_pubnames
                0x000042ea       0x1d /usr/local/OAT/lib/gcc/arm-elf/4.3.2/../../../../arm-elf/lib/interwork/libc.a(lib_a-memcpy.o)
 .debug_pubnames
                0x00004307       0x1d /usr/local/OAT/lib/gcc/arm-elf/4.3.2/../../../../arm-elf/lib/interwork/libc.a(lib_a-memset.o)
 .debug_pubnames
                0x00004324       0x38 /usr/local/OAT/lib/gcc/arm-elf/4.3.2/../../../../arm-elf/lib/interwork/libc.a(lib_a-mlock.o)
 .debug_pubnames
                0x0000435c       0x2b /usr/local/OAT/lib/gcc/arm-elf/4.3.2/../../../../arm-elf/lib/interwork/libc.a(lib_a-printf.o)
 .debug_pubnames
                0x00004387       0x1e /usr/local/OAT/lib/gcc/arm-elf/4.3.2/../../../../arm-elf/lib/interwork/libc.a(lib_a-realloc.o)
 .debug_pubnames
                0x000043a5       0x21 /usr/local/OAT/lib/gcc/arm-elf/4.3.2/../../../../arm-elf/lib/interwork/libc.a(lib_a-reallocr.o)
 .debug_pubnames
                0x000043c6       0x1e /usr/local/OAT/lib/gcc/arm-elf/4.3.2/../../../../arm-elf/lib/interwork/libc.a(lib_a-sbrkr.o)
 .debug_pubnames
                0x000043e4       0x2d /usr/local/OAT/lib/gcc/arm-elf/4.3.2/../../../../arm-elf/lib/interwork/libc.a(lib_a-sprintf.o)
 .debug_pubnames
                0x00004411       0x2b /usr/local/OAT/lib/gcc/arm-elf/4.3.2/../../../../arm-elf/lib/interwork/libc.a(lib_a-sscanf.o)
 .debug_pubnames
                0x0000443c       0x1d /usr/local/OAT/lib/gcc/arm-elf/4.3.2/../../../../arm-elf/lib/interwork/libc.a(lib_a-strcat.o)
 .debug_pubnames
                0x00004459       0x1d /usr/local/OAT/lib/gcc/arm-elf/4.3.2/../../../../arm-elf/lib/interwork/libc.a(lib_a-strchr.o)
 .debug_pubnames
                0x00004476       0x1d /usr/local/OAT/lib/gcc/arm-elf/4.3.2/../../../../arm-elf/lib/interwork/libc.a(lib_a-strcmp.o)
 .debug_pubnames
                0x00004493       0x1d /usr/local/OAT/lib/gcc/arm-elf/4.3.2/../../../../arm-elf/lib/interwork/libc.a(lib_a-strcpy.o)
 .debug_pubnames
                0x000044b0       0x1d /usr/local/OAT/lib/gcc/arm-elf/4.3.2/../../../../arm-elf/lib/interwork/libc.a(lib_a-strdup.o)
 .debug_pubnames
                0x000044cd       0x20 /usr/local/OAT/lib/gcc/arm-elf/4.3.2/../../../../arm-elf/lib/interwork/libc.a(lib_a-strdup_r.o)
 .debug_pubnames
                0x000044ed       0x1d /usr/local/OAT/lib/gcc/arm-elf/4.3.2/../../../../arm-elf/lib/interwork/libc.a(lib_a-strlen.o)
 .debug_pubnames
                0x0000450a       0x1e /usr/local/OAT/lib/gcc/arm-elf/4.3.2/../../../../arm-elf/lib/interwork/libc.a(lib_a-strncat.o)
 .debug_pubnames
                0x00004528       0x1e /usr/local/OAT/lib/gcc/arm-elf/4.3.2/../../../../arm-elf/lib/interwork/libc.a(lib_a-strncmp.o)
 .debug_pubnames
                0x00004546       0x1e /usr/local/OAT/lib/gcc/arm-elf/4.3.2/../../../../arm-elf/lib/interwork/libc.a(lib_a-strncpy.o)
 .debug_pubnames
                0x00004564       0x1d /usr/local/OAT/lib/gcc/arm-elf/4.3.2/../../../../arm-elf/lib/interwork/libc.a(lib_a-strsep.o)
 .debug_pubnames
                0x00004581       0x1d /usr/local/OAT/lib/gcc/arm-elf/4.3.2/../../../../arm-elf/lib/interwork/libc.a(lib_a-strstr.o)
 .debug_pubnames
                0x0000459e       0x1d /usr/local/OAT/lib/gcc/arm-elf/4.3.2/../../../../arm-elf/lib/interwork/libc.a(lib_a-strtok.o)
 .debug_pubnames
                0x000045bb       0x2e /usr/local/OAT/lib/gcc/arm-elf/4.3.2/../../../../arm-elf/lib/interwork/libc.a(lib_a-strtok_r.o)
 .debug_pubnames
                0x000045e9       0x2b /usr/local/OAT/lib/gcc/arm-elf/4.3.2/../../../../arm-elf/lib/interwork/libc.a(lib_a-strtol.o)
 .debug_pubnames
                0x00004614      0x158 /usr/local/OAT/lib/gcc/arm-elf/4.3.2/../../../../arm-elf/lib/interwork/libc.a(lib_a-syscalls.o)
 .debug_pubnames
                0x0000476c       0x1c /usr/local/OAT/lib/gcc/arm-elf/4.3.2/../../../../arm-elf/lib/interwork/libc.a(lib_a-syswrite.o)
 .debug_pubnames
                0x00004788       0x31 /usr/local/OAT/lib/gcc/arm-elf/4.3.2/../../../../arm-elf/lib/interwork/libc.a(lib_a-vasprintf.o)
 .debug_pubnames
                0x000047b9       0x2f /usr/local/OAT/lib/gcc/arm-elf/4.3.2/../../../../arm-elf/lib/interwork/libc.a(lib_a-vfprintf.o)
 .debug_pubnames
                0x000047e8       0x4d /usr/local/OAT/lib/gcc/arm-elf/4.3.2/../../../../arm-elf/lib/interwork/libc.a(lib_a-vfscanf.o)
 .debug_pubnames
                0x00004835       0x2f /usr/local/OAT/lib/gcc/arm-elf/4.3.2/../../../../arm-elf/lib/interwork/libc.a(lib_a-vsprintf.o)
 .debug_pubnames
                0x00004864       0x22 /usr/local/OAT/lib/gcc/arm-elf/4.3.2/../../../../arm-elf/lib/interwork/libc.a(lib_a-wsetup.o)
 .debug_pubnames
                0x00004886       0x20 /usr/local/OAT/lib/gcc/arm-elf/4.3.2/../../../../arm-elf/lib/interwork/libc.a(lib_a-OAT_close.o)
 .debug_pubnames
                0x000048a6       0x20 /usr/local/OAT/lib/gcc/arm-elf/4.3.2/../../../../arm-elf/lib/interwork/libc.a(lib_a-OAT_fstat.o)
 .debug_pubnames
                0x000048c6       0x21 /usr/local/OAT/lib/gcc/arm-elf/4.3.2/../../../../arm-elf/lib/interwork/libc.a(lib_a-OAT_isatty.o)
 .debug_pubnames
                0x000048e7       0x1f /usr/local/OAT/lib/gcc/arm-elf/4.3.2/../../../../arm-elf/lib/interwork/libc.a(lib_a-OAT_kill.o)
 .debug_pubnames
                0x00004906       0x20 /usr/local/OAT/lib/gcc/arm-elf/4.3.2/../../../../arm-elf/lib/interwork/libc.a(lib_a-OAT_lseek.o)
 .debug_pubnames
                0x00004926       0x1f /usr/local/OAT/lib/gcc/arm-elf/4.3.2/../../../../arm-elf/lib/interwork/libc.a(lib_a-OAT_open.o)
 .debug_pubnames
                0x00004945       0x1f /usr/local/OAT/lib/gcc/arm-elf/4.3.2/../../../../arm-elf/lib/interwork/libc.a(lib_a-OAT_read.o)
 .debug_pubnames
                0x00004964       0x20 /usr/local/OAT/lib/gcc/arm-elf/4.3.2/../../../../arm-elf/lib/interwork/libc.a(lib_a-OAT_write.o)
 .debug_pubnames
                0x00004984       0x1e /usr/local/OAT/lib/gcc/arm-elf/4.3.2/../../../../arm-elf/lib/interwork/libc.a(lib_a-dtoa.o)
 .debug_pubnames
                0x000049a2       0x2b /usr/local/OAT/lib/gcc/arm-elf/4.3.2/../../../../arm-elf/lib/interwork/libc.a(lib_a-fflush.o)
 .debug_pubnames
                0x000049cd       0xdb /usr/local/OAT/lib/gcc/arm-elf/4.3.2/../../../../arm-elf/lib/interwork/libc.a(lib_a-findfp.o)
 .debug_pubnames
                0x00004aa8       0x29 /usr/local/OAT/lib/gcc/arm-elf/4.3.2/../../../../arm-elf/lib/interwork/libc.a(lib_a-fread.o)
 .debug_pubnames
                0x00004ad1       0x31 /usr/local/OAT/lib/gcc/arm-elf/4.3.2/../../../../arm-elf/lib/interwork/libc.a(lib_a-freer.o)
 .debug_pubnames
                0x00004b02       0x23 /usr/local/OAT/lib/gcc/arm-elf/4.3.2/../../../../arm-elf/lib/interwork/libc.a(lib_a-fvwrite.o)
 .debug_pubnames
                0x00004b25       0x2e /usr/local/OAT/lib/gcc/arm-elf/4.3.2/../../../../arm-elf/lib/interwork/libc.a(lib_a-fwalk.o)
 .debug_pubnames
                0x00004b53       0x1f /usr/local/OAT/lib/gcc/arm-elf/4.3.2/../../../../arm-elf/lib/interwork/libc.a(lib_a-iswspace.o)
 .debug_pubnames
                0x00004b72       0x23 /usr/local/OAT/lib/gcc/arm-elf/4.3.2/../../../../arm-elf/lib/interwork/libc.a(lib_a-makebuf.o)
 .debug_pubnames
                0x00004b95       0x2d /usr/local/OAT/lib/gcc/arm-elf/4.3.2/../../../../arm-elf/lib/interwork/libc.a(lib_a-mbrtowc.o)
 .debug_pubnames
                0x00004bc2       0x20 /usr/local/OAT/lib/gcc/arm-elf/4.3.2/../../../../arm-elf/lib/interwork/libc.a(lib_a-mbtowc_r.o)
 .debug_pubnames
                0x00004be2       0x1d /usr/local/OAT/lib/gcc/arm-elf/4.3.2/../../../../arm-elf/lib/interwork/libc.a(lib_a-memchr.o)
 .debug_pubnames
                0x00004bff       0x1e /usr/local/OAT/lib/gcc/arm-elf/4.3.2/../../../../arm-elf/lib/interwork/libc.a(lib_a-memmove.o)
 .debug_pubnames
                0x00004c1d      0x13a /usr/local/OAT/lib/gcc/arm-elf/4.3.2/../../../../arm-elf/lib/interwork/libc.a(lib_a-mprec.o)
 .debug_pubnames
                0x00004d57       0x52 /usr/local/OAT/lib/gcc/arm-elf/4.3.2/../../../../arm-elf/lib/interwork/libc.a(lib_a-reent.o)
 .debug_pubnames
                0x00004da9       0x22 /usr/local/OAT/lib/gcc/arm-elf/4.3.2/../../../../arm-elf/lib/interwork/libc.a(lib_a-refill.o)
 .debug_pubnames
                0x00004dcb       0x1f /usr/local/OAT/lib/gcc/arm-elf/4.3.2/../../../../arm-elf/lib/interwork/libc.a(lib_a-s_isinfd.o)
 .debug_pubnames
                0x00004dea       0x1d /usr/local/OAT/lib/gcc/arm-elf/4.3.2/../../../../arm-elf/lib/interwork/libc.a(lib_a-sccl.o)
 .debug_pubnames
                0x00004e07       0x1b /usr/local/OAT/lib/gcc/arm-elf/4.3.2/../../../../arm-elf/lib/interwork/libc.a(lib_a-sf_nan.o)
 .debug_pubnames
                0x00004e22       0x44 /usr/local/OAT/lib/gcc/arm-elf/4.3.2/../../../../arm-elf/lib/interwork/libc.a(lib_a-stdio.o)
 .debug_pubnames
                0x00004e66       0x36 /usr/local/OAT/lib/gcc/arm-elf/4.3.2/../../../../arm-elf/lib/interwork/libc.a(lib_a-strtod.o)
 .debug_pubnames
                0x00004e9c       0x2d /usr/local/OAT/lib/gcc/arm-elf/4.3.2/../../../../arm-elf/lib/interwork/libc.a(lib_a-strtoul.o)
 .debug_pubnames
                0x00004ec9       0x39 /usr/local/OAT/lib/gcc/arm-elf/4.3.2/../../../../arm-elf/lib/interwork/libc.a(lib_a-ungetc.o)
 .debug_pubnames
                0x00004f02       0x1f /usr/local/OAT/lib/gcc/arm-elf/4.3.2/../../../../arm-elf/lib/interwork/libc.a(lib_a-writer.o)
 .debug_pubnames
                0x00004f21       0x20 /usr/local/OAT/lib/gcc/arm-elf/4.3.2/../../../../arm-elf/lib/interwork/libc.a(lib_a-callocr.o)
 .debug_pubnames
                0x00004f41       0x1f /usr/local/OAT/lib/gcc/arm-elf/4.3.2/../../../../arm-elf/lib/interwork/libc.a(lib_a-closer.o)
 .debug_pubnames
                0x00004f60       0x2b /usr/local/OAT/lib/gcc/arm-elf/4.3.2/../../../../arm-elf/lib/interwork/libc.a(lib_a-fclose.o)
 .debug_pubnames
                0x00004f8b       0x1f /usr/local/OAT/lib/gcc/arm-elf/4.3.2/../../../../arm-elf/lib/interwork/libc.a(lib_a-fstatr.o)
 .debug_pubnames
                0x00004faa       0x3e /usr/local/OAT/lib/gcc/arm-elf/4.3.2/../../../../arm-elf/lib/interwork/libc.a(lib_a-gdtoa-gethex.o)
 .debug_pubnames
                0x00004fe8       0x1f /usr/local/OAT/lib/gcc/arm-elf/4.3.2/../../../../arm-elf/lib/interwork/libc.a(lib_a-gdtoa-hexnan.o)
 .debug_pubnames
                0x00005007       0x1f /usr/local/OAT/lib/gcc/arm-elf/4.3.2/../../../../arm-elf/lib/interwork/libc.a(lib_a-lseekr.o)
 .debug_pubnames
                0x00005026       0x1e /usr/local/OAT/lib/gcc/arm-elf/4.3.2/../../../../arm-elf/lib/interwork/libc.a(lib_a-readr.o)

.debug_aranges  0x00000000     0x1840
 .debug_aranges
                0x00000000       0x20 /usr/local/OAT/lib/gcc/arm-elf/4.3.2/../../../../arm-elf/lib/interwork/libm.a(lib_a-s_cos.o)
 .debug_aranges
                0x00000020       0x20 /usr/local/OAT/lib/gcc/arm-elf/4.3.2/../../../../arm-elf/lib/interwork/libm.a(lib_a-s_sin.o)
 .debug_aranges
                0x00000040       0x20 /usr/local/OAT/lib/gcc/arm-elf/4.3.2/../../../../arm-elf/lib/interwork/libm.a(lib_a-w_atan2.o)
 .debug_aranges
                0x00000060       0x20 /usr/local/OAT/lib/gcc/arm-elf/4.3.2/../../../../arm-elf/lib/interwork/libm.a(lib_a-w_sqrt.o)
 .debug_aranges
                0x00000080       0x20 /usr/local/OAT/lib/gcc/arm-elf/4.3.2/../../../../arm-elf/lib/interwork/libm.a(lib_a-e_atan2.o)
 .debug_aranges
                0x000000a0       0x20 /usr/local/OAT/lib/gcc/arm-elf/4.3.2/../../../../arm-elf/lib/interwork/libm.a(lib_a-e_rem_pio2.o)
 .debug_aranges
                0x000000c0       0x20 /usr/local/OAT/lib/gcc/arm-elf/4.3.2/../../../../arm-elf/lib/interwork/libm.a(lib_a-e_sqrt.o)
 .debug_aranges
                0x000000e0       0x20 /usr/local/OAT/lib/gcc/arm-elf/4.3.2/../../../../arm-elf/lib/interwork/libm.a(lib_a-k_cos.o)
 .debug_aranges
                0x00000100       0x20 /usr/local/OAT/lib/gcc/arm-elf/4.3.2/../../../../arm-elf/lib/interwork/libm.a(lib_a-k_rem_pio2.o)
 .debug_aranges
                0x00000120       0x20 /usr/local/OAT/lib/gcc/arm-elf/4.3.2/../../../../arm-elf/lib/interwork/libm.a(lib_a-k_sin.o)
 .debug_aranges
                0x00000140       0x20 /usr/local/OAT/lib/gcc/arm-elf/4.3.2/../../../../arm-elf/lib/interwork/libm.a(lib_a-s_atan.o)
 .debug_aranges
                0x00000160       0x20 /usr/local/OAT/lib/gcc/arm-elf/4.3.2/../../../../arm-elf/lib/interwork/libm.a(lib_a-s_fabs.o)
 .debug_aranges
                0x00000180       0x20 /usr/local/OAT/lib/gcc/arm-elf/4.3.2/../../../../arm-elf/lib/interwork/libm.a(lib_a-s_floor.o)
 .debug_aranges
                0x000001a0       0x20 /usr/local/OAT/lib/gcc/arm-elf/4.3.2/../../../../arm-elf/lib/interwork/libm.a(lib_a-s_isnand.o)
 .debug_aranges
                0x000001c0       0x20 /usr/local/OAT/lib/gcc/arm-elf/4.3.2/../../../../arm-elf/lib/interwork/libm.a(lib_a-s_matherr.o)
 .debug_aranges
                0x000001e0       0x20 /usr/local/OAT/lib/gcc/arm-elf/4.3.2/../../../../arm-elf/lib/interwork/libm.a(lib_a-s_scalbn.o)
 .debug_aranges
                0x00000200       0x20 /usr/local/OAT/lib/gcc/arm-elf/4.3.2/../../../../arm-elf/lib/interwork/libm.a(lib_a-s_copysign.o)
 .debug_aranges
                0x00000220       0x20 mos_header.o
 .debug_aranges
                0x00000240       0x20 /cygdrive/c/OpenAT/OS/6.21.02/ADL/gcc_wmadl_6.21.02.0.0.lib(mos_ftr.o)
 .debug_aranges
                0x00000260       0x20 /cygdrive/c/OpenAT/OS/6.21.02/ADL/gcc_wmadl_6.21.02.0.0.lib(opec_lst.o)
 .debug_aranges
                0x00000280       0x20 /cygdrive/c/OpenAT/OS/6.21.02/ADL/gcc_wmadl_6.21.02.0.0.lib(opec_std.o)
 .debug_aranges
                0x000002a0       0x20 /cygdrive/c/OpenAT/OS/6.21.02/ADL/gcc_wmadl_6.21.02.0.0.lib(adl_ad.o)
 .debug_aranges
                0x000002c0       0x20 /cygdrive/c/OpenAT/OS/6.21.02/ADL/gcc_wmadl_6.21.02.0.0.lib(adl_adc.o)
 .debug_aranges
                0x000002e0       0x20 /cygdrive/c/OpenAT/OS/6.21.02/ADL/gcc_wmadl_6.21.02.0.0.lib(adl_AppliInit.o)
 .debug_aranges
                0x00000300       0x20 /cygdrive/c/OpenAT/OS/6.21.02/ADL/gcc_wmadl_6.21.02.0.0.lib(adl_audio.o)
 .debug_aranges
                0x00000320       0x20 /cygdrive/c/OpenAT/OS/6.21.02/ADL/gcc_wmadl_6.21.02.0.0.lib(adl_bus.o)
 .debug_aranges
                0x00000340       0x20 /cygdrive/c/OpenAT/OS/6.21.02/ADL/gcc_wmadl_6.21.02.0.0.lib(adl_call.o)
 .debug_aranges
                0x00000360       0x20 /cygdrive/c/OpenAT/OS/6.21.02/ADL/gcc_wmadl_6.21.02.0.0.lib(adl_CmdHandler.o)
 .debug_aranges
                0x00000380       0x20 /cygdrive/c/OpenAT/OS/6.21.02/ADL/gcc_wmadl_6.21.02.0.0.lib(adl_CmdProcessor.o)
 .debug_aranges
                0x000003a0       0x20 /cygdrive/c/OpenAT/OS/6.21.02/ADL/gcc_wmadl_6.21.02.0.0.lib(adl_CmdStackHandler.o)
 .debug_aranges
                0x000003c0       0x20 /cygdrive/c/OpenAT/OS/6.21.02/ADL/gcc_wmadl_6.21.02.0.0.lib(adl_ctx.o)
 .debug_aranges
                0x000003e0       0x20 /cygdrive/c/OpenAT/OS/6.21.02/ADL/gcc_wmadl_6.21.02.0.0.lib(adl_error.o)
 .debug_aranges
                0x00000400       0x20 /cygdrive/c/OpenAT/OS/6.21.02/ADL/gcc_wmadl_6.21.02.0.0.lib(adl_EventMachine.o)
 .debug_aranges
                0x00000420       0x20 /cygdrive/c/OpenAT/OS/6.21.02/ADL/gcc_wmadl_6.21.02.0.0.lib(adl_extint.o)
 .debug_aranges
                0x00000440       0x20 /cygdrive/c/OpenAT/OS/6.21.02/ADL/gcc_wmadl_6.21.02.0.0.lib(adl_extint_deprecated.o)
 .debug_aranges
                0x00000460       0x20 /cygdrive/c/OpenAT/OS/6.21.02/ADL/gcc_wmadl_6.21.02.0.0.lib(adl_fcm.o)
 .debug_aranges
                0x00000480       0x20 /cygdrive/c/OpenAT/OS/6.21.02/ADL/gcc_wmadl_6.21.02.0.0.lib(adl_flash.o)
 .debug_aranges
                0x000004a0       0x20 /cygdrive/c/OpenAT/OS/6.21.02/ADL/gcc_wmadl_6.21.02.0.0.lib(adl_gpio.o)
 .debug_aranges
                0x000004c0       0x20 /cygdrive/c/OpenAT/OS/6.21.02/ADL/gcc_wmadl_6.21.02.0.0.lib(adl_gprs.o)
 .debug_aranges
                0x000004e0       0x20 /cygdrive/c/OpenAT/OS/6.21.02/ADL/gcc_wmadl_6.21.02.0.0.lib(adl_irq.o)
 .debug_aranges
                0x00000500       0x20 /cygdrive/c/OpenAT/OS/6.21.02/ADL/gcc_wmadl_6.21.02.0.0.lib(adl_memory.o)
 .debug_aranges
                0x00000520       0x20 /cygdrive/c/OpenAT/OS/6.21.02/ADL/gcc_wmadl_6.21.02.0.0.lib(adl_msg.o)
 .debug_aranges
                0x00000540       0x20 /cygdrive/c/OpenAT/OS/6.21.02/ADL/gcc_wmadl_6.21.02.0.0.lib(adl_port.o)
 .debug_aranges
                0x00000560       0x20 /cygdrive/c/OpenAT/OS/6.21.02/ADL/gcc_wmadl_6.21.02.0.0.lib(adl_reg.o)
 .debug_aranges
                0x00000580       0x20 /cygdrive/c/OpenAT/OS/6.21.02/ADL/gcc_wmadl_6.21.02.0.0.lib(adl_RspHandler.o)
 .debug_aranges
                0x000005a0       0x20 /cygdrive/c/OpenAT/OS/6.21.02/ADL/gcc_wmadl_6.21.02.0.0.lib(adl_rtc.o)
 .debug_aranges
                0x000005c0       0x20 /cygdrive/c/OpenAT/OS/6.21.02/ADL/gcc_wmadl_6.21.02.0.0.lib(adl_sem.o)
 .debug_aranges
                0x000005e0       0x20 /cygdrive/c/OpenAT/OS/6.21.02/ADL/gcc_wmadl_6.21.02.0.0.lib(adl_serv.o)
 .debug_aranges
                0x00000600       0x20 /cygdrive/c/OpenAT/OS/6.21.02/ADL/gcc_wmadl_6.21.02.0.0.lib(adl_sim.o)
 .debug_aranges
                0x00000620       0x20 /cygdrive/c/OpenAT/OS/6.21.02/ADL/gcc_wmadl_6.21.02.0.0.lib(adl_sms.o)
 .debug_aranges
                0x00000640       0x20 /cygdrive/c/OpenAT/OS/6.21.02/ADL/gcc_wmadl_6.21.02.0.0.lib(adl_str.o)
 .debug_aranges
                0x00000660       0x20 /cygdrive/c/OpenAT/OS/6.21.02/ADL/gcc_wmadl_6.21.02.0.0.lib(adl_TimerHandler.o)
 .debug_aranges
                0x00000680       0x20 /cygdrive/c/OpenAT/OS/6.21.02/ADL/gcc_wmadl_6.21.02.0.0.lib(adl_traces.o)
 .debug_aranges
                0x000006a0       0x20 /cygdrive/c/OpenAT/OS/6.21.02/ADL/gcc_wmadl_6.21.02.0.0.lib(adl_UnSoHandler.o)
 .debug_aranges
                0x000006c0       0x20 /cygdrive/c/OpenAT/OS/6.21.02/ADL/gcc_wmadl_6.21.02.0.0.lib(adl_wd.o)
 .debug_aranges
                0x000006e0       0x20 /cygdrive/c/OpenAT/Plug-ins/WIP/5.10.2020/WIP/gcc_wmwip_5.10.2020.lib(br_close.o)
 .debug_aranges
                0x00000700       0x20 /cygdrive/c/OpenAT/Plug-ins/WIP/5.10.2020/WIP/gcc_wmwip_5.10.2020.lib(br_getopts.o)
 .debug_aranges
                0x00000720       0x20 /cygdrive/c/OpenAT/Plug-ins/WIP/5.10.2020/WIP/gcc_wmwip_5.10.2020.lib(br_mgr_init.o)
 .debug_aranges
                0x00000740       0x20 /cygdrive/c/OpenAT/Plug-ins/WIP/5.10.2020/WIP/gcc_wmwip_5.10.2020.lib(br_open.o)
 .debug_aranges
                0x00000760       0x20 /cygdrive/c/OpenAT/Plug-ins/WIP/5.10.2020/WIP/gcc_wmwip_5.10.2020.lib(br_setopts.o)
 .debug_aranges
                0x00000780       0x20 /cygdrive/c/OpenAT/Plug-ins/WIP/5.10.2020/WIP/gcc_wmwip_5.10.2020.lib(br_start.o)
 .debug_aranges
                0x000007a0       0x20 /cygdrive/c/OpenAT/Plug-ins/WIP/5.10.2020/WIP/gcc_wmwip_5.10.2020.lib(br_v24.o)
 .debug_aranges
                0x000007c0       0x20 /cygdrive/c/OpenAT/Plug-ins/WIP/5.10.2020/WIP/gcc_wmwip_5.10.2020.lib(ch_channel.o)
 .debug_aranges
                0x000007e0       0x20 /cygdrive/c/OpenAT/Plug-ins/WIP/5.10.2020/WIP/gcc_wmwip_5.10.2020.lib(ch_tcp_client.o)
 .debug_aranges
                0x00000800       0x20 /cygdrive/c/OpenAT/Plug-ins/WIP/5.10.2020/WIP/gcc_wmwip_5.10.2020.lib(ch_udp.o)
 .debug_aranges
                0x00000820       0x20 /cygdrive/c/OpenAT/Plug-ins/WIP/5.10.2020/WIP/gcc_wmwip_5.10.2020.lib(file.o)
 .debug_aranges
                0x00000840       0x20 /cygdrive/c/OpenAT/Plug-ins/WIP/5.10.2020/WIP/gcc_wmwip_5.10.2020.lib(ftp.o)
 .debug_aranges
                0x00000860       0x20 /cygdrive/c/OpenAT/Plug-ins/WIP/5.10.2020/WIP/gcc_wmwip_5.10.2020.lib(ftp_evh.o)
 .debug_aranges
                0x00000880       0x20 /cygdrive/c/OpenAT/Plug-ins/WIP/5.10.2020/WIP/gcc_wmwip_5.10.2020.lib(ftp_list.o)
 .debug_aranges
                0x000008a0       0x20 /cygdrive/c/OpenAT/Plug-ins/WIP/5.10.2020/WIP/gcc_wmwip_5.10.2020.lib(ftr.o)
 .debug_aranges
                0x000008c0       0x20 /cygdrive/c/OpenAT/Plug-ins/WIP/5.10.2020/WIP/gcc_wmwip_5.10.2020.lib(in_aton.o)
 .debug_aranges
                0x000008e0       0x20 /cygdrive/c/OpenAT/Plug-ins/WIP/5.10.2020/WIP/gcc_wmwip_5.10.2020.lib(in_ntoa.o)
 .debug_aranges
                0x00000900       0x20 /cygdrive/c/OpenAT/Plug-ins/WIP/5.10.2020/WIP/gcc_wmwip_5.10.2020.lib(list_plugin_unix.o)
 .debug_aranges
                0x00000920       0x20 /cygdrive/c/OpenAT/Plug-ins/WIP/5.10.2020/WIP/gcc_wmwip_5.10.2020.lib(net_debug.o)
 .debug_aranges
                0x00000940       0x20 /cygdrive/c/OpenAT/Plug-ins/WIP/5.10.2020/WIP/gcc_wmwip_5.10.2020.lib(net_init.o)
 .debug_aranges
                0x00000960       0x20 /cygdrive/c/OpenAT/Plug-ins/WIP/5.10.2020/WIP/gcc_wmwip_5.10.2020.lib(net_initopts.o)
 .debug_aranges
                0x00000980       0x20 /cygdrive/c/OpenAT/Plug-ins/WIP/5.10.2020/WIP/gcc_wmwip_5.10.2020.lib(net_setopts.o)
 .debug_aranges
                0x000009a0       0x20 /cygdrive/c/OpenAT/Plug-ins/WIP/5.10.2020/WIP/gcc_wmwip_5.10.2020.lib(net_sync.o)
 .debug_aranges
                0x000009c0       0x20 /cygdrive/c/OpenAT/Plug-ins/WIP/5.10.2020/WIP/gcc_wmwip_5.10.2020.lib(queue.o)
 .debug_aranges
                0x000009e0       0x20 /cygdrive/c/OpenAT/Plug-ins/WIP/5.10.2020/WIP/gcc_wmwip_5.10.2020.lib(readline.o)
 .debug_aranges
                0x00000a00       0x20 /cygdrive/c/OpenAT/Plug-ins/WIP/5.10.2020/WIP/gcc_wmwip_5.10.2020.lib(wip_subLevelOpts.o)
 .debug_aranges
                0x00000a20       0x20 /cygdrive/c/OpenAT/Plug-ins/WIP/5.10.2020/WIP/gcc_wmwip_5.10.2020.lib(wrapper.o)
 .debug_aranges
                0x00000a40       0x20 /cygdrive/c/OpenAT/Plug-ins/WIP/5.10.2020/WIP/gcc_wmwip_5.10.2020.lib(wm_net_hton.o)
 .debug_aranges
                0x00000a60       0x20 /cygdrive/c/OpenAT/Plug-ins/WIP/5.10.2020/WIP/gcc_wmwip_5.10.2020.lib(wm_net_in_aton.o)
 .debug_aranges
                0x00000a80       0x20 /cygdrive/c/OpenAT/Plug-ins/WIP/5.10.2020/WIP/gcc_wmwip_5.10.2020.lib(wm_net_in_ntoa.o)
 .debug_aranges
                0x00000aa0       0x20 /cygdrive/c/OpenAT/Plug-ins/WIP/5.10.2020/WIP/gcc_wmwip_5.10.2020.lib(wm_net_wrapper.o)
 .debug_aranges
                0x00000ac0       0x20 /cygdrive/c/OpenAT/Plug-ins/WIP/5.10.2020/WIP/gcc_wmwip_5.10.2020.lib(rawprint.o)
 .debug_aranges
                0x00000ae0       0x20 /cygdrive/c/OpenAT/Plug-ins/WIP/5.10.2020/WIP/gcc_wmwip_5.10.2020.lib(br_eth.o)
 .debug_aranges
                0x00000b00       0x20 /cygdrive/c/OpenAT/Plug-ins/WIP/5.10.2020/WIP/gcc_wmwip_5.10.2020.lib(br_gen_close.o)
 .debug_aranges
                0x00000b20       0x20 /cygdrive/c/OpenAT/Plug-ins/WIP/5.10.2020/WIP/gcc_wmwip_5.10.2020.lib(br_gen_getopt.o)
 .debug_aranges
                0x00000b40       0x20 /cygdrive/c/OpenAT/Plug-ins/WIP/5.10.2020/WIP/gcc_wmwip_5.10.2020.lib(br_gen_setopt.o)
 .debug_aranges
                0x00000b60       0x20 /cygdrive/c/OpenAT/Plug-ins/WIP/5.10.2020/WIP/gcc_wmwip_5.10.2020.lib(br_gen_stop.o)
 .debug_aranges
                0x00000b80       0x20 /cygdrive/c/OpenAT/Plug-ins/WIP/5.10.2020/WIP/gcc_wmwip_5.10.2020.lib(br_gprs.o)
 .debug_aranges
                0x00000ba0       0x20 /cygdrive/c/OpenAT/Plug-ins/WIP/5.10.2020/WIP/gcc_wmwip_5.10.2020.lib(br_gsm.o)
 .debug_aranges
                0x00000bc0       0x20 /cygdrive/c/OpenAT/Plug-ins/WIP/5.10.2020/WIP/gcc_wmwip_5.10.2020.lib(br_mgr_debug.o)
 .debug_aranges
                0x00000be0       0x20 /cygdrive/c/OpenAT/Plug-ins/WIP/5.10.2020/WIP/gcc_wmwip_5.10.2020.lib(br_ppp_getopt.o)
 .debug_aranges
                0x00000c00       0x20 /cygdrive/c/OpenAT/Plug-ins/WIP/5.10.2020/WIP/gcc_wmwip_5.10.2020.lib(br_ppp_init.o)
 .debug_aranges
                0x00000c20       0x20 /cygdrive/c/OpenAT/Plug-ins/WIP/5.10.2020/WIP/gcc_wmwip_5.10.2020.lib(br_ppp_setopt.o)
 .debug_aranges
                0x00000c40       0x20 /cygdrive/c/OpenAT/Plug-ins/WIP/5.10.2020/WIP/gcc_wmwip_5.10.2020.lib(br_ppp_start.o)
 .debug_aranges
                0x00000c60       0x20 /cygdrive/c/OpenAT/Plug-ins/WIP/5.10.2020/WIP/gcc_wmwip_5.10.2020.lib(br_ppp_stop.o)
 .debug_aranges
                0x00000c80       0x20 /cygdrive/c/OpenAT/Plug-ins/WIP/5.10.2020/WIP/gcc_wmwip_5.10.2020.lib(ch_class.o)
 .debug_aranges
                0x00000ca0       0x20 /cygdrive/c/OpenAT/Plug-ins/WIP/5.10.2020/WIP/gcc_wmwip_5.10.2020.lib(ch_tcp_server.o)
 .debug_aranges
                0x00000cc0       0x20 /usr/local/OAT/lib/gcc/arm-elf/4.3.2/interwork/libgcc.a(_udivsi3.o)
 .debug_aranges
                0x00000ce0       0x20 /usr/local/OAT/lib/gcc/arm-elf/4.3.2/interwork/libgcc.a(_divsi3.o)
 .debug_aranges
                0x00000d00       0x20 /usr/local/OAT/lib/gcc/arm-elf/4.3.2/interwork/libgcc.a(_umodsi3.o)
 .debug_aranges
                0x00000d20       0x20 /usr/local/OAT/lib/gcc/arm-elf/4.3.2/interwork/libgcc.a(_dvmd_tls.o)
 .debug_aranges
                0x00000d40       0x20 /usr/local/OAT/lib/gcc/arm-elf/4.3.2/interwork/libgcc.a(_addsubdf3.o)
 .debug_aranges
                0x00000d60       0x20 /usr/local/OAT/lib/gcc/arm-elf/4.3.2/interwork/libgcc.a(_muldivdf3.o)
 .debug_aranges
                0x00000d80       0x20 /usr/local/OAT/lib/gcc/arm-elf/4.3.2/interwork/libgcc.a(_cmpdf2.o)
 .debug_aranges
                0x00000da0       0x20 /usr/local/OAT/lib/gcc/arm-elf/4.3.2/interwork/libgcc.a(_fixdfsi.o)
 .debug_aranges
                0x00000dc0       0x20 /usr/local/OAT/lib/gcc/arm-elf/4.3.2/interwork/libgcc.a(_fixunsdfsi.o)
 .debug_aranges
                0x00000de0       0x20 /usr/local/OAT/lib/gcc/arm-elf/4.3.2/interwork/libgcc.a(_addsubsf3.o)
 .debug_aranges
                0x00000e00       0x20 /usr/local/OAT/lib/gcc/arm-elf/4.3.2/interwork/libgcc.a(_muldivsf3.o)
 .debug_aranges
                0x00000e20       0x20 /usr/local/OAT/lib/gcc/arm-elf/4.3.2/interwork/libgcc.a(_cmpsf2.o)
 .debug_aranges
                0x00000e40       0x20 /usr/local/OAT/lib/gcc/arm-elf/4.3.2/interwork/libgcc.a(_fixunssfsi.o)
 .debug_aranges
                0x00000e60       0x20 /usr/local/OAT/lib/gcc/arm-elf/4.3.2/../../../../arm-elf/lib/interwork/libc.a(lib_a-asprintf.o)
 .debug_aranges
                0x00000e80       0x20 /usr/local/OAT/lib/gcc/arm-elf/4.3.2/../../../../arm-elf/lib/interwork/libc.a(lib_a-atoi.o)
 .debug_aranges
                0x00000ea0       0x20 /usr/local/OAT/lib/gcc/arm-elf/4.3.2/../../../../arm-elf/lib/interwork/libc.a(lib_a-errno.o)
 .debug_aranges
                0x00000ec0       0x20 /usr/local/OAT/lib/gcc/arm-elf/4.3.2/../../../../arm-elf/lib/interwork/libc.a(lib_a-locale.o)
 .debug_aranges
                0x00000ee0       0x20 /usr/local/OAT/lib/gcc/arm-elf/4.3.2/../../../../arm-elf/lib/interwork/libc.a(lib_a-malloc.o)
 .debug_aranges
                0x00000f00       0x20 /usr/local/OAT/lib/gcc/arm-elf/4.3.2/../../../../arm-elf/lib/interwork/libc.a(lib_a-mallocr.o)
 .debug_aranges
                0x00000f20       0x20 /usr/local/OAT/lib/gcc/arm-elf/4.3.2/../../../../arm-elf/lib/interwork/libc.a(lib_a-memcmp.o)
 .debug_aranges
                0x00000f40       0x20 /usr/local/OAT/lib/gcc/arm-elf/4.3.2/../../../../arm-elf/lib/interwork/libc.a(lib_a-memcpy.o)
 .debug_aranges
                0x00000f60       0x20 /usr/local/OAT/lib/gcc/arm-elf/4.3.2/../../../../arm-elf/lib/interwork/libc.a(lib_a-memset.o)
 .debug_aranges
                0x00000f80       0x20 /usr/local/OAT/lib/gcc/arm-elf/4.3.2/../../../../arm-elf/lib/interwork/libc.a(lib_a-mlock.o)
 .debug_aranges
                0x00000fa0       0x20 /usr/local/OAT/lib/gcc/arm-elf/4.3.2/../../../../arm-elf/lib/interwork/libc.a(lib_a-printf.o)
 .debug_aranges
                0x00000fc0       0x20 /usr/local/OAT/lib/gcc/arm-elf/4.3.2/../../../../arm-elf/lib/interwork/libc.a(lib_a-realloc.o)
 .debug_aranges
                0x00000fe0       0x20 /usr/local/OAT/lib/gcc/arm-elf/4.3.2/../../../../arm-elf/lib/interwork/libc.a(lib_a-reallocr.o)
 .debug_aranges
                0x00001000       0x20 /usr/local/OAT/lib/gcc/arm-elf/4.3.2/../../../../arm-elf/lib/interwork/libc.a(lib_a-sbrkr.o)
 .debug_aranges
                0x00001020       0x20 /usr/local/OAT/lib/gcc/arm-elf/4.3.2/../../../../arm-elf/lib/interwork/libc.a(lib_a-sprintf.o)
 .debug_aranges
                0x00001040       0x20 /usr/local/OAT/lib/gcc/arm-elf/4.3.2/../../../../arm-elf/lib/interwork/libc.a(lib_a-sscanf.o)
 .debug_aranges
                0x00001060       0x20 /usr/local/OAT/lib/gcc/arm-elf/4.3.2/../../../../arm-elf/lib/interwork/libc.a(lib_a-strcat.o)
 .debug_aranges
                0x00001080       0x20 /usr/local/OAT/lib/gcc/arm-elf/4.3.2/../../../../arm-elf/lib/interwork/libc.a(lib_a-strchr.o)
 .debug_aranges
                0x000010a0       0x20 /usr/local/OAT/lib/gcc/arm-elf/4.3.2/../../../../arm-elf/lib/interwork/libc.a(lib_a-strcmp.o)
 .debug_aranges
                0x000010c0       0x20 /usr/local/OAT/lib/gcc/arm-elf/4.3.2/../../../../arm-elf/lib/interwork/libc.a(lib_a-strcpy.o)
 .debug_aranges
                0x000010e0       0x20 /usr/local/OAT/lib/gcc/arm-elf/4.3.2/../../../../arm-elf/lib/interwork/libc.a(lib_a-strdup.o)
 .debug_aranges
                0x00001100       0x20 /usr/local/OAT/lib/gcc/arm-elf/4.3.2/../../../../arm-elf/lib/interwork/libc.a(lib_a-strdup_r.o)
 .debug_aranges
                0x00001120       0x20 /usr/local/OAT/lib/gcc/arm-elf/4.3.2/../../../../arm-elf/lib/interwork/libc.a(lib_a-strlen.o)
 .debug_aranges
                0x00001140       0x20 /usr/local/OAT/lib/gcc/arm-elf/4.3.2/../../../../arm-elf/lib/interwork/libc.a(lib_a-strncat.o)
 .debug_aranges
                0x00001160       0x20 /usr/local/OAT/lib/gcc/arm-elf/4.3.2/../../../../arm-elf/lib/interwork/libc.a(lib_a-strncmp.o)
 .debug_aranges
                0x00001180       0x20 /usr/local/OAT/lib/gcc/arm-elf/4.3.2/../../../../arm-elf/lib/interwork/libc.a(lib_a-strncpy.o)
 .debug_aranges
                0x000011a0       0x20 /usr/local/OAT/lib/gcc/arm-elf/4.3.2/../../../../arm-elf/lib/interwork/libc.a(lib_a-strsep.o)
 .debug_aranges
                0x000011c0       0x20 /usr/local/OAT/lib/gcc/arm-elf/4.3.2/../../../../arm-elf/lib/interwork/libc.a(lib_a-strstr.o)
 .debug_aranges
                0x000011e0       0x20 /usr/local/OAT/lib/gcc/arm-elf/4.3.2/../../../../arm-elf/lib/interwork/libc.a(lib_a-strtok.o)
 .debug_aranges
                0x00001200       0x20 /usr/local/OAT/lib/gcc/arm-elf/4.3.2/../../../../arm-elf/lib/interwork/libc.a(lib_a-strtok_r.o)
 .debug_aranges
                0x00001220       0x20 /usr/local/OAT/lib/gcc/arm-elf/4.3.2/../../../../arm-elf/lib/interwork/libc.a(lib_a-strtol.o)
 .debug_aranges
                0x00001240       0x20 /usr/local/OAT/lib/gcc/arm-elf/4.3.2/../../../../arm-elf/lib/interwork/libc.a(lib_a-syscalls.o)
 .debug_aranges
                0x00001260       0x20 /usr/local/OAT/lib/gcc/arm-elf/4.3.2/../../../../arm-elf/lib/interwork/libc.a(lib_a-syswrite.o)
 .debug_aranges
                0x00001280       0x20 /usr/local/OAT/lib/gcc/arm-elf/4.3.2/../../../../arm-elf/lib/interwork/libc.a(lib_a-vasprintf.o)
 .debug_aranges
                0x000012a0       0x20 /usr/local/OAT/lib/gcc/arm-elf/4.3.2/../../../../arm-elf/lib/interwork/libc.a(lib_a-vfprintf.o)
 .debug_aranges
                0x000012c0       0x20 /usr/local/OAT/lib/gcc/arm-elf/4.3.2/../../../../arm-elf/lib/interwork/libc.a(lib_a-vfscanf.o)
 .debug_aranges
                0x000012e0       0x20 /usr/local/OAT/lib/gcc/arm-elf/4.3.2/../../../../arm-elf/lib/interwork/libc.a(lib_a-vsprintf.o)
 .debug_aranges
                0x00001300       0x20 /usr/local/OAT/lib/gcc/arm-elf/4.3.2/../../../../arm-elf/lib/interwork/libc.a(lib_a-wsetup.o)
 .debug_aranges
                0x00001320       0x20 /usr/local/OAT/lib/gcc/arm-elf/4.3.2/../../../../arm-elf/lib/interwork/libc.a(lib_a-OAT_close.o)
 .debug_aranges
                0x00001340       0x20 /usr/local/OAT/lib/gcc/arm-elf/4.3.2/../../../../arm-elf/lib/interwork/libc.a(lib_a-OAT_fstat.o)
 .debug_aranges
                0x00001360       0x20 /usr/local/OAT/lib/gcc/arm-elf/4.3.2/../../../../arm-elf/lib/interwork/libc.a(lib_a-OAT_isatty.o)
 .debug_aranges
                0x00001380       0x20 /usr/local/OAT/lib/gcc/arm-elf/4.3.2/../../../../arm-elf/lib/interwork/libc.a(lib_a-OAT_kill.o)
 .debug_aranges
                0x000013a0       0x20 /usr/local/OAT/lib/gcc/arm-elf/4.3.2/../../../../arm-elf/lib/interwork/libc.a(lib_a-OAT_lseek.o)
 .debug_aranges
                0x000013c0       0x20 /usr/local/OAT/lib/gcc/arm-elf/4.3.2/../../../../arm-elf/lib/interwork/libc.a(lib_a-OAT_open.o)
 .debug_aranges
                0x000013e0       0x20 /usr/local/OAT/lib/gcc/arm-elf/4.3.2/../../../../arm-elf/lib/interwork/libc.a(lib_a-OAT_read.o)
 .debug_aranges
                0x00001400       0x20 /usr/local/OAT/lib/gcc/arm-elf/4.3.2/../../../../arm-elf/lib/interwork/libc.a(lib_a-OAT_write.o)
 .debug_aranges
                0x00001420       0x20 /usr/local/OAT/lib/gcc/arm-elf/4.3.2/../../../../arm-elf/lib/interwork/libc.a(lib_a-dtoa.o)
 .debug_aranges
                0x00001440       0x20 /usr/local/OAT/lib/gcc/arm-elf/4.3.2/../../../../arm-elf/lib/interwork/libc.a(lib_a-fflush.o)
 .debug_aranges
                0x00001460       0x20 /usr/local/OAT/lib/gcc/arm-elf/4.3.2/../../../../arm-elf/lib/interwork/libc.a(lib_a-findfp.o)
 .debug_aranges
                0x00001480       0x20 /usr/local/OAT/lib/gcc/arm-elf/4.3.2/../../../../arm-elf/lib/interwork/libc.a(lib_a-fread.o)
 .debug_aranges
                0x000014a0       0x20 /usr/local/OAT/lib/gcc/arm-elf/4.3.2/../../../../arm-elf/lib/interwork/libc.a(lib_a-freer.o)
 .debug_aranges
                0x000014c0       0x20 /usr/local/OAT/lib/gcc/arm-elf/4.3.2/../../../../arm-elf/lib/interwork/libc.a(lib_a-fvwrite.o)
 .debug_aranges
                0x000014e0       0x20 /usr/local/OAT/lib/gcc/arm-elf/4.3.2/../../../../arm-elf/lib/interwork/libc.a(lib_a-fwalk.o)
 .debug_aranges
                0x00001500       0x20 /usr/local/OAT/lib/gcc/arm-elf/4.3.2/../../../../arm-elf/lib/interwork/libc.a(lib_a-iswspace.o)
 .debug_aranges
                0x00001520       0x20 /usr/local/OAT/lib/gcc/arm-elf/4.3.2/../../../../arm-elf/lib/interwork/libc.a(lib_a-makebuf.o)
 .debug_aranges
                0x00001540       0x20 /usr/local/OAT/lib/gcc/arm-elf/4.3.2/../../../../arm-elf/lib/interwork/libc.a(lib_a-mbrtowc.o)
 .debug_aranges
                0x00001560       0x20 /usr/local/OAT/lib/gcc/arm-elf/4.3.2/../../../../arm-elf/lib/interwork/libc.a(lib_a-mbtowc_r.o)
 .debug_aranges
                0x00001580       0x20 /usr/local/OAT/lib/gcc/arm-elf/4.3.2/../../../../arm-elf/lib/interwork/libc.a(lib_a-memchr.o)
 .debug_aranges
                0x000015a0       0x20 /usr/local/OAT/lib/gcc/arm-elf/4.3.2/../../../../arm-elf/lib/interwork/libc.a(lib_a-memmove.o)
 .debug_aranges
                0x000015c0       0x20 /usr/local/OAT/lib/gcc/arm-elf/4.3.2/../../../../arm-elf/lib/interwork/libc.a(lib_a-mprec.o)
 .debug_aranges
                0x000015e0       0x20 /usr/local/OAT/lib/gcc/arm-elf/4.3.2/../../../../arm-elf/lib/interwork/libc.a(lib_a-reent.o)
 .debug_aranges
                0x00001600       0x20 /usr/local/OAT/lib/gcc/arm-elf/4.3.2/../../../../arm-elf/lib/interwork/libc.a(lib_a-refill.o)
 .debug_aranges
                0x00001620       0x20 /usr/local/OAT/lib/gcc/arm-elf/4.3.2/../../../../arm-elf/lib/interwork/libc.a(lib_a-s_isinfd.o)
 .debug_aranges
                0x00001640       0x20 /usr/local/OAT/lib/gcc/arm-elf/4.3.2/../../../../arm-elf/lib/interwork/libc.a(lib_a-sccl.o)
 .debug_aranges
                0x00001660       0x20 /usr/local/OAT/lib/gcc/arm-elf/4.3.2/../../../../arm-elf/lib/interwork/libc.a(lib_a-sf_nan.o)
 .debug_aranges
                0x00001680       0x20 /usr/local/OAT/lib/gcc/arm-elf/4.3.2/../../../../arm-elf/lib/interwork/libc.a(lib_a-stdio.o)
 .debug_aranges
                0x000016a0       0x20 /usr/local/OAT/lib/gcc/arm-elf/4.3.2/../../../../arm-elf/lib/interwork/libc.a(lib_a-strtod.o)
 .debug_aranges
                0x000016c0       0x20 /usr/local/OAT/lib/gcc/arm-elf/4.3.2/../../../../arm-elf/lib/interwork/libc.a(lib_a-strtoul.o)
 .debug_aranges
                0x000016e0       0x20 /usr/local/OAT/lib/gcc/arm-elf/4.3.2/../../../../arm-elf/lib/interwork/libc.a(lib_a-ungetc.o)
 .debug_aranges
                0x00001700       0x20 /usr/local/OAT/lib/gcc/arm-elf/4.3.2/../../../../arm-elf/lib/interwork/libc.a(lib_a-writer.o)
 .debug_aranges
                0x00001720       0x20 /usr/local/OAT/lib/gcc/arm-elf/4.3.2/../../../../arm-elf/lib/interwork/libc.a(lib_a-callocr.o)
 .debug_aranges
                0x00001740       0x20 /usr/local/OAT/lib/gcc/arm-elf/4.3.2/../../../../arm-elf/lib/interwork/libc.a(lib_a-closer.o)
 .debug_aranges
                0x00001760       0x20 /usr/local/OAT/lib/gcc/arm-elf/4.3.2/../../../../arm-elf/lib/interwork/libc.a(lib_a-fclose.o)
 .debug_aranges
                0x00001780       0x20 /usr/local/OAT/lib/gcc/arm-elf/4.3.2/../../../../arm-elf/lib/interwork/libc.a(lib_a-fstatr.o)
 .debug_aranges
                0x000017a0       0x20 /usr/local/OAT/lib/gcc/arm-elf/4.3.2/../../../../arm-elf/lib/interwork/libc.a(lib_a-gdtoa-gethex.o)
 .debug_aranges
                0x000017c0       0x20 /usr/local/OAT/lib/gcc/arm-elf/4.3.2/../../../../arm-elf/lib/interwork/libc.a(lib_a-gdtoa-hexnan.o)
 .debug_aranges
                0x000017e0       0x20 /usr/local/OAT/lib/gcc/arm-elf/4.3.2/../../../../arm-elf/lib/interwork/libc.a(lib_a-lseekr.o)
 .debug_aranges
                0x00001800       0x20 /usr/local/OAT/lib/gcc/arm-elf/4.3.2/../../../../arm-elf/lib/interwork/libc.a(lib_a-readr.o)
 .debug_aranges
                0x00001820       0x20 /usr/local/OAT/lib/gcc/arm-elf/4.3.2/interwork/libgcc.a(_truncdfsf2.o)

.debug_str      0x00000000     0xe5b5
 .debug_str     0x00000000       0xfb /usr/local/OAT/lib/gcc/arm-elf/4.3.2/../../../../arm-elf/lib/interwork/libm.a(lib_a-s_cos.o)
                                0x13b (size before relaxing)
 .debug_str     0x000000fb       0x43 /usr/local/OAT/lib/gcc/arm-elf/4.3.2/../../../../arm-elf/lib/interwork/libm.a(lib_a-s_sin.o)
                                0x13b (size before relaxing)
 .debug_str     0x0000013e       0x45 /usr/local/OAT/lib/gcc/arm-elf/4.3.2/../../../../arm-elf/lib/interwork/libm.a(lib_a-w_atan2.o)
                                0x139 (size before relaxing)
 .debug_str     0x00000183       0xba /usr/local/OAT/lib/gcc/arm-elf/4.3.2/../../../../arm-elf/lib/interwork/libm.a(lib_a-w_sqrt.o)
                                0x1b7 (size before relaxing)
 .debug_str     0x0000023d       0xa0 /usr/local/OAT/lib/gcc/arm-elf/4.3.2/../../../../arm-elf/lib/interwork/libm.a(lib_a-e_atan2.o)
                                0x1a3 (size before relaxing)
 .debug_str     0x000002dd       0xba /usr/local/OAT/lib/gcc/arm-elf/4.3.2/../../../../arm-elf/lib/interwork/libm.a(lib_a-e_rem_pio2.o)
                                0x1ea (size before relaxing)
 .debug_str     0x00000397       0x58 /usr/local/OAT/lib/gcc/arm-elf/4.3.2/../../../../arm-elf/lib/interwork/libm.a(lib_a-e_sqrt.o)
                                0x18d (size before relaxing)
 .debug_str     0x000003ef       0x50 /usr/local/OAT/lib/gcc/arm-elf/4.3.2/../../../../arm-elf/lib/interwork/libm.a(lib_a-k_cos.o)
                                0x180 (size before relaxing)
 .debug_str     0x0000043f       0x84 /usr/local/OAT/lib/gcc/arm-elf/4.3.2/../../../../arm-elf/lib/interwork/libm.a(lib_a-k_rem_pio2.o)
                                0x18c (size before relaxing)
 .debug_str     0x000004c3       0x50 /usr/local/OAT/lib/gcc/arm-elf/4.3.2/../../../../arm-elf/lib/interwork/libm.a(lib_a-k_sin.o)
                                0x180 (size before relaxing)
 .debug_str     0x00000513       0x5c /usr/local/OAT/lib/gcc/arm-elf/4.3.2/../../../../arm-elf/lib/interwork/libm.a(lib_a-s_atan.o)
                                0x187 (size before relaxing)
 .debug_str     0x0000056f       0x49 /usr/local/OAT/lib/gcc/arm-elf/4.3.2/../../../../arm-elf/lib/interwork/libm.a(lib_a-s_fabs.o)
                                0x174 (size before relaxing)
 .debug_str     0x000005b8       0x4b /usr/local/OAT/lib/gcc/arm-elf/4.3.2/../../../../arm-elf/lib/interwork/libm.a(lib_a-s_floor.o)
                                0x180 (size before relaxing)
 .debug_str     0x00000603       0x93 /usr/local/OAT/lib/gcc/arm-elf/4.3.2/../../../../arm-elf/lib/interwork/libm.a(lib_a-s_isnand.o)
                                0x17e (size before relaxing)
 .debug_str     0x00000696       0x49 /usr/local/OAT/lib/gcc/arm-elf/4.3.2/../../../../arm-elf/lib/interwork/libm.a(lib_a-s_lib_ver.o)
                                0x194 (size before relaxing)
 .debug_str     0x000006df       0x51 /usr/local/OAT/lib/gcc/arm-elf/4.3.2/../../../../arm-elf/lib/interwork/libm.a(lib_a-s_matherr.o)
                                0x166 (size before relaxing)
 .debug_str     0x00000730       0x5c /usr/local/OAT/lib/gcc/arm-elf/4.3.2/../../../../arm-elf/lib/interwork/libm.a(lib_a-s_scalbn.o)
                                0x19d (size before relaxing)
 .debug_str     0x0000078c       0x53 /usr/local/OAT/lib/gcc/arm-elf/4.3.2/../../../../arm-elf/lib/interwork/libm.a(lib_a-s_copysign.o)
                                0x17b (size before relaxing)
 .debug_str     0x000007df      0x51a mos_header.o
                                0x61d (size before relaxing)
 .debug_str     0x00000cf9      0x539 /cygdrive/c/OpenAT/OS/6.21.02/ADL/gcc_wmadl_6.21.02.0.0.lib(mos_ftr.o)
                                0x6a1 (size before relaxing)
 .debug_str     0x00001232      0x1a2 /cygdrive/c/OpenAT/OS/6.21.02/ADL/gcc_wmadl_6.21.02.0.0.lib(opec_lst.o)
                                0x2d3 (size before relaxing)
 .debug_str     0x000013d4      0x188 /cygdrive/c/OpenAT/OS/6.21.02/ADL/gcc_wmadl_6.21.02.0.0.lib(opec_std.o)
                                0x2bf (size before relaxing)
 .debug_str     0x0000155c      0x635 /cygdrive/c/OpenAT/OS/6.21.02/ADL/gcc_wmadl_6.21.02.0.0.lib(adl_ad.o)
                                0xc83 (size before relaxing)
 .debug_str     0x00001b91       0x67 /cygdrive/c/OpenAT/OS/6.21.02/ADL/gcc_wmadl_6.21.02.0.0.lib(adl_adc.o)
                                0x5bf (size before relaxing)
 .debug_str     0x00001bf8      0xa81 /cygdrive/c/OpenAT/OS/6.21.02/ADL/gcc_wmadl_6.21.02.0.0.lib(adl_AppliInit.o)
                               0x110d (size before relaxing)
 .debug_str     0x00002679      0xf30 /cygdrive/c/OpenAT/OS/6.21.02/ADL/gcc_wmadl_6.21.02.0.0.lib(adl_audio.o)
                               0x17a4 (size before relaxing)
 .debug_str     0x000035a9      0x598 /cygdrive/c/OpenAT/OS/6.21.02/ADL/gcc_wmadl_6.21.02.0.0.lib(adl_bus.o)
                               0x1004 (size before relaxing)
 .debug_str     0x00003b41      0x365 /cygdrive/c/OpenAT/OS/6.21.02/ADL/gcc_wmadl_6.21.02.0.0.lib(adl_call.o)
                                0x83a (size before relaxing)
 .debug_str     0x00003ea6      0x792 /cygdrive/c/OpenAT/OS/6.21.02/ADL/gcc_wmadl_6.21.02.0.0.lib(adl_CmdHandler.o)
                               0x12b7 (size before relaxing)
 .debug_str     0x00004638      0x40f /cygdrive/c/OpenAT/OS/6.21.02/ADL/gcc_wmadl_6.21.02.0.0.lib(adl_CmdProcessor.o)
                                0x9f6 (size before relaxing)
 .debug_str     0x00004a47      0x4b7 /cygdrive/c/OpenAT/OS/6.21.02/ADL/gcc_wmadl_6.21.02.0.0.lib(adl_CmdStackHandler.o)
                               0x11f2 (size before relaxing)
 .debug_str     0x00004efe      0x159 /cygdrive/c/OpenAT/OS/6.21.02/ADL/gcc_wmadl_6.21.02.0.0.lib(adl_ctx.o)
                                0x785 (size before relaxing)
 .debug_str     0x00005057       0x17 /cygdrive/c/OpenAT/OS/6.21.02/ADL/gcc_wmadl_6.21.02.0.0.lib(adl_defaut_buildtime.o)
                                0x111 (size before relaxing)
 .debug_str     0x0000506e       0x14 /cygdrive/c/OpenAT/OS/6.21.02/ADL/gcc_wmadl_6.21.02.0.0.lib(adl_defaut_extend.o)
                                0x11f (size before relaxing)
 .debug_str     0x00005082       0x14 /cygdrive/c/OpenAT/OS/6.21.02/ADL/gcc_wmadl_6.21.02.0.0.lib(adl_defaut_selist.o)
                                0x105 (size before relaxing)
 .debug_str     0x00005096       0x19 /cygdrive/c/OpenAT/OS/6.21.02/ADL/gcc_wmadl_6.21.02.0.0.lib(adl_defaut_timeslicing.o)
                                0x114 (size before relaxing)
 .debug_str     0x000050af      0x232 /cygdrive/c/OpenAT/OS/6.21.02/ADL/gcc_wmadl_6.21.02.0.0.lib(adl_error.o)
                                0x7dc (size before relaxing)
 .debug_str     0x000052e1      0x17d /cygdrive/c/OpenAT/OS/6.21.02/ADL/gcc_wmadl_6.21.02.0.0.lib(adl_EventMachine.o)
                                0x38a (size before relaxing)
 .debug_str     0x0000545e      0x2e8 /cygdrive/c/OpenAT/OS/6.21.02/ADL/gcc_wmadl_6.21.02.0.0.lib(adl_extint.o)
                                0xd19 (size before relaxing)
 .debug_str     0x00005746      0x13d /cygdrive/c/OpenAT/OS/6.21.02/ADL/gcc_wmadl_6.21.02.0.0.lib(adl_extint_deprecated.o)
                                0x253 (size before relaxing)
 .debug_str     0x00005883      0x7ae /cygdrive/c/OpenAT/OS/6.21.02/ADL/gcc_wmadl_6.21.02.0.0.lib(adl_fcm.o)
                               0x13f1 (size before relaxing)
 .debug_str     0x00006031      0x209 /cygdrive/c/OpenAT/OS/6.21.02/ADL/gcc_wmadl_6.21.02.0.0.lib(adl_flash.o)
                                0x7f2 (size before relaxing)
 .debug_str     0x0000623a      0x447 /cygdrive/c/OpenAT/OS/6.21.02/ADL/gcc_wmadl_6.21.02.0.0.lib(adl_gpio.o)
                                0xc18 (size before relaxing)
 .debug_str     0x00006681      0x4b8 /cygdrive/c/OpenAT/OS/6.21.02/ADL/gcc_wmadl_6.21.02.0.0.lib(adl_gprs.o)
                                0xf91 (size before relaxing)
 .debug_str     0x00006b39      0x3c9 /cygdrive/c/OpenAT/OS/6.21.02/ADL/gcc_wmadl_6.21.02.0.0.lib(adl_irq.o)
                                0xeb7 (size before relaxing)
 .debug_str     0x00006f02       0xf0 /cygdrive/c/OpenAT/OS/6.21.02/ADL/gcc_wmadl_6.21.02.0.0.lib(adl_memory.o)
                                0x71b (size before relaxing)
 .debug_str     0x00006ff2      0x1fe /cygdrive/c/OpenAT/OS/6.21.02/ADL/gcc_wmadl_6.21.02.0.0.lib(adl_msg.o)
                                0xab4 (size before relaxing)
 .debug_str     0x000071f0      0x31b /cygdrive/c/OpenAT/OS/6.21.02/ADL/gcc_wmadl_6.21.02.0.0.lib(adl_port.o)
                                0xcac (size before relaxing)
 .debug_str     0x0000750b       0x9d /cygdrive/c/OpenAT/OS/6.21.02/ADL/gcc_wmadl_6.21.02.0.0.lib(adl_reg.o)
                                0x633 (size before relaxing)
 .debug_str     0x000075a8      0x25e /cygdrive/c/OpenAT/OS/6.21.02/ADL/gcc_wmadl_6.21.02.0.0.lib(adl_RspHandler.o)
                               0x11ee (size before relaxing)
 .debug_str     0x00007806      0x173 /cygdrive/c/OpenAT/OS/6.21.02/ADL/gcc_wmadl_6.21.02.0.0.lib(adl_rtc.o)
                                0x725 (size before relaxing)
 .debug_str     0x00007979      0x10a /cygdrive/c/OpenAT/OS/6.21.02/ADL/gcc_wmadl_6.21.02.0.0.lib(adl_sem.o)
                                0x721 (size before relaxing)
 .debug_str     0x00007a83      0x12b /cygdrive/c/OpenAT/OS/6.21.02/ADL/gcc_wmadl_6.21.02.0.0.lib(adl_serv.o)
                                0x289 (size before relaxing)
 .debug_str     0x00007bae      0x256 /cygdrive/c/OpenAT/OS/6.21.02/ADL/gcc_wmadl_6.21.02.0.0.lib(adl_sim.o)
                                0x8b1 (size before relaxing)
 .debug_str     0x00007e04      0x25b /cygdrive/c/OpenAT/OS/6.21.02/ADL/gcc_wmadl_6.21.02.0.0.lib(adl_sms.o)
                                0x736 (size before relaxing)
 .debug_str     0x0000805f      0x10b /cygdrive/c/OpenAT/OS/6.21.02/ADL/gcc_wmadl_6.21.02.0.0.lib(adl_str.o)
                                0x601 (size before relaxing)
 .debug_str     0x0000816a      0x14c /cygdrive/c/OpenAT/OS/6.21.02/ADL/gcc_wmadl_6.21.02.0.0.lib(adl_TimerHandler.o)
                                0x932 (size before relaxing)
 .debug_str     0x000082b6      0x1db /cygdrive/c/OpenAT/OS/6.21.02/ADL/gcc_wmadl_6.21.02.0.0.lib(adl_traces.o)
                                0xa30 (size before relaxing)
 .debug_str     0x00008491       0xad /cygdrive/c/OpenAT/OS/6.21.02/ADL/gcc_wmadl_6.21.02.0.0.lib(adl_UnSoHandler.o)
                                0x5a6 (size before relaxing)
 .debug_str     0x0000853e       0x97 /cygdrive/c/OpenAT/OS/6.21.02/ADL/gcc_wmadl_6.21.02.0.0.lib(adl_wd.o)
                                0x5f1 (size before relaxing)
 .debug_str     0x000085d5      0x356 /cygdrive/c/OpenAT/Plug-ins/WIP/5.10.2020/WIP/gcc_wmwip_5.10.2020.lib(br_close.o)
                                0x468 (size before relaxing)
 .debug_str     0x0000892b       0x29 /cygdrive/c/OpenAT/Plug-ins/WIP/5.10.2020/WIP/gcc_wmwip_5.10.2020.lib(br_getopts.o)
                                0x43c (size before relaxing)
 .debug_str     0x00008954       0x4d /cygdrive/c/OpenAT/Plug-ins/WIP/5.10.2020/WIP/gcc_wmwip_5.10.2020.lib(br_mgr_init.o)
                                0x468 (size before relaxing)
 .debug_str     0x000089a1       0x40 /cygdrive/c/OpenAT/Plug-ins/WIP/5.10.2020/WIP/gcc_wmwip_5.10.2020.lib(br_open.o)
                                0x47a (size before relaxing)
 .debug_str     0x000089e1       0x1f /cygdrive/c/OpenAT/Plug-ins/WIP/5.10.2020/WIP/gcc_wmwip_5.10.2020.lib(br_setopts.o)
                                0x43c (size before relaxing)
 .debug_str     0x00008a00       0x1b /cygdrive/c/OpenAT/Plug-ins/WIP/5.10.2020/WIP/gcc_wmwip_5.10.2020.lib(br_start.o)
                                0x42e (size before relaxing)
 .debug_str     0x00008a1b      0x188 /cygdrive/c/OpenAT/Plug-ins/WIP/5.10.2020/WIP/gcc_wmwip_5.10.2020.lib(br_v24.o)
                                0x6f8 (size before relaxing)
 .debug_str     0x00008ba3      0xd34 /cygdrive/c/OpenAT/Plug-ins/WIP/5.10.2020/WIP/gcc_wmwip_5.10.2020.lib(ch_channel.o)
                                0xf1a (size before relaxing)
 .debug_str     0x000098d7      0x2b1 /cygdrive/c/OpenAT/Plug-ins/WIP/5.10.2020/WIP/gcc_wmwip_5.10.2020.lib(ch_tcp_client.o)
                               0x104c (size before relaxing)
 .debug_str     0x00009b88      0x18c /cygdrive/c/OpenAT/Plug-ins/WIP/5.10.2020/WIP/gcc_wmwip_5.10.2020.lib(ch_udp.o)
                               0x10a8 (size before relaxing)
 .debug_str     0x00009d14      0x11f /cygdrive/c/OpenAT/Plug-ins/WIP/5.10.2020/WIP/gcc_wmwip_5.10.2020.lib(file.o)
                                0x922 (size before relaxing)
 .debug_str     0x00009e33      0x54d /cygdrive/c/OpenAT/Plug-ins/WIP/5.10.2020/WIP/gcc_wmwip_5.10.2020.lib(ftp.o)
                               0x14e0 (size before relaxing)
 .debug_str     0x0000a380      0x19d /cygdrive/c/OpenAT/Plug-ins/WIP/5.10.2020/WIP/gcc_wmwip_5.10.2020.lib(ftp_evh.o)
                                0xf53 (size before relaxing)
 .debug_str     0x0000a51d       0x85 /cygdrive/c/OpenAT/Plug-ins/WIP/5.10.2020/WIP/gcc_wmwip_5.10.2020.lib(ftp_list.o)
                                0xd16 (size before relaxing)
 .debug_str     0x0000a5a2       0x22 /cygdrive/c/OpenAT/Plug-ins/WIP/5.10.2020/WIP/gcc_wmwip_5.10.2020.lib(ftr.o)
                                0x113 (size before relaxing)
 .debug_str     0x0000a5c4        0xe /cygdrive/c/OpenAT/Plug-ins/WIP/5.10.2020/WIP/gcc_wmwip_5.10.2020.lib(in_aton.o)
                                0x11d (size before relaxing)
 .debug_str     0x0000a5d2        0xe /cygdrive/c/OpenAT/Plug-ins/WIP/5.10.2020/WIP/gcc_wmwip_5.10.2020.lib(in_ntoa.o)
                                0x12d (size before relaxing)
 .debug_str     0x0000a5e0       0x5e /cygdrive/c/OpenAT/Plug-ins/WIP/5.10.2020/WIP/gcc_wmwip_5.10.2020.lib(list_plugin_unix.o)
                                0x1a5 (size before relaxing)
 .debug_str     0x0000a63e       0x9a /cygdrive/c/OpenAT/Plug-ins/WIP/5.10.2020/WIP/gcc_wmwip_5.10.2020.lib(net_debug.o)
                                0x1c3 (size before relaxing)
 .debug_str     0x0000a6d8       0x17 /cygdrive/c/OpenAT/Plug-ins/WIP/5.10.2020/WIP/gcc_wmwip_5.10.2020.lib(net_init.o)
                                 0xfc (size before relaxing)
 .debug_str     0x0000a6ef       0xe7 /cygdrive/c/OpenAT/Plug-ins/WIP/5.10.2020/WIP/gcc_wmwip_5.10.2020.lib(net_initopts.o)
                                0x287 (size before relaxing)
 .debug_str     0x0000a7d6       0x2d /cygdrive/c/OpenAT/Plug-ins/WIP/5.10.2020/WIP/gcc_wmwip_5.10.2020.lib(net_setopts.o)
                                0x167 (size before relaxing)
 .debug_str     0x0000a803       0x17 /cygdrive/c/OpenAT/Plug-ins/WIP/5.10.2020/WIP/gcc_wmwip_5.10.2020.lib(net_sync.o)
                                 0xfd (size before relaxing)
 .debug_str     0x0000a81a       0x7c /cygdrive/c/OpenAT/Plug-ins/WIP/5.10.2020/WIP/gcc_wmwip_5.10.2020.lib(queue.o)
                                0x1af (size before relaxing)
 .debug_str     0x0000a896      0x1ad /cygdrive/c/OpenAT/Plug-ins/WIP/5.10.2020/WIP/gcc_wmwip_5.10.2020.lib(readline.o)
                                0x3d7 (size before relaxing)
 .debug_str     0x0000aa43       0xb1 /cygdrive/c/OpenAT/Plug-ins/WIP/5.10.2020/WIP/gcc_wmwip_5.10.2020.lib(wip_subLevelOpts.o)
                                0x8a9 (size before relaxing)
 .debug_str     0x0000aaf4       0x8d /cygdrive/c/OpenAT/Plug-ins/WIP/5.10.2020/WIP/gcc_wmwip_5.10.2020.lib(wrapper.o)
                                0xe51 (size before relaxing)
 .debug_str     0x0000ab81       0x3e /cygdrive/c/OpenAT/Plug-ins/WIP/5.10.2020/WIP/gcc_wmwip_5.10.2020.lib(wm_net_hton.o)
                                0x12e (size before relaxing)
 .debug_str     0x0000abbf       0x2a /cygdrive/c/OpenAT/Plug-ins/WIP/5.10.2020/WIP/gcc_wmwip_5.10.2020.lib(wm_net_in_aton.o)
                                0x138 (size before relaxing)
 .debug_str     0x0000abe9       0x24 /cygdrive/c/OpenAT/Plug-ins/WIP/5.10.2020/WIP/gcc_wmwip_5.10.2020.lib(wm_net_in_ntoa.o)
                                0x13b (size before relaxing)
 .debug_str     0x0000ac0d      0x694 /cygdrive/c/OpenAT/Plug-ins/WIP/5.10.2020/WIP/gcc_wmwip_5.10.2020.lib(wm_net_wrapper.o)
                                0x89d (size before relaxing)
 .debug_str     0x0000b2a1       0xe5 /cygdrive/c/OpenAT/Plug-ins/WIP/5.10.2020/WIP/gcc_wmwip_5.10.2020.lib(rawprint.o)
                                0x207 (size before relaxing)
 .debug_str     0x0000b386      0x11d /cygdrive/c/OpenAT/Plug-ins/WIP/5.10.2020/WIP/gcc_wmwip_5.10.2020.lib(br_eth.o)
                                0x663 (size before relaxing)
 .debug_str     0x0000b4a3       0x25 /cygdrive/c/OpenAT/Plug-ins/WIP/5.10.2020/WIP/gcc_wmwip_5.10.2020.lib(br_gen_close.o)
                                0x438 (size before relaxing)
 .debug_str     0x0000b4c8       0x2d /cygdrive/c/OpenAT/Plug-ins/WIP/5.10.2020/WIP/gcc_wmwip_5.10.2020.lib(br_gen_getopt.o)
                                0x457 (size before relaxing)
 .debug_str     0x0000b4f5       0x27 /cygdrive/c/OpenAT/Plug-ins/WIP/5.10.2020/WIP/gcc_wmwip_5.10.2020.lib(br_gen_setopt.o)
                                0x43a (size before relaxing)
 .debug_str     0x0000b51c       0x23 /cygdrive/c/OpenAT/Plug-ins/WIP/5.10.2020/WIP/gcc_wmwip_5.10.2020.lib(br_gen_stop.o)
                                0x436 (size before relaxing)
 .debug_str     0x0000b53f       0xb5 /cygdrive/c/OpenAT/Plug-ins/WIP/5.10.2020/WIP/gcc_wmwip_5.10.2020.lib(br_gprs.o)
                                0x5bb (size before relaxing)
 .debug_str     0x0000b5f4      0x132 /cygdrive/c/OpenAT/Plug-ins/WIP/5.10.2020/WIP/gcc_wmwip_5.10.2020.lib(br_gsm.o)
                                0x99b (size before relaxing)
 .debug_str     0x0000b726       0x22 /cygdrive/c/OpenAT/Plug-ins/WIP/5.10.2020/WIP/gcc_wmwip_5.10.2020.lib(br_mgr_debug.o)
                                0x117 (size before relaxing)
 .debug_str     0x0000b748       0x27 /cygdrive/c/OpenAT/Plug-ins/WIP/5.10.2020/WIP/gcc_wmwip_5.10.2020.lib(br_ppp_getopt.o)
                                0x6b0 (size before relaxing)
 .debug_str     0x0000b76f       0x31 /cygdrive/c/OpenAT/Plug-ins/WIP/5.10.2020/WIP/gcc_wmwip_5.10.2020.lib(br_ppp_init.o)
                                0x6bb (size before relaxing)
 .debug_str     0x0000b7a0       0x27 /cygdrive/c/OpenAT/Plug-ins/WIP/5.10.2020/WIP/gcc_wmwip_5.10.2020.lib(br_ppp_setopt.o)
                                0x6ab (size before relaxing)
 .debug_str     0x0000b7c7       0x32 /cygdrive/c/OpenAT/Plug-ins/WIP/5.10.2020/WIP/gcc_wmwip_5.10.2020.lib(br_ppp_start.o)
                                0x6bd (size before relaxing)
 .debug_str     0x0000b7f9       0x23 /cygdrive/c/OpenAT/Plug-ins/WIP/5.10.2020/WIP/gcc_wmwip_5.10.2020.lib(br_ppp_stop.o)
                                0x6a7 (size before relaxing)
 .debug_str     0x0000b81c       0xb5 /cygdrive/c/OpenAT/Plug-ins/WIP/5.10.2020/WIP/gcc_wmwip_5.10.2020.lib(ch_class.o)
                                0xe24 (size before relaxing)
 .debug_str     0x0000b8d1       0x78 /cygdrive/c/OpenAT/Plug-ins/WIP/5.10.2020/WIP/gcc_wmwip_5.10.2020.lib(ch_tcp_server.o)
                                0xe53 (size before relaxing)
 .debug_str     0x0000b949      0x3c5 /usr/local/OAT/lib/gcc/arm-elf/4.3.2/../../../../arm-elf/lib/interwork/libc.a(lib_a-asprintf.o)
                                0x506 (size before relaxing)
 .debug_str     0x0000bd0e       0x8e /usr/local/OAT/lib/gcc/arm-elf/4.3.2/../../../../arm-elf/lib/interwork/libc.a(lib_a-atoi.o)
                                0x4bd (size before relaxing)
 .debug_str     0x0000bd9c       0x92 /usr/local/OAT/lib/gcc/arm-elf/4.3.2/../../../../arm-elf/lib/interwork/libc.a(lib_a-ctype_.o)
                                 0xab (size before relaxing)
 .debug_str     0x0000be2e       0x8d /usr/local/OAT/lib/gcc/arm-elf/4.3.2/../../../../arm-elf/lib/interwork/libc.a(lib_a-errno.o)
                                0x4c3 (size before relaxing)
 .debug_str     0x0000bebb       0xa5 /usr/local/OAT/lib/gcc/arm-elf/4.3.2/../../../../arm-elf/lib/interwork/libc.a(lib_a-impure.o)
                                0x4db (size before relaxing)
 .debug_str     0x0000bf60      0x1e6 /usr/local/OAT/lib/gcc/arm-elf/4.3.2/../../../../arm-elf/lib/interwork/libc.a(lib_a-locale.o)
                                0x66a (size before relaxing)
 .debug_str     0x0000c146       0x52 /usr/local/OAT/lib/gcc/arm-elf/4.3.2/../../../../arm-elf/lib/interwork/libc.a(lib_a-malloc.o)
                                0x4dd (size before relaxing)
 .debug_str     0x0000c198      0x208 /usr/local/OAT/lib/gcc/arm-elf/4.3.2/../../../../arm-elf/lib/interwork/libc.a(lib_a-mallocr.o)
                                0x6b2 (size before relaxing)
 .debug_str     0x0000c3a0       0x8f /usr/local/OAT/lib/gcc/arm-elf/4.3.2/../../../../arm-elf/lib/interwork/libc.a(lib_a-memcmp.o)
                                0x12b (size before relaxing)
 .debug_str     0x0000c42f       0x74 /usr/local/OAT/lib/gcc/arm-elf/4.3.2/../../../../arm-elf/lib/interwork/libc.a(lib_a-memcpy.o)
                                 0xe9 (size before relaxing)
 .debug_str     0x0000c4a3       0x5a /usr/local/OAT/lib/gcc/arm-elf/4.3.2/../../../../arm-elf/lib/interwork/libc.a(lib_a-memset.o)
                                0x13f (size before relaxing)
 .debug_str     0x0000c4fd       0x78 /usr/local/OAT/lib/gcc/arm-elf/4.3.2/../../../../arm-elf/lib/interwork/libc.a(lib_a-mlock.o)
                                0x4e4 (size before relaxing)
 .debug_str     0x0000c575       0x4f /usr/local/OAT/lib/gcc/arm-elf/4.3.2/../../../../arm-elf/lib/interwork/libc.a(lib_a-printf.o)
                                0x4f6 (size before relaxing)
 .debug_str     0x0000c5c4       0x4f /usr/local/OAT/lib/gcc/arm-elf/4.3.2/../../../../arm-elf/lib/interwork/libc.a(lib_a-realloc.o)
                                0x4d5 (size before relaxing)
 .debug_str     0x0000c613       0x5c /usr/local/OAT/lib/gcc/arm-elf/4.3.2/../../../../arm-elf/lib/interwork/libc.a(lib_a-reallocr.o)
                                0x584 (size before relaxing)
 .debug_str     0x0000c66f       0x5b /usr/local/OAT/lib/gcc/arm-elf/4.3.2/../../../../arm-elf/lib/interwork/libc.a(lib_a-sbrkr.o)
                                0x4cc (size before relaxing)
 .debug_str     0x0000c6ca       0x51 /usr/local/OAT/lib/gcc/arm-elf/4.3.2/../../../../arm-elf/lib/interwork/libc.a(lib_a-sprintf.o)
                                0x4fe (size before relaxing)
 .debug_str     0x0000c71b       0x5e /usr/local/OAT/lib/gcc/arm-elf/4.3.2/../../../../arm-elf/lib/interwork/libc.a(lib_a-sscanf.o)
                                0x50a (size before relaxing)
 .debug_str     0x0000c779       0x58 /usr/local/OAT/lib/gcc/arm-elf/4.3.2/../../../../arm-elf/lib/interwork/libc.a(lib_a-strcat.o)
                                0x12f (size before relaxing)
 .debug_str     0x0000c7d1       0x4d /usr/local/OAT/lib/gcc/arm-elf/4.3.2/../../../../arm-elf/lib/interwork/libc.a(lib_a-strchr.o)
                                0x136 (size before relaxing)
 .debug_str     0x0000c81e       0x4d /usr/local/OAT/lib/gcc/arm-elf/4.3.2/../../../../arm-elf/lib/interwork/libc.a(lib_a-strcmp.o)
                                0x124 (size before relaxing)
 .debug_str     0x0000c86b       0x4d /usr/local/OAT/lib/gcc/arm-elf/4.3.2/../../../../arm-elf/lib/interwork/libc.a(lib_a-strcpy.o)
                                0x146 (size before relaxing)
 .debug_str     0x0000c8b8       0x4d /usr/local/OAT/lib/gcc/arm-elf/4.3.2/../../../../arm-elf/lib/interwork/libc.a(lib_a-strdup.o)
                                0x4c5 (size before relaxing)
 .debug_str     0x0000c905       0x57 /usr/local/OAT/lib/gcc/arm-elf/4.3.2/../../../../arm-elf/lib/interwork/libc.a(lib_a-strdup_r.o)
                                0x4d4 (size before relaxing)
 .debug_str     0x0000c95c       0x4d /usr/local/OAT/lib/gcc/arm-elf/4.3.2/../../../../arm-elf/lib/interwork/libc.a(lib_a-strlen.o)
                                0x13e (size before relaxing)
 .debug_str     0x0000c9a9       0x4f /usr/local/OAT/lib/gcc/arm-elf/4.3.2/../../../../arm-elf/lib/interwork/libc.a(lib_a-strncat.o)
                                0x138 (size before relaxing)
 .debug_str     0x0000c9f8       0x4f /usr/local/OAT/lib/gcc/arm-elf/4.3.2/../../../../arm-elf/lib/interwork/libc.a(lib_a-strncmp.o)
                                0x12d (size before relaxing)
 .debug_str     0x0000ca47       0x4f /usr/local/OAT/lib/gcc/arm-elf/4.3.2/../../../../arm-elf/lib/interwork/libc.a(lib_a-strncpy.o)
                                0x155 (size before relaxing)
 .debug_str     0x0000ca96       0x58 /usr/local/OAT/lib/gcc/arm-elf/4.3.2/../../../../arm-elf/lib/interwork/libc.a(lib_a-strsep.o)
                                0x135 (size before relaxing)
 .debug_str     0x0000caee       0x5e /usr/local/OAT/lib/gcc/arm-elf/4.3.2/../../../../arm-elf/lib/interwork/libc.a(lib_a-strstr.o)
                                0x13c (size before relaxing)
 .debug_str     0x0000cb4c       0x4d /usr/local/OAT/lib/gcc/arm-elf/4.3.2/../../../../arm-elf/lib/interwork/libc.a(lib_a-strtok.o)
                                0x4cb (size before relaxing)
 .debug_str     0x0000cb99       0x77 /usr/local/OAT/lib/gcc/arm-elf/4.3.2/../../../../arm-elf/lib/interwork/libc.a(lib_a-strtok_r.o)
                                0x15d (size before relaxing)
 .debug_str     0x0000cc10       0x71 /usr/local/OAT/lib/gcc/arm-elf/4.3.2/../../../../arm-elf/lib/interwork/libc.a(lib_a-strtol.o)
                                0x4ff (size before relaxing)
 .debug_str     0x0000cc81      0x33a /usr/local/OAT/lib/gcc/arm-elf/4.3.2/../../../../arm-elf/lib/interwork/libc.a(lib_a-syscalls.o)
                                0x800 (size before relaxing)
 .debug_str     0x0000cfbb       0x8e /usr/local/OAT/lib/gcc/arm-elf/4.3.2/../../../../arm-elf/lib/interwork/libc.a(lib_a-syswrite.o)
                                0x130 (size before relaxing)
 .debug_str     0x0000d049       0x5f /usr/local/OAT/lib/gcc/arm-elf/4.3.2/../../../../arm-elf/lib/interwork/libc.a(lib_a-vasprintf.o)
                                0x509 (size before relaxing)
 .debug_str     0x0000d0a8      0x181 /usr/local/OAT/lib/gcc/arm-elf/4.3.2/../../../../arm-elf/lib/interwork/libc.a(lib_a-vfprintf.o)
                                0x6b5 (size before relaxing)
 .debug_str     0x0000d229      0x123 /usr/local/OAT/lib/gcc/arm-elf/4.3.2/../../../../arm-elf/lib/interwork/libc.a(lib_a-vfscanf.o)
                                0x652 (size before relaxing)
 .debug_str     0x0000d34c       0x5c /usr/local/OAT/lib/gcc/arm-elf/4.3.2/../../../../arm-elf/lib/interwork/libc.a(lib_a-vsprintf.o)
                                0x501 (size before relaxing)
 .debug_str     0x0000d3a8       0x51 /usr/local/OAT/lib/gcc/arm-elf/4.3.2/../../../../arm-elf/lib/interwork/libc.a(lib_a-wsetup.o)
                                0x4cd (size before relaxing)
 .debug_str     0x0000d3f9       0x57 /usr/local/OAT/lib/gcc/arm-elf/4.3.2/../../../../arm-elf/lib/interwork/libc.a(lib_a-OAT_close.o)
                                0x134 (size before relaxing)
 .debug_str     0x0000d450       0x57 /usr/local/OAT/lib/gcc/arm-elf/4.3.2/../../../../arm-elf/lib/interwork/libc.a(lib_a-OAT_fstat.o)
                                0x221 (size before relaxing)
 .debug_str     0x0000d4a7       0x59 /usr/local/OAT/lib/gcc/arm-elf/4.3.2/../../../../arm-elf/lib/interwork/libc.a(lib_a-OAT_isatty.o)
                                0x131 (size before relaxing)
 .debug_str     0x0000d500       0x55 /usr/local/OAT/lib/gcc/arm-elf/4.3.2/../../../../arm-elf/lib/interwork/libc.a(lib_a-OAT_kill.o)
                                0x12d (size before relaxing)
 .debug_str     0x0000d555       0x57 /usr/local/OAT/lib/gcc/arm-elf/4.3.2/../../../../arm-elf/lib/interwork/libc.a(lib_a-OAT_lseek.o)
                                0x134 (size before relaxing)
 .debug_str     0x0000d5ac       0x55 /usr/local/OAT/lib/gcc/arm-elf/4.3.2/../../../../arm-elf/lib/interwork/libc.a(lib_a-OAT_open.o)
                                0x138 (size before relaxing)
 .debug_str     0x0000d601       0x55 /usr/local/OAT/lib/gcc/arm-elf/4.3.2/../../../../arm-elf/lib/interwork/libc.a(lib_a-OAT_read.o)
                                0x139 (size before relaxing)
 .debug_str     0x0000d656       0x57 /usr/local/OAT/lib/gcc/arm-elf/4.3.2/../../../../arm-elf/lib/interwork/libc.a(lib_a-OAT_write.o)
                                0x134 (size before relaxing)
 .debug_str     0x0000d6ad      0x101 /usr/local/OAT/lib/gcc/arm-elf/4.3.2/../../../../arm-elf/lib/interwork/libc.a(lib_a-dtoa.o)
                                0x5c2 (size before relaxing)
 .debug_str     0x0000d7ae       0x5d /usr/local/OAT/lib/gcc/arm-elf/4.3.2/../../../../arm-elf/lib/interwork/libc.a(lib_a-fflush.o)
                                0x4f3 (size before relaxing)
 .debug_str     0x0000d80b      0x107 /usr/local/OAT/lib/gcc/arm-elf/4.3.2/../../../../arm-elf/lib/interwork/libc.a(lib_a-findfp.o)
                                0x5b5 (size before relaxing)
 .debug_str     0x0000d912       0x6f /usr/local/OAT/lib/gcc/arm-elf/4.3.2/../../../../arm-elf/lib/interwork/libc.a(lib_a-fread.o)
                                0x50f (size before relaxing)
 .debug_str     0x0000d981       0x3c /usr/local/OAT/lib/gcc/arm-elf/4.3.2/../../../../arm-elf/lib/interwork/libc.a(lib_a-freer.o)
                                0x604 (size before relaxing)
 .debug_str     0x0000d9bd       0x69 /usr/local/OAT/lib/gcc/arm-elf/4.3.2/../../../../arm-elf/lib/interwork/libc.a(lib_a-fvwrite.o)
                                0x524 (size before relaxing)
 .debug_str     0x0000da26       0x69 /usr/local/OAT/lib/gcc/arm-elf/4.3.2/../../../../arm-elf/lib/interwork/libc.a(lib_a-fwalk.o)
                                0x4f6 (size before relaxing)
 .debug_str     0x0000da8f       0x58 /usr/local/OAT/lib/gcc/arm-elf/4.3.2/../../../../arm-elf/lib/interwork/libc.a(lib_a-iswspace.o)
                                0x14c (size before relaxing)
 .debug_str     0x0000dae7       0x5e /usr/local/OAT/lib/gcc/arm-elf/4.3.2/../../../../arm-elf/lib/interwork/libc.a(lib_a-makebuf.o)
                                0x5c7 (size before relaxing)
 .debug_str     0x0000db45       0x5a /usr/local/OAT/lib/gcc/arm-elf/4.3.2/../../../../arm-elf/lib/interwork/libc.a(lib_a-mbrtowc.o)
                                0x4f2 (size before relaxing)
 .debug_str     0x0000db9f       0x52 /usr/local/OAT/lib/gcc/arm-elf/4.3.2/../../../../arm-elf/lib/interwork/libc.a(lib_a-mbtowc_r.o)
                                0x4e3 (size before relaxing)
 .debug_str     0x0000dbf1       0x5b /usr/local/OAT/lib/gcc/arm-elf/4.3.2/../../../../arm-elf/lib/interwork/libc.a(lib_a-memchr.o)
                                0x14c (size before relaxing)
 .debug_str     0x0000dc4c       0x58 /usr/local/OAT/lib/gcc/arm-elf/4.3.2/../../../../arm-elf/lib/interwork/libc.a(lib_a-memmove.o)
                                0x15e (size before relaxing)
 .debug_str     0x0000dca4      0x103 /usr/local/OAT/lib/gcc/arm-elf/4.3.2/../../../../arm-elf/lib/interwork/libc.a(lib_a-mprec.o)
                                0x5cf (size before relaxing)
 .debug_str     0x0000dda7       0x7e /usr/local/OAT/lib/gcc/arm-elf/4.3.2/../../../../arm-elf/lib/interwork/libc.a(lib_a-reent.o)
                                0x500 (size before relaxing)
 .debug_str     0x0000de25       0x58 /usr/local/OAT/lib/gcc/arm-elf/4.3.2/../../../../arm-elf/lib/interwork/libc.a(lib_a-refill.o)
                                0x4db (size before relaxing)
 .debug_str     0x0000de7d       0x51 /usr/local/OAT/lib/gcc/arm-elf/4.3.2/../../../../arm-elf/lib/interwork/libc.a(lib_a-s_isinfd.o)
                                0x17e (size before relaxing)
 .debug_str     0x0000dece       0x5a /usr/local/OAT/lib/gcc/arm-elf/4.3.2/../../../../arm-elf/lib/interwork/libc.a(lib_a-sccl.o)
                                0x130 (size before relaxing)
 .debug_str     0x0000df28       0x66 /usr/local/OAT/lib/gcc/arm-elf/4.3.2/../../../../arm-elf/lib/interwork/libc.a(lib_a-sf_nan.o)
                                0x173 (size before relaxing)
 .debug_str     0x0000df8e       0x6d /usr/local/OAT/lib/gcc/arm-elf/4.3.2/../../../../arm-elf/lib/interwork/libc.a(lib_a-stdio.o)
                                0x4f2 (size before relaxing)
 .debug_str     0x0000dffb      0x1be /usr/local/OAT/lib/gcc/arm-elf/4.3.2/../../../../arm-elf/lib/interwork/libc.a(lib_a-strtod.o)
                                0x6ac (size before relaxing)
 .debug_str     0x0000e1b9       0x5a /usr/local/OAT/lib/gcc/arm-elf/4.3.2/../../../../arm-elf/lib/interwork/libc.a(lib_a-strtoul.o)
                                0x502 (size before relaxing)
 .debug_str     0x0000e213       0x60 /usr/local/OAT/lib/gcc/arm-elf/4.3.2/../../../../arm-elf/lib/interwork/libc.a(lib_a-ungetc.o)
                                0x4e1 (size before relaxing)
 .debug_str     0x0000e273       0x57 /usr/local/OAT/lib/gcc/arm-elf/4.3.2/../../../../arm-elf/lib/interwork/libc.a(lib_a-writer.o)
                                0x4cf (size before relaxing)
 .debug_str     0x0000e2ca       0x19 /usr/local/OAT/lib/gcc/arm-elf/4.3.2/../../../../arm-elf/lib/interwork/libc.a(lib_a-callocr.o)
                                0x503 (size before relaxing)
 .debug_str     0x0000e2e3       0x4e /usr/local/OAT/lib/gcc/arm-elf/4.3.2/../../../../arm-elf/lib/interwork/libc.a(lib_a-closer.o)
                                0x4bf (size before relaxing)
 .debug_str     0x0000e331       0x56 /usr/local/OAT/lib/gcc/arm-elf/4.3.2/../../../../arm-elf/lib/interwork/libc.a(lib_a-fclose.o)
                                0x4d7 (size before relaxing)
 .debug_str     0x0000e387       0x54 /usr/local/OAT/lib/gcc/arm-elf/4.3.2/../../../../arm-elf/lib/interwork/libc.a(lib_a-fstatr.o)
                                0x5b2 (size before relaxing)
 .debug_str     0x0000e3db       0xe3 /usr/local/OAT/lib/gcc/arm-elf/4.3.2/../../../../arm-elf/lib/interwork/libc.a(lib_a-gdtoa-gethex.o)
                                0x681 (size before relaxing)
 .debug_str     0x0000e4be       0x5d /usr/local/OAT/lib/gcc/arm-elf/4.3.2/../../../../arm-elf/lib/interwork/libc.a(lib_a-gdtoa-hexnan.o)
                                0x25a (size before relaxing)
 .debug_str     0x0000e51b       0x4e /usr/local/OAT/lib/gcc/arm-elf/4.3.2/../../../../arm-elf/lib/interwork/libc.a(lib_a-lseekr.o)
                                0x4cd (size before relaxing)
 .debug_str     0x0000e569       0x4c /usr/local/OAT/lib/gcc/arm-elf/4.3.2/../../../../arm-elf/lib/interwork/libc.a(lib_a-readr.o)
                                0x4cd (size before relaxing)

.debug_ranges   0x00000000     0x1dc0
 .debug_ranges  0x00000000       0x38 /usr/local/OAT/lib/gcc/arm-elf/4.3.2/../../../../arm-elf/lib/interwork/libm.a(lib_a-e_atan2.o)
 .debug_ranges  0x00000038       0x38 /usr/local/OAT/lib/gcc/arm-elf/4.3.2/../../../../arm-elf/lib/interwork/libm.a(lib_a-e_rem_pio2.o)
 .debug_ranges  0x00000070       0x18 /usr/local/OAT/lib/gcc/arm-elf/4.3.2/../../../../arm-elf/lib/interwork/libm.a(lib_a-e_sqrt.o)
 .debug_ranges  0x00000088       0x20 /usr/local/OAT/lib/gcc/arm-elf/4.3.2/../../../../arm-elf/lib/interwork/libm.a(lib_a-s_atan.o)
 .debug_ranges  0x000000a8       0x38 /usr/local/OAT/lib/gcc/arm-elf/4.3.2/../../../../arm-elf/lib/interwork/libm.a(lib_a-s_fabs.o)
 .debug_ranges  0x000000e0       0x50 /usr/local/OAT/lib/gcc/arm-elf/4.3.2/../../../../arm-elf/lib/interwork/libm.a(lib_a-s_scalbn.o)
 .debug_ranges  0x00000130       0x20 /usr/local/OAT/lib/gcc/arm-elf/4.3.2/../../../../arm-elf/lib/interwork/libm.a(lib_a-s_copysign.o)
 .debug_ranges  0x00000150       0x90 /cygdrive/c/OpenAT/OS/6.21.02/ADL/gcc_wmadl_6.21.02.0.0.lib(adl_ad.o)
 .debug_ranges  0x000001e0       0x30 /cygdrive/c/OpenAT/OS/6.21.02/ADL/gcc_wmadl_6.21.02.0.0.lib(adl_AppliInit.o)
 .debug_ranges  0x00000210       0xc8 /cygdrive/c/OpenAT/OS/6.21.02/ADL/gcc_wmadl_6.21.02.0.0.lib(adl_audio.o)
 .debug_ranges  0x000002d8       0xf0 /cygdrive/c/OpenAT/OS/6.21.02/ADL/gcc_wmadl_6.21.02.0.0.lib(adl_bus.o)
 .debug_ranges  0x000003c8       0x50 /cygdrive/c/OpenAT/OS/6.21.02/ADL/gcc_wmadl_6.21.02.0.0.lib(adl_call.o)
 .debug_ranges  0x00000418       0x50 /cygdrive/c/OpenAT/OS/6.21.02/ADL/gcc_wmadl_6.21.02.0.0.lib(adl_CmdHandler.o)
 .debug_ranges  0x00000468       0x98 /cygdrive/c/OpenAT/OS/6.21.02/ADL/gcc_wmadl_6.21.02.0.0.lib(adl_CmdProcessor.o)
 .debug_ranges  0x00000500       0x70 /cygdrive/c/OpenAT/OS/6.21.02/ADL/gcc_wmadl_6.21.02.0.0.lib(adl_CmdStackHandler.o)
 .debug_ranges  0x00000570       0xb0 /cygdrive/c/OpenAT/OS/6.21.02/ADL/gcc_wmadl_6.21.02.0.0.lib(adl_extint.o)
 .debug_ranges  0x00000620       0x18 /cygdrive/c/OpenAT/OS/6.21.02/ADL/gcc_wmadl_6.21.02.0.0.lib(adl_extint_deprecated.o)
 .debug_ranges  0x00000638      0x158 /cygdrive/c/OpenAT/OS/6.21.02/ADL/gcc_wmadl_6.21.02.0.0.lib(adl_fcm.o)
 .debug_ranges  0x00000790       0x38 /cygdrive/c/OpenAT/OS/6.21.02/ADL/gcc_wmadl_6.21.02.0.0.lib(adl_flash.o)
 .debug_ranges  0x000007c8      0x108 /cygdrive/c/OpenAT/OS/6.21.02/ADL/gcc_wmadl_6.21.02.0.0.lib(adl_gpio.o)
 .debug_ranges  0x000008d0       0x70 /cygdrive/c/OpenAT/OS/6.21.02/ADL/gcc_wmadl_6.21.02.0.0.lib(adl_gprs.o)
 .debug_ranges  0x00000940       0x68 /cygdrive/c/OpenAT/OS/6.21.02/ADL/gcc_wmadl_6.21.02.0.0.lib(adl_irq.o)
 .debug_ranges  0x000009a8       0x68 /cygdrive/c/OpenAT/OS/6.21.02/ADL/gcc_wmadl_6.21.02.0.0.lib(adl_msg.o)
 .debug_ranges  0x00000a10       0x18 /cygdrive/c/OpenAT/OS/6.21.02/ADL/gcc_wmadl_6.21.02.0.0.lib(adl_port.o)
 .debug_ranges  0x00000a28       0xa0 /cygdrive/c/OpenAT/OS/6.21.02/ADL/gcc_wmadl_6.21.02.0.0.lib(adl_RspHandler.o)
 .debug_ranges  0x00000ac8       0x18 /cygdrive/c/OpenAT/OS/6.21.02/ADL/gcc_wmadl_6.21.02.0.0.lib(adl_rtc.o)
 .debug_ranges  0x00000ae0       0x18 /cygdrive/c/OpenAT/OS/6.21.02/ADL/gcc_wmadl_6.21.02.0.0.lib(adl_sem.o)
 .debug_ranges  0x00000af8       0x18 /cygdrive/c/OpenAT/OS/6.21.02/ADL/gcc_wmadl_6.21.02.0.0.lib(adl_sim.o)
 .debug_ranges  0x00000b10       0x58 /cygdrive/c/OpenAT/OS/6.21.02/ADL/gcc_wmadl_6.21.02.0.0.lib(adl_sms.o)
 .debug_ranges  0x00000b68       0x30 /cygdrive/c/OpenAT/OS/6.21.02/ADL/gcc_wmadl_6.21.02.0.0.lib(adl_str.o)
 .debug_ranges  0x00000b98       0x38 /cygdrive/c/OpenAT/OS/6.21.02/ADL/gcc_wmadl_6.21.02.0.0.lib(adl_TimerHandler.o)
 .debug_ranges  0x00000bd0       0x40 /cygdrive/c/OpenAT/Plug-ins/WIP/5.10.2020/WIP/gcc_wmwip_5.10.2020.lib(br_open.o)
 .debug_ranges  0x00000c10       0x30 /cygdrive/c/OpenAT/Plug-ins/WIP/5.10.2020/WIP/gcc_wmwip_5.10.2020.lib(br_v24.o)
 .debug_ranges  0x00000c40      0x168 /cygdrive/c/OpenAT/Plug-ins/WIP/5.10.2020/WIP/gcc_wmwip_5.10.2020.lib(ch_channel.o)
 .debug_ranges  0x00000da8      0x178 /cygdrive/c/OpenAT/Plug-ins/WIP/5.10.2020/WIP/gcc_wmwip_5.10.2020.lib(ch_tcp_client.o)
 .debug_ranges  0x00000f20      0x1f8 /cygdrive/c/OpenAT/Plug-ins/WIP/5.10.2020/WIP/gcc_wmwip_5.10.2020.lib(ch_udp.o)
 .debug_ranges  0x00001118       0x30 /cygdrive/c/OpenAT/Plug-ins/WIP/5.10.2020/WIP/gcc_wmwip_5.10.2020.lib(file.o)
 .debug_ranges  0x00001148       0xe8 /cygdrive/c/OpenAT/Plug-ins/WIP/5.10.2020/WIP/gcc_wmwip_5.10.2020.lib(ftp.o)
 .debug_ranges  0x00001230       0xd0 /cygdrive/c/OpenAT/Plug-ins/WIP/5.10.2020/WIP/gcc_wmwip_5.10.2020.lib(ftp_evh.o)
 .debug_ranges  0x00001300       0x30 /cygdrive/c/OpenAT/Plug-ins/WIP/5.10.2020/WIP/gcc_wmwip_5.10.2020.lib(ftp_list.o)
 .debug_ranges  0x00001330       0xb0 /cygdrive/c/OpenAT/Plug-ins/WIP/5.10.2020/WIP/gcc_wmwip_5.10.2020.lib(readline.o)
 .debug_ranges  0x000013e0       0x30 /cygdrive/c/OpenAT/Plug-ins/WIP/5.10.2020/WIP/gcc_wmwip_5.10.2020.lib(wip_subLevelOpts.o)
 .debug_ranges  0x00001410       0x18 /cygdrive/c/OpenAT/Plug-ins/WIP/5.10.2020/WIP/gcc_wmwip_5.10.2020.lib(wrapper.o)
 .debug_ranges  0x00001428       0x48 /cygdrive/c/OpenAT/Plug-ins/WIP/5.10.2020/WIP/gcc_wmwip_5.10.2020.lib(wm_net_wrapper.o)
 .debug_ranges  0x00001470       0x28 /cygdrive/c/OpenAT/Plug-ins/WIP/5.10.2020/WIP/gcc_wmwip_5.10.2020.lib(rawprint.o)
 .debug_ranges  0x00001498       0x18 /cygdrive/c/OpenAT/Plug-ins/WIP/5.10.2020/WIP/gcc_wmwip_5.10.2020.lib(br_eth.o)
 .debug_ranges  0x000014b0       0x38 /cygdrive/c/OpenAT/Plug-ins/WIP/5.10.2020/WIP/gcc_wmwip_5.10.2020.lib(br_gprs.o)
 .debug_ranges  0x000014e8       0x18 /cygdrive/c/OpenAT/Plug-ins/WIP/5.10.2020/WIP/gcc_wmwip_5.10.2020.lib(br_gsm.o)
 .debug_ranges  0x00001500       0x48 /cygdrive/c/OpenAT/Plug-ins/WIP/5.10.2020/WIP/gcc_wmwip_5.10.2020.lib(br_ppp_init.o)
 .debug_ranges  0x00001548       0x38 /cygdrive/c/OpenAT/Plug-ins/WIP/5.10.2020/WIP/gcc_wmwip_5.10.2020.lib(ch_class.o)
 .debug_ranges  0x00001580       0x68 /cygdrive/c/OpenAT/Plug-ins/WIP/5.10.2020/WIP/gcc_wmwip_5.10.2020.lib(ch_tcp_server.o)
 .debug_ranges  0x000015e8       0x58 /usr/local/OAT/lib/gcc/arm-elf/4.3.2/../../../../arm-elf/lib/interwork/libc.a(lib_a-mallocr.o)
 .debug_ranges  0x00001640       0x58 /usr/local/OAT/lib/gcc/arm-elf/4.3.2/../../../../arm-elf/lib/interwork/libc.a(lib_a-reallocr.o)
 .debug_ranges  0x00001698      0x2a0 /usr/local/OAT/lib/gcc/arm-elf/4.3.2/../../../../arm-elf/lib/interwork/libc.a(lib_a-syscalls.o)
 .debug_ranges  0x00001938      0x128 /usr/local/OAT/lib/gcc/arm-elf/4.3.2/../../../../arm-elf/lib/interwork/libc.a(lib_a-vfprintf.o)
 .debug_ranges  0x00001a60       0xb0 /usr/local/OAT/lib/gcc/arm-elf/4.3.2/../../../../arm-elf/lib/interwork/libc.a(lib_a-vfscanf.o)
 .debug_ranges  0x00001b10       0x38 /usr/local/OAT/lib/gcc/arm-elf/4.3.2/../../../../arm-elf/lib/interwork/libc.a(lib_a-fflush.o)
 .debug_ranges  0x00001b48       0x80 /usr/local/OAT/lib/gcc/arm-elf/4.3.2/../../../../arm-elf/lib/interwork/libc.a(lib_a-findfp.o)
 .debug_ranges  0x00001bc8       0x20 /usr/local/OAT/lib/gcc/arm-elf/4.3.2/../../../../arm-elf/lib/interwork/libc.a(lib_a-fvwrite.o)
 .debug_ranges  0x00001be8       0x40 /usr/local/OAT/lib/gcc/arm-elf/4.3.2/../../../../arm-elf/lib/interwork/libc.a(lib_a-fwalk.o)
 .debug_ranges  0x00001c28       0x98 /usr/local/OAT/lib/gcc/arm-elf/4.3.2/../../../../arm-elf/lib/interwork/libc.a(lib_a-mprec.o)
 .debug_ranges  0x00001cc0       0xa8 /usr/local/OAT/lib/gcc/arm-elf/4.3.2/../../../../arm-elf/lib/interwork/libc.a(lib_a-strtod.o)
 .debug_ranges  0x00001d68       0x18 /usr/local/OAT/lib/gcc/arm-elf/4.3.2/../../../../arm-elf/lib/interwork/libc.a(lib_a-callocr.o)
 .debug_ranges  0x00001d80       0x40 /usr/local/OAT/lib/gcc/arm-elf/4.3.2/../../../../arm-elf/lib/interwork/libc.a(lib_a-gdtoa-gethex.o)

.debug_macinfo  0x00000000   0x259b77
 .debug_macinfo
                0x00000000     0x33cb mos_header.o
 .debug_macinfo
                0x000033cb     0x30c2 /cygdrive/c/OpenAT/OS/6.21.02/ADL/gcc_wmadl_6.21.02.0.0.lib(mos_ftr.o)
 .debug_macinfo
                0x0000648d     0x40ec /cygdrive/c/OpenAT/OS/6.21.02/ADL/gcc_wmadl_6.21.02.0.0.lib(opec_lst.o)
 .debug_macinfo
                0x0000a579     0x7ac5 /cygdrive/c/OpenAT/OS/6.21.02/ADL/gcc_wmadl_6.21.02.0.0.lib(opec_std.o)
 .debug_macinfo
                0x0001203e     0x8233 /cygdrive/c/OpenAT/OS/6.21.02/ADL/gcc_wmadl_6.21.02.0.0.lib(adl_ad.o)
 .debug_macinfo
                0x0001a271     0x7a9b /cygdrive/c/OpenAT/OS/6.21.02/ADL/gcc_wmadl_6.21.02.0.0.lib(adl_adc.o)
 .debug_macinfo
                0x00021d0c     0x7f81 /cygdrive/c/OpenAT/OS/6.21.02/ADL/gcc_wmadl_6.21.02.0.0.lib(adl_AppliInit.o)
 .debug_macinfo
                0x00029c8d     0x7fa3 /cygdrive/c/OpenAT/OS/6.21.02/ADL/gcc_wmadl_6.21.02.0.0.lib(adl_audio.o)
 .debug_macinfo
                0x00031c30     0x7cc1 /cygdrive/c/OpenAT/OS/6.21.02/ADL/gcc_wmadl_6.21.02.0.0.lib(adl_bus.o)
 .debug_macinfo
                0x000398f1     0x7b48 /cygdrive/c/OpenAT/OS/6.21.02/ADL/gcc_wmadl_6.21.02.0.0.lib(adl_call.o)
 .debug_macinfo
                0x00041439     0x7e4a /cygdrive/c/OpenAT/OS/6.21.02/ADL/gcc_wmadl_6.21.02.0.0.lib(adl_CmdHandler.o)
 .debug_macinfo
                0x00049283     0x7989 /cygdrive/c/OpenAT/OS/6.21.02/ADL/gcc_wmadl_6.21.02.0.0.lib(adl_CmdProcessor.o)
 .debug_macinfo
                0x00050c0c     0x7f61 /cygdrive/c/OpenAT/OS/6.21.02/ADL/gcc_wmadl_6.21.02.0.0.lib(adl_CmdStackHandler.o)
 .debug_macinfo
                0x00058b6d     0x7c85 /cygdrive/c/OpenAT/OS/6.21.02/ADL/gcc_wmadl_6.21.02.0.0.lib(adl_ctx.o)
 .debug_macinfo
                0x000607f2     0x7988 /cygdrive/c/OpenAT/OS/6.21.02/ADL/gcc_wmadl_6.21.02.0.0.lib(adl_defaut_buildtime.o)
 .debug_macinfo
                0x0006817a     0x7a0b /cygdrive/c/OpenAT/OS/6.21.02/ADL/gcc_wmadl_6.21.02.0.0.lib(adl_defaut_extend.o)
 .debug_macinfo
                0x0006fb85     0x7988 /cygdrive/c/OpenAT/OS/6.21.02/ADL/gcc_wmadl_6.21.02.0.0.lib(adl_defaut_selist.o)
 .debug_macinfo
                0x0007750d     0x7988 /cygdrive/c/OpenAT/OS/6.21.02/ADL/gcc_wmadl_6.21.02.0.0.lib(adl_defaut_timeslicing.o)
 .debug_macinfo
                0x0007ee95     0x7ae2 /cygdrive/c/OpenAT/OS/6.21.02/ADL/gcc_wmadl_6.21.02.0.0.lib(adl_error.o)
 .debug_macinfo
                0x00086977     0x7988 /cygdrive/c/OpenAT/OS/6.21.02/ADL/gcc_wmadl_6.21.02.0.0.lib(adl_EventMachine.o)
 .debug_macinfo
                0x0008e2ff     0x7c37 /cygdrive/c/OpenAT/OS/6.21.02/ADL/gcc_wmadl_6.21.02.0.0.lib(adl_extint.o)
 .debug_macinfo
                0x00095f36     0x7988 /cygdrive/c/OpenAT/OS/6.21.02/ADL/gcc_wmadl_6.21.02.0.0.lib(adl_extint_deprecated.o)
 .debug_macinfo
                0x0009d8be     0x828b /cygdrive/c/OpenAT/OS/6.21.02/ADL/gcc_wmadl_6.21.02.0.0.lib(adl_fcm.o)
 .debug_macinfo
                0x000a5b49     0x7cc0 /cygdrive/c/OpenAT/OS/6.21.02/ADL/gcc_wmadl_6.21.02.0.0.lib(adl_flash.o)
 .debug_macinfo
                0x000ad809     0x7cd3 /cygdrive/c/OpenAT/OS/6.21.02/ADL/gcc_wmadl_6.21.02.0.0.lib(adl_gpio.o)
 .debug_macinfo
                0x000b54dc     0x7e10 /cygdrive/c/OpenAT/OS/6.21.02/ADL/gcc_wmadl_6.21.02.0.0.lib(adl_gprs.o)
 .debug_macinfo
                0x000bd2ec     0x7bc0 /cygdrive/c/OpenAT/OS/6.21.02/ADL/gcc_wmadl_6.21.02.0.0.lib(adl_irq.o)
 .debug_macinfo
                0x000c4eac     0x7b2e /cygdrive/c/OpenAT/OS/6.21.02/ADL/gcc_wmadl_6.21.02.0.0.lib(adl_memory.o)
 .debug_macinfo
                0x000cc9da     0x7c55 /cygdrive/c/OpenAT/OS/6.21.02/ADL/gcc_wmadl_6.21.02.0.0.lib(adl_msg.o)
 .debug_macinfo
                0x000d462f     0x7eac /cygdrive/c/OpenAT/OS/6.21.02/ADL/gcc_wmadl_6.21.02.0.0.lib(adl_port.o)
 .debug_macinfo
                0x000dc4db     0x7b71 /cygdrive/c/OpenAT/OS/6.21.02/ADL/gcc_wmadl_6.21.02.0.0.lib(adl_reg.o)
 .debug_macinfo
                0x000e404c     0x8157 /cygdrive/c/OpenAT/OS/6.21.02/ADL/gcc_wmadl_6.21.02.0.0.lib(adl_RspHandler.o)
 .debug_macinfo
                0x000ec1a3     0x7b53 /cygdrive/c/OpenAT/OS/6.21.02/ADL/gcc_wmadl_6.21.02.0.0.lib(adl_rtc.o)
 .debug_macinfo
                0x000f3cf6     0x7bd6 /cygdrive/c/OpenAT/OS/6.21.02/ADL/gcc_wmadl_6.21.02.0.0.lib(adl_sem.o)
 .debug_macinfo
                0x000fb8cc     0x7988 /cygdrive/c/OpenAT/OS/6.21.02/ADL/gcc_wmadl_6.21.02.0.0.lib(adl_serv.o)
 .debug_macinfo
                0x00103254     0x79db /cygdrive/c/OpenAT/OS/6.21.02/ADL/gcc_wmadl_6.21.02.0.0.lib(adl_sim.o)
 .debug_macinfo
                0x0010ac2f     0x79da /cygdrive/c/OpenAT/OS/6.21.02/ADL/gcc_wmadl_6.21.02.0.0.lib(adl_sms.o)
 .debug_macinfo
                0x00112609     0x79c8 /cygdrive/c/OpenAT/OS/6.21.02/ADL/gcc_wmadl_6.21.02.0.0.lib(adl_str.o)
 .debug_macinfo
                0x00119fd1     0x7cc1 /cygdrive/c/OpenAT/OS/6.21.02/ADL/gcc_wmadl_6.21.02.0.0.lib(adl_TimerHandler.o)
 .debug_macinfo
                0x00121c92     0x7c4a /cygdrive/c/OpenAT/OS/6.21.02/ADL/gcc_wmadl_6.21.02.0.0.lib(adl_traces.o)
 .debug_macinfo
                0x001298dc     0x7ab2 /cygdrive/c/OpenAT/OS/6.21.02/ADL/gcc_wmadl_6.21.02.0.0.lib(adl_UnSoHandler.o)
 .debug_macinfo
                0x0013138e     0x7b6b /cygdrive/c/OpenAT/OS/6.21.02/ADL/gcc_wmadl_6.21.02.0.0.lib(adl_wd.o)
 .debug_macinfo
                0x00138ef9     0x547a /cygdrive/c/OpenAT/Plug-ins/WIP/5.10.2020/WIP/gcc_wmwip_5.10.2020.lib(br_close.o)
 .debug_macinfo
                0x0013e373     0x545a /cygdrive/c/OpenAT/Plug-ins/WIP/5.10.2020/WIP/gcc_wmwip_5.10.2020.lib(br_getopts.o)
 .debug_macinfo
                0x001437cd     0x54ea /cygdrive/c/OpenAT/Plug-ins/WIP/5.10.2020/WIP/gcc_wmwip_5.10.2020.lib(br_mgr_init.o)
 .debug_macinfo
                0x00148cb7     0x5b9a /cygdrive/c/OpenAT/Plug-ins/WIP/5.10.2020/WIP/gcc_wmwip_5.10.2020.lib(br_open.o)
 .debug_macinfo
                0x0014e851     0x545a /cygdrive/c/OpenAT/Plug-ins/WIP/5.10.2020/WIP/gcc_wmwip_5.10.2020.lib(br_setopts.o)
 .debug_macinfo
                0x00153cab     0x545a /cygdrive/c/OpenAT/Plug-ins/WIP/5.10.2020/WIP/gcc_wmwip_5.10.2020.lib(br_start.o)
 .debug_macinfo
                0x00159105     0x6009 /cygdrive/c/OpenAT/Plug-ins/WIP/5.10.2020/WIP/gcc_wmwip_5.10.2020.lib(br_v24.o)
 .debug_macinfo
                0x0015f10e     0x8c62 /cygdrive/c/OpenAT/Plug-ins/WIP/5.10.2020/WIP/gcc_wmwip_5.10.2020.lib(ch_channel.o)
 .debug_macinfo
                0x00167d70     0x907e /cygdrive/c/OpenAT/Plug-ins/WIP/5.10.2020/WIP/gcc_wmwip_5.10.2020.lib(ch_tcp_client.o)
 .debug_macinfo
                0x00170dee     0x903e /cygdrive/c/OpenAT/Plug-ins/WIP/5.10.2020/WIP/gcc_wmwip_5.10.2020.lib(ch_udp.o)
 .debug_macinfo
                0x00179e2c     0x6fde /cygdrive/c/OpenAT/Plug-ins/WIP/5.10.2020/WIP/gcc_wmwip_5.10.2020.lib(file.o)
 .debug_macinfo
                0x00180e0a     0x7305 /cygdrive/c/OpenAT/Plug-ins/WIP/5.10.2020/WIP/gcc_wmwip_5.10.2020.lib(ftp.o)
 .debug_macinfo
                0x0018810f     0x7289 /cygdrive/c/OpenAT/Plug-ins/WIP/5.10.2020/WIP/gcc_wmwip_5.10.2020.lib(ftp_evh.o)
 .debug_macinfo
                0x0018f398     0x71d3 /cygdrive/c/OpenAT/Plug-ins/WIP/5.10.2020/WIP/gcc_wmwip_5.10.2020.lib(ftp_list.o)
 .debug_macinfo
                0x0019656b     0x62a3 /cygdrive/c/OpenAT/Plug-ins/WIP/5.10.2020/WIP/gcc_wmwip_5.10.2020.lib(ftr.o)
 .debug_macinfo
                0x0019c80e     0x3396 /cygdrive/c/OpenAT/Plug-ins/WIP/5.10.2020/WIP/gcc_wmwip_5.10.2020.lib(in_aton.o)
 .debug_macinfo
                0x0019fba4     0x3396 /cygdrive/c/OpenAT/Plug-ins/WIP/5.10.2020/WIP/gcc_wmwip_5.10.2020.lib(in_ntoa.o)
 .debug_macinfo
                0x001a2f3a     0x64ba /cygdrive/c/OpenAT/Plug-ins/WIP/5.10.2020/WIP/gcc_wmwip_5.10.2020.lib(list_plugin_unix.o)
 .debug_macinfo
                0x001a93f4     0x58b3 /cygdrive/c/OpenAT/Plug-ins/WIP/5.10.2020/WIP/gcc_wmwip_5.10.2020.lib(net_debug.o)
 .debug_macinfo
                0x001aeca7     0x35af /cygdrive/c/OpenAT/Plug-ins/WIP/5.10.2020/WIP/gcc_wmwip_5.10.2020.lib(net_init.o)
 .debug_macinfo
                0x001b2256     0x8d1b /cygdrive/c/OpenAT/Plug-ins/WIP/5.10.2020/WIP/gcc_wmwip_5.10.2020.lib(net_initopts.o)
 .debug_macinfo
                0x001baf71     0x7f65 /cygdrive/c/OpenAT/Plug-ins/WIP/5.10.2020/WIP/gcc_wmwip_5.10.2020.lib(net_setopts.o)
 .debug_macinfo
                0x001c2ed6     0x8d03 /cygdrive/c/OpenAT/Plug-ins/WIP/5.10.2020/WIP/gcc_wmwip_5.10.2020.lib(net_sync.o)
 .debug_macinfo
                0x001cbbd9     0x6e26 /cygdrive/c/OpenAT/Plug-ins/WIP/5.10.2020/WIP/gcc_wmwip_5.10.2020.lib(queue.o)
 .debug_macinfo
                0x001d29ff     0x6e24 /cygdrive/c/OpenAT/Plug-ins/WIP/5.10.2020/WIP/gcc_wmwip_5.10.2020.lib(readline.o)
 .debug_macinfo
                0x001d9823     0x6e8e /cygdrive/c/OpenAT/Plug-ins/WIP/5.10.2020/WIP/gcc_wmwip_5.10.2020.lib(wip_subLevelOpts.o)
 .debug_macinfo
                0x001e06b1     0x70b8 /cygdrive/c/OpenAT/Plug-ins/WIP/5.10.2020/WIP/gcc_wmwip_5.10.2020.lib(wrapper.o)
 .debug_macinfo
                0x001e7769     0x43a4 /cygdrive/c/OpenAT/Plug-ins/WIP/5.10.2020/WIP/gcc_wmwip_5.10.2020.lib(wm_net_hton.o)
 .debug_macinfo
                0x001ebb0d     0x42ea /cygdrive/c/OpenAT/Plug-ins/WIP/5.10.2020/WIP/gcc_wmwip_5.10.2020.lib(wm_net_in_aton.o)
 .debug_macinfo
                0x001efdf7     0x4daa /cygdrive/c/OpenAT/Plug-ins/WIP/5.10.2020/WIP/gcc_wmwip_5.10.2020.lib(wm_net_in_ntoa.o)
 .debug_macinfo
                0x001f4ba1     0x6c06 /cygdrive/c/OpenAT/Plug-ins/WIP/5.10.2020/WIP/gcc_wmwip_5.10.2020.lib(wm_net_wrapper.o)
 .debug_macinfo
                0x001fb7a7     0x386a /cygdrive/c/OpenAT/Plug-ins/WIP/5.10.2020/WIP/gcc_wmwip_5.10.2020.lib(rawprint.o)
 .debug_macinfo
                0x001ff011     0x575c /cygdrive/c/OpenAT/Plug-ins/WIP/5.10.2020/WIP/gcc_wmwip_5.10.2020.lib(br_eth.o)
 .debug_macinfo
                0x0020476d     0x545a /cygdrive/c/OpenAT/Plug-ins/WIP/5.10.2020/WIP/gcc_wmwip_5.10.2020.lib(br_gen_close.o)
 .debug_macinfo
                0x00209bc7     0x557a /cygdrive/c/OpenAT/Plug-ins/WIP/5.10.2020/WIP/gcc_wmwip_5.10.2020.lib(br_gen_getopt.o)
 .debug_macinfo
                0x0020f141     0x8813 /cygdrive/c/OpenAT/Plug-ins/WIP/5.10.2020/WIP/gcc_wmwip_5.10.2020.lib(br_gen_setopt.o)
 .debug_macinfo
                0x00217954     0x545a /cygdrive/c/OpenAT/Plug-ins/WIP/5.10.2020/WIP/gcc_wmwip_5.10.2020.lib(br_gen_stop.o)
 .debug_macinfo
                0x0021cdae     0x5ab9 /cygdrive/c/OpenAT/Plug-ins/WIP/5.10.2020/WIP/gcc_wmwip_5.10.2020.lib(br_gprs.o)
 .debug_macinfo
                0x00222867     0x5e80 /cygdrive/c/OpenAT/Plug-ins/WIP/5.10.2020/WIP/gcc_wmwip_5.10.2020.lib(br_gsm.o)
 .debug_macinfo
                0x002286e7     0x545a /cygdrive/c/OpenAT/Plug-ins/WIP/5.10.2020/WIP/gcc_wmwip_5.10.2020.lib(br_mgr_debug.o)
 .debug_macinfo
                0x0022db41     0x5a1d /cygdrive/c/OpenAT/Plug-ins/WIP/5.10.2020/WIP/gcc_wmwip_5.10.2020.lib(br_ppp_getopt.o)
 .debug_macinfo
                0x0023355e     0x5a1d /cygdrive/c/OpenAT/Plug-ins/WIP/5.10.2020/WIP/gcc_wmwip_5.10.2020.lib(br_ppp_init.o)
 .debug_macinfo
                0x00238f7b     0x5a1d /cygdrive/c/OpenAT/Plug-ins/WIP/5.10.2020/WIP/gcc_wmwip_5.10.2020.lib(br_ppp_setopt.o)
 .debug_macinfo
                0x0023e998     0x5a1d /cygdrive/c/OpenAT/Plug-ins/WIP/5.10.2020/WIP/gcc_wmwip_5.10.2020.lib(br_ppp_start.o)
 .debug_macinfo
                0x002443b5     0x58fd /cygdrive/c/OpenAT/Plug-ins/WIP/5.10.2020/WIP/gcc_wmwip_5.10.2020.lib(br_ppp_stop.o)
 .debug_macinfo
                0x00249cb2     0x7045 /cygdrive/c/OpenAT/Plug-ins/WIP/5.10.2020/WIP/gcc_wmwip_5.10.2020.lib(ch_class.o)
 .debug_macinfo
                0x00250cf7     0x8e80 /cygdrive/c/OpenAT/Plug-ins/WIP/5.10.2020/WIP/gcc_wmwip_5.10.2020.lib(ch_tcp_server.o)
